

Microchip MPLAB XC8 Assembler V2.36 build 20220127204148 
                                                                                               Mon Dec 05 14:00:36 2022

Microchip MPLAB XC8 C Compiler v2.36 (Free license) build 20220127204148 Og1 
     1                           	processor	16F877A
     2                           	pagewidth 120
     3                           	opt	flic
     4                           	psect	idataBANK0,global,class=CODE,delta=2,noexec
     5                           	psect	strings,global,class=STRING,delta=2,noexec
     6                           	psect	cinit,global,class=CODE,merge=1,delta=2
     7                           	psect	bssBANK0,global,class=BANK0,space=1,delta=1,noexec
     8                           	psect	dataBANK0,global,class=BANK0,space=1,delta=1,noexec
     9                           	psect	clrtext,global,class=CODE,delta=2
    10                           	psect	cstackCOMMON,global,class=COMMON,space=1,delta=1,noexec
    11                           	psect	cstackBANK0,global,class=BANK0,space=1,delta=1,noexec
    12                           	psect	maintext,global,class=CODE,split=1,delta=2
    13                           	psect	text1,local,class=CODE,merge=1,delta=2
    14                           	psect	text2,local,class=CODE,merge=1,delta=2
    15                           	psect	text3,local,class=CODE,merge=1,delta=2,group=1
    16                           	psect	text4,local,class=CODE,merge=1,delta=2,group=1
    17                           	psect	text5,local,class=CODE,merge=1,delta=2
    18                           	psect	text6,local,class=CODE,merge=1,delta=2
    19                           	psect	text7,local,class=CODE,merge=1,delta=2
    20                           	psect	text8,local,class=CODE,merge=1,delta=2,group=1
    21                           	psect	text9,local,class=CODE,merge=1,delta=2,group=1
    22                           	psect	text10,local,class=CODE,merge=1,delta=2
    23                           	psect	text11,local,class=CODE,merge=1,delta=2,group=1
    24                           	psect	text12,local,class=CODE,merge=1,delta=2
    25                           	psect	text13,local,class=CODE,merge=1,delta=2
    26                           	psect	text14,local,class=CODE,merge=1,delta=2
    27                           	psect	text15,local,class=CODE,merge=1,delta=2
    28                           	psect	text16,local,class=CODE,merge=1,delta=2
    29                           	psect	text17,local,class=CODE,merge=1,delta=2
    30                           	psect	text18,local,class=CODE,merge=1,delta=2
    31                           	psect	text19,local,class=CODE,merge=1,delta=2
    32                           	psect	idloc,global,abs,ovrld,class=IDLOC,space=5,delta=2,noexec
    33                           	psect	config,global,abs,ovrld,class=CONFIG,space=4,delta=2,noexec
    34                           	dabs	1,0x7E,2
    35  0000                     
    36                           ; Version 2.40
    37                           ; Generated 17/11/2021 GMT
    38                           ; 
    39                           ; Copyright © 2021, Microchip Technology Inc. and its subsidiaries ("Microchip")
    40                           ; All rights reserved.
    41                           ; 
    42                           ; This software is developed by Microchip Technology Inc. and its subsidiaries ("Microch
      +                          ip").
    43                           ; 
    44                           ; Redistribution and use in source and binary forms, with or without modification, are
    45                           ; permitted provided that the following conditions are met:
    46                           ; 
    47                           ;     1. Redistributions of source code must retain the above copyright notice, this lis
      +                          t of
    48                           ;        conditions and the following disclaimer.
    49                           ; 
    50                           ;     2. Redistributions in binary form must reproduce the above copyright notice, this 
      +                          list
    51                           ;        of conditions and the following disclaimer in the documentation and/or other
    52                           ;        materials provided with the distribution. Publication is not required when
    53                           ;        this file is used in an embedded application.
    54                           ; 
    55                           ;     3. Microchip's name may not be used to endorse or promote products derived from th
      +                          is
    56                           ;        software without specific prior written permission.
    57                           ; 
    58                           ; THIS SOFTWARE IS PROVIDED BY MICROCHIP "AS IS" AND ANY EXPRESS OR IMPLIED WARRANTIES,
    59                           ; INCLUDING, BUT NOT LIMITED TO, THE IMPLIED WARRANTIES OF MERCHANTABILITY AND FITNESS F
      +                          OR
    60                           ; PURPOSE ARE DISCLAIMED.  IN NO EVENT SHALL MICROCHIP BE LIABLE FOR ANY DIRECT, INDIREC
      +                          T,
    61                           ; INCIDENTAL, SPECIAL, EXEMPLARY, OR CONSEQUENTIAL DAMAGES (INCLUDING BUT NOT LIMITED TO
    62                           ; PROCUREMENT OF SUBSTITUTE GOODS OR SERVICES; LOSS OF USE, DATA OR PROFITS; OR BUSINESS
    63                           ; INTERRUPTION) HOWSOEVER CAUSED AND ON ANY THEORY OF LIABILITY, WHETHER IN CONTRACT, ST
      +                          RICT
    64                           ; LIABILITY, OR TORT (INCLUDING NEGLIGENCE OR OTHERWISE) ARISING IN ANY WAY OUT OF THE U
      +                          SE OF
    65                           ; THIS SOFTWARE, EVEN IF ADVISED OF THE POSSIBILITY OF SUCH DAMAGE.
    66                           ; 
    67                           ; 
    68                           ; Code-generator required, PIC16F877A Definitions
    69                           ; 
    70                           ; SFR Addresses
    71  0000                     	;# 
    72  0001                     	;# 
    73  0002                     	;# 
    74  0003                     	;# 
    75  0004                     	;# 
    76  0005                     	;# 
    77  0006                     	;# 
    78  0007                     	;# 
    79  0008                     	;# 
    80  0009                     	;# 
    81  000A                     	;# 
    82  000B                     	;# 
    83  000C                     	;# 
    84  000D                     	;# 
    85  000E                     	;# 
    86  000E                     	;# 
    87  000F                     	;# 
    88  0010                     	;# 
    89  0011                     	;# 
    90  0012                     	;# 
    91  0013                     	;# 
    92  0014                     	;# 
    93  0015                     	;# 
    94  0015                     	;# 
    95  0016                     	;# 
    96  0017                     	;# 
    97  0018                     	;# 
    98  0019                     	;# 
    99  001A                     	;# 
   100  001B                     	;# 
   101  001B                     	;# 
   102  001C                     	;# 
   103  001D                     	;# 
   104  001E                     	;# 
   105  001F                     	;# 
   106  0081                     	;# 
   107  0085                     	;# 
   108  0086                     	;# 
   109  0087                     	;# 
   110  0088                     	;# 
   111  0089                     	;# 
   112  008C                     	;# 
   113  008D                     	;# 
   114  008E                     	;# 
   115  0091                     	;# 
   116  0092                     	;# 
   117  0093                     	;# 
   118  0094                     	;# 
   119  0098                     	;# 
   120  0099                     	;# 
   121  009C                     	;# 
   122  009D                     	;# 
   123  009E                     	;# 
   124  009F                     	;# 
   125  010C                     	;# 
   126  010D                     	;# 
   127  010E                     	;# 
   128  010F                     	;# 
   129  018C                     	;# 
   130  018D                     	;# 
   131  0000                     	;# 
   132  0001                     	;# 
   133  0002                     	;# 
   134  0003                     	;# 
   135  0004                     	;# 
   136  0005                     	;# 
   137  0006                     	;# 
   138  0007                     	;# 
   139  0008                     	;# 
   140  0009                     	;# 
   141  000A                     	;# 
   142  000B                     	;# 
   143  000C                     	;# 
   144  000D                     	;# 
   145  000E                     	;# 
   146  000E                     	;# 
   147  000F                     	;# 
   148  0010                     	;# 
   149  0011                     	;# 
   150  0012                     	;# 
   151  0013                     	;# 
   152  0014                     	;# 
   153  0015                     	;# 
   154  0015                     	;# 
   155  0016                     	;# 
   156  0017                     	;# 
   157  0018                     	;# 
   158  0019                     	;# 
   159  001A                     	;# 
   160  001B                     	;# 
   161  001B                     	;# 
   162  001C                     	;# 
   163  001D                     	;# 
   164  001E                     	;# 
   165  001F                     	;# 
   166  0081                     	;# 
   167  0085                     	;# 
   168  0086                     	;# 
   169  0087                     	;# 
   170  0088                     	;# 
   171  0089                     	;# 
   172  008C                     	;# 
   173  008D                     	;# 
   174  008E                     	;# 
   175  0091                     	;# 
   176  0092                     	;# 
   177  0093                     	;# 
   178  0094                     	;# 
   179  0098                     	;# 
   180  0099                     	;# 
   181  009C                     	;# 
   182  009D                     	;# 
   183  009E                     	;# 
   184  009F                     	;# 
   185  010C                     	;# 
   186  010D                     	;# 
   187  010E                     	;# 
   188  010F                     	;# 
   189  018C                     	;# 
   190  018D                     	;# 
   191                           
   192                           	psect	idataBANK0
   193  0C74                     __pidataBANK0:
   194                           
   195                           ;initializer for _wifiCounter
   196  0C74  3401               	retlw	1
   197  0C75  3400               	retlw	0
   198                           
   199                           ;initializer for _door_CM
   200  0C76  343C               	retlw	60
   201  0C77  3400               	retlw	0
   202  000E                     _TMR1	set	14
   203  001A                     _RCREG	set	26
   204  0019                     _TXREG	set	25
   205  0006                     _PORTB	set	6
   206  002D                     _RA5	set	45
   207  002C                     _RA4	set	44
   208  002B                     _RA3	set	43
   209  002A                     _RA2	set	42
   210  0029                     _RA1	set	41
   211  0028                     _RA0	set	40
   212  0043                     _RD3	set	67
   213  0042                     _RD2	set	66
   214  0041                     _RD1	set	65
   215  0081                     _TMR1CS	set	129
   216  0065                     _RCIF	set	101
   217  00C1                     _OERR	set	193
   218  0064                     _TXIF	set	100
   219  00C4                     _CREN	set	196
   220  00C6                     _RX9	set	198
   221  00C7                     _SPEN	set	199
   222  0040                     _RD0	set	64
   223  003B                     _RC3	set	59
   224  003A                     _RC2	set	58
   225  003C                     _RC4	set	60
   226  003D                     _RC5	set	61
   227  0044                     _RD4	set	68
   228  0045                     _RD5	set	69
   229  0085                     _T1CKPS1	set	133
   230  0084                     _T1CKPS0	set	132
   231  0080                     _TMR1ON	set	128
   232  0046                     _RD6	set	70
   233  0047                     _RD7	set	71
   234  0086                     _TRISB	set	134
   235  0099                     _SPBRG	set	153
   236  042D                     _TRISA5	set	1069
   237  042C                     _TRISA4	set	1068
   238  042B                     _TRISA3	set	1067
   239  042A                     _TRISA2	set	1066
   240  0429                     _TRISA1	set	1065
   241  0428                     _TRISA0	set	1064
   242  043C                     _TRISC4	set	1084
   243  043D                     _TRISC5	set	1085
   244  0444                     _TRISD4	set	1092
   245  0445                     _TRISD5	set	1093
   246  0446                     _TRISD6	set	1094
   247  0447                     _TRISD7	set	1095
   248  0443                     _TRISD3	set	1091
   249  0442                     _TRISD2	set	1090
   250  0441                     _TRISD1	set	1089
   251  0440                     _TRISD0	set	1088
   252  043B                     _TRISC3	set	1083
   253  043A                     _TRISC2	set	1082
   254  04C1                     _TRMT	set	1217
   255  04C5                     _TXEN	set	1221
   256  04C6                     _TX9	set	1222
   257  04C4                     _SYNC	set	1220
   258  04C2                     _BRGH	set	1218
   259  043F                     _TRISC7	set	1087
   260  043E                     _TRISC6	set	1086
   261                           
   262                           	psect	strings
   263  0003                     __pstrings:
   264  0003                     stringtab:
   265  0003                     __stringtab:
   266                           
   267                           ;	String table - string pointers are 1 byte each
   268  0003  1BFF               	btfsc	btemp+1,7
   269  0004  280D               	ljmp	stringcode
   270  0005  1383               	bcf	3,7
   271  0006  187F               	btfsc	btemp+1,0
   272  0007  1783               	bsf	3,7
   273  0008  0800               	movf	0,w
   274  0009  0A84               	incf	4,f
   275  000A  1903               	skipnz
   276  000B  0AFF               	incf	btemp+1,f
   277  000C  0008               	return
   278  000D                     stringcode:
   279  000D                     stringdir:
   280  000D  3000               	movlw	high stringdir
   281  000E  008A               	movwf	10
   282  000F  0804               	movf	4,w
   283  0010  0A84               	incf	4,f
   284  0011  0782               	addwf	2,f
   285  0012                     __stringbase:
   286  0012  3400               	retlw	0
   287  0013                     __end_of__stringtab:
   288  0013                     STR_8:
   289  0013  342D               	retlw	45	;'-'
   290  0014  342D               	retlw	45	;'-'
   291  0015  342D               	retlw	45	;'-'
   292  0016  342D               	retlw	45	;'-'
   293  0017  342D               	retlw	45	;'-'
   294  0018  342D               	retlw	45	;'-'
   295  0019  342D               	retlw	45	;'-'
   296  001A  342D               	retlw	45	;'-'
   297  001B  342D               	retlw	45	;'-'
   298  001C  342D               	retlw	45	;'-'
   299  001D  342D               	retlw	45	;'-'
   300  001E  342D               	retlw	45	;'-'
   301  001F  342D               	retlw	45	;'-'
   302  0020  342D               	retlw	45	;'-'
   303  0021  342D               	retlw	45	;'-'
   304  0022  342D               	retlw	45	;'-'
   305  0023  342D               	retlw	45	;'-'
   306  0024  342D               	retlw	45	;'-'
   307  0025  342D               	retlw	45	;'-'
   308  0026  342D               	retlw	45	;'-'
   309  0027  342D               	retlw	45	;'-'
   310  0028  342D               	retlw	45	;'-'
   311  0029  342D               	retlw	45	;'-'
   312  002A  342D               	retlw	45	;'-'
   313  002B  340A               	retlw	10
   314  002C  3400               	retlw	0
   315  002D                     STR_6:
   316  002D  3450               	retlw	80	;'P'
   317  002E  3465               	retlw	101	;'e'
   318  002F  346F               	retlw	111	;'o'
   319  0030  3470               	retlw	112	;'p'
   320  0031  346C               	retlw	108	;'l'
   321  0032  3465               	retlw	101	;'e'
   322  0033  3420               	retlw	32	;' '
   323  0034  3462               	retlw	98	;'b'
   324  0035  3465               	retlw	101	;'e'
   325  0036  3474               	retlw	116	;'t'
   326  0037  3477               	retlw	119	;'w'
   327  0038  3465               	retlw	101	;'e'
   328  0039  3465               	retlw	101	;'e'
   329  003A  346E               	retlw	110	;'n'
   330  003B  3420               	retlw	32	;' '
   331  003C  3431               	retlw	49	;'1'
   332  003D  3435               	retlw	53	;'5'
   333  003E  3430               	retlw	48	;'0'
   334  003F  342D               	retlw	45	;'-'
   335  0040  3431               	retlw	49	;'1'
   336  0041  3437               	retlw	55	;'7'
   337  0042  3430               	retlw	48	;'0'
   338  0043  343A               	retlw	58	;':'
   339  0044  3420               	retlw	32	;' '
   340  0045  3420               	retlw	32	;' '
   341  0046  3400               	retlw	0
   342  0047                     STR_9:
   343  0047  3450               	retlw	80	;'P'
   344  0048  3465               	retlw	101	;'e'
   345  0049  346F               	retlw	111	;'o'
   346  004A  3470               	retlw	112	;'p'
   347  004B  346C               	retlw	108	;'l'
   348  004C  3465               	retlw	101	;'e'
   349  004D  3420               	retlw	32	;' '
   350  004E  3462               	retlw	98	;'b'
   351  004F  3465               	retlw	101	;'e'
   352  0050  3474               	retlw	116	;'t'
   353  0051  3477               	retlw	119	;'w'
   354  0052  3465               	retlw	101	;'e'
   355  0053  3465               	retlw	101	;'e'
   356  0054  346E               	retlw	110	;'n'
   357  0055  3420               	retlw	32	;' '
   358  0056  3431               	retlw	49	;'1'
   359  0057  3437               	retlw	55	;'7'
   360  0058  3430               	retlw	48	;'0'
   361  0059  342D               	retlw	45	;'-'
   362  005A  3431               	retlw	49	;'1'
   363  005B  3439               	retlw	57	;'9'
   364  005C  3430               	retlw	48	;'0'
   365  005D  343A               	retlw	58	;':'
   366  005E  3420               	retlw	32	;' '
   367  005F  3420               	retlw	32	;' '
   368  0060  3400               	retlw	0
   369  0061                     STR_12:
   370  0061  3450               	retlw	80	;'P'
   371  0062  3465               	retlw	101	;'e'
   372  0063  346F               	retlw	111	;'o'
   373  0064  3470               	retlw	112	;'p'
   374  0065  346C               	retlw	108	;'l'
   375  0066  3465               	retlw	101	;'e'
   376  0067  3420               	retlw	32	;' '
   377  0068  346F               	retlw	111	;'o'
   378  0069  3476               	retlw	118	;'v'
   379  006A  3465               	retlw	101	;'e'
   380  006B  3472               	retlw	114	;'r'
   381  006C  3420               	retlw	32	;' '
   382  006D  3431               	retlw	49	;'1'
   383  006E  3439               	retlw	57	;'9'
   384  006F  3430               	retlw	48	;'0'
   385  0070  343A               	retlw	58	;':'
   386  0071  3420               	retlw	32	;' '
   387  0072  3420               	retlw	32	;' '
   388  0073  3400               	retlw	0
   389  0074                     STR_2:
   390  0074  3435               	retlw	53	;'5'
   391  0075  342D               	retlw	45	;'-'
   392  0076  3437               	retlw	55	;'7'
   393  0077  3420               	retlw	32	;' '
   394  0078  3437               	retlw	55	;'7'
   395  0079  342D               	retlw	45	;'-'
   396  007A  3439               	retlw	57	;'9'
   397  007B  3420               	retlw	32	;' '
   398  007C  346F               	retlw	111	;'o'
   399  007D  3476               	retlw	118	;'v'
   400  007E  3465               	retlw	101	;'e'
   401  007F  3472               	retlw	114	;'r'
   402  0080  3420               	retlw	32	;' '
   403  0081  3439               	retlw	57	;'9'
   404  0082  3400               	retlw	0
   405  0083                     STR_1:
   406  0083  3462               	retlw	98	;'b'
   407  0084  3465               	retlw	101	;'e'
   408  0085  3466               	retlw	102	;'f'
   409  0086  346F               	retlw	111	;'o'
   410  0087  3472               	retlw	114	;'r'
   411  0088  3465               	retlw	101	;'e'
   412  0089  3420               	retlw	32	;' '
   413  008A  3457               	retlw	87	;'W'
   414  008B  3468               	retlw	104	;'h'
   415  008C  3469               	retlw	105	;'i'
   416  008D  346C               	retlw	108	;'l'
   417  008E  3465               	retlw	101	;'e'
   418  008F  3400               	retlw	0
   419  0090                     STR_3:
   420  0090  3430               	retlw	48	;'0'
   421  0091  3400               	retlw	0
   422  002B                     
   423                           	psect	cinit
   424  07DB                     start_initialization:	
   425                           ; #config settings
   426                           
   427  07DB                     __initialization:
   428                           
   429                           ; Initialize objects allocated to BANK0
   430  07DB  120A  158A  2474  120A  118A  	fcall	__pidataBANK0	;fetch initializer
   431  07E0  00E7               	movwf	__pdataBANK0& (0+127)
   432  07E1  120A  158A  2475  120A  118A  	fcall	__pidataBANK0+1	;fetch initializer
   433  07E6  00E8               	movwf	(__pdataBANK0+1)& (0+127)
   434  07E7  120A  158A  2476  120A  118A  	fcall	__pidataBANK0+2	;fetch initializer
   435  07EC  00E9               	movwf	(__pdataBANK0+2)& (0+127)
   436  07ED  120A  158A  2477  120A  118A  	fcall	__pidataBANK0+3	;fetch initializer
   437  07F2  00EA               	movwf	(__pdataBANK0+3)& (0+127)
   438                           
   439                           ; Clear objects allocated to BANK0
   440  07F3  1383               	bcf	3,7	;select IRP bank0
   441  07F4  3055               	movlw	low __pbssBANK0
   442  07F5  0084               	movwf	4
   443  07F6  3067               	movlw	low (__pbssBANK0+18)
   444  07F7  120A  118A  2092  120A  118A  	fcall	clear_ram0
   445  07FC                     end_of_initialization:	
   446                           ;End of C runtime variable initialization code
   447                           
   448  07FC                     __end_of__initialization:
   449  07FC  0183               	clrf	3
   450  07FD  120A  118A  2CF1   	ljmp	_main	;jump to C main() function
   451                           
   452                           	psect	bssBANK0
   453  0055                     __pbssBANK0:
   454  0055                     _count1:
   455  0055                     	ds	2
   456  0057                     _count2:
   457  0057                     	ds	2
   458  0059                     _count3:
   459  0059                     	ds	2
   460  005B                     itoa@buffer:
   461  005B                     	ds	12
   462                           
   463                           	psect	dataBANK0
   464  0067                     __pdataBANK0:
   465  0067                     _wifiCounter:
   466  0067                     	ds	2
   467  0069                     _door_CM:
   468  0069                     	ds	2
   469                           
   470                           	psect	clrtext
   471  0092                     clear_ram0:	
   472                           ;	Called with FSR containing the base address, and
   473                           ;	W with the last address+1
   474                           
   475  0092  0064               	clrwdt	;clear the watchdog before getting into this loop
   476  0093                     clrloop0:
   477  0093  0180               	clrf	0	;clear RAM location pointed to by FSR
   478  0094  0A84               	incf	4,f	;increment pointer
   479  0095  0604               	xorwf	4,w	;XOR with final address
   480  0096  1903               	btfsc	3,2	;have we reached the end yet?
   481  0097  3400               	retlw	0	;all done for this memory range, return
   482  0098  0604               	xorwf	4,w	;XOR again to restore value
   483  0099  2893               	goto	clrloop0	;do the next byte
   484                           
   485                           	psect	cstackCOMMON
   486  0070                     __pcstackCOMMON:
   487  0070                     ?___flge:
   488  0070                     ?_updateWifiCounter:	
   489                           ; 1 bit 
   490                           
   491  0070                     ?_LCD_Data:	
   492                           ; 1 bytes @ 0x0
   493                           
   494  0070                     ??_LCD_Data:	
   495                           ; 1 bytes @ 0x0
   496                           
   497  0070                     ?_LCD_Command:	
   498                           ; 1 bytes @ 0x0
   499                           
   500  0070                     ??_LCD_Command:	
   501                           ; 1 bytes @ 0x0
   502                           
   503  0070                     ?_LCD_init:	
   504                           ; 1 bytes @ 0x0
   505                           
   506  0070                     ?_LCD_Clear:	
   507                           ; 1 bytes @ 0x0
   508                           
   509  0070                     ?_Initialize_Bluetooth:	
   510                           ; 1 bytes @ 0x0
   511                           
   512  0070                     ??_Initialize_Bluetooth:	
   513                           ; 1 bytes @ 0x0
   514                           
   515  0070                     ?_BT_load_char:	
   516                           ; 1 bytes @ 0x0
   517                           
   518  0070                     ??_BT_load_char:	
   519                           ; 1 bytes @ 0x0
   520                           
   521  0070                     ?_broadcast_BT:	
   522                           ; 1 bytes @ 0x0
   523                           
   524  0070                     ??_broadcast_BT:	
   525                           ; 1 bytes @ 0x0
   526                           
   527  0070                     ?_main:	
   528                           ; 1 bytes @ 0x0
   529                           
   530  0070                     ?___awdiv:	
   531                           ; 1 bytes @ 0x0
   532                           
   533  0070                     ?___awmod:	
   534                           ; 2 bytes @ 0x0
   535                           
   536  0070                     ?___xxtofl:	
   537                           ; 2 bytes @ 0x0
   538                           
   539  0070                     BT_load_char@byte:	
   540                           ; 4 bytes @ 0x0
   541                           
   542  0070                     ___awdiv@divisor:	
   543                           ; 1 bytes @ 0x0
   544                           
   545  0070                     ___awmod@divisor:	
   546                           ; 2 bytes @ 0x0
   547                           
   548  0070                     ___flge@ff1:	
   549                           ; 2 bytes @ 0x0
   550                           
   551  0070                     ___xxtofl@val:	
   552                           ; 4 bytes @ 0x0
   553                           
   554                           
   555                           ; 4 bytes @ 0x0
   556  0070                     	ds	1
   557  0071                     ?_BT_load_string:
   558  0071                     BT_load_string@string:	
   559                           ; 1 bytes @ 0x1
   560                           
   561                           
   562                           ; 2 bytes @ 0x1
   563  0071                     	ds	1
   564  0072                     LCD_Data@data:
   565  0072                     LCD_Command@cmd:	
   566                           ; 1 bytes @ 0x2
   567                           
   568  0072                     ___awdiv@dividend:	
   569                           ; 1 bytes @ 0x2
   570                           
   571  0072                     ___awmod@dividend:	
   572                           ; 2 bytes @ 0x2
   573                           
   574                           
   575                           ; 2 bytes @ 0x2
   576  0072                     	ds	1
   577  0073                     ??_LCD_init:
   578  0073                     ?_LCD_string:	
   579                           ; 1 bytes @ 0x3
   580                           
   581  0073                     ??_LCD_Clear:	
   582                           ; 1 bytes @ 0x3
   583                           
   584  0073                     ??_BT_load_string:	
   585                           ; 1 bytes @ 0x3
   586                           
   587  0073                     LCD_string@str:	
   588                           ; 1 bytes @ 0x3
   589                           
   590                           
   591                           ; 2 bytes @ 0x3
   592  0073                     	ds	1
   593  0074                     ??___awdiv:
   594  0074                     ??___awmod:	
   595                           ; 1 bytes @ 0x4
   596                           
   597  0074                     ??___xxtofl:	
   598                           ; 1 bytes @ 0x4
   599                           
   600  0074                     ___flge@ff2:	
   601                           ; 1 bytes @ 0x4
   602                           
   603                           
   604                           ; 4 bytes @ 0x4
   605  0074                     	ds	1
   606  0075                     ??_LCD_string:
   607  0075                     ___awdiv@counter:	
   608                           ; 1 bytes @ 0x5
   609                           
   610  0075                     ___awmod@counter:	
   611                           ; 1 bytes @ 0x5
   612                           
   613  0075                     LCD_string@i:	
   614                           ; 1 bytes @ 0x5
   615                           
   616                           
   617                           ; 2 bytes @ 0x5
   618  0075                     	ds	1
   619  0076                     ___awdiv@sign:
   620  0076                     ___awmod@sign:	
   621                           ; 1 bytes @ 0x6
   622                           
   623                           
   624                           ; 1 bytes @ 0x6
   625  0076                     	ds	1
   626  0077                     ___awdiv@quotient:
   627                           
   628                           ; 2 bytes @ 0x7
   629  0077                     	ds	1
   630  0078                     ??___flge:
   631  0078                     ___xxtofl@sign:	
   632                           ; 1 bytes @ 0x8
   633                           
   634                           
   635                           ; 1 bytes @ 0x8
   636  0078                     	ds	1
   637  0079                     ??_updateWifiCounter:
   638  0079                     ?_itoa:	
   639                           ; 1 bytes @ 0x9
   640                           
   641  0079                     ___xxtofl@exp:	
   642                           ; 1 bytes @ 0x9
   643                           
   644  0079                     itoa@value:	
   645                           ; 1 bytes @ 0x9
   646                           
   647                           
   648                           ; 2 bytes @ 0x9
   649  0079                     	ds	1
   650  007A                     ___xxtofl@arg:
   651                           
   652                           ; 4 bytes @ 0xA
   653  007A                     	ds	1
   654  007B                     ??_itoa:
   655                           
   656                           ; 1 bytes @ 0xB
   657  007B                     	ds	3
   658                           
   659                           	psect	cstackBANK0
   660  0020                     __pcstackBANK0:
   661  0020                     ?___fldiv:
   662  0020                     itoa@original:	
   663                           ; 4 bytes @ 0x0
   664                           
   665  0020                     updateWifiCounter@temp:	
   666                           ; 2 bytes @ 0x0
   667                           
   668  0020                     ___fldiv@a:	
   669                           ; 2 bytes @ 0x0
   670                           
   671                           
   672                           ; 4 bytes @ 0x0
   673  0020                     	ds	2
   674  0022                     itoa@c:
   675  0022                     updateWifiCounter@temp_166:	
   676                           ; 2 bytes @ 0x2
   677                           
   678                           
   679                           ; 2 bytes @ 0x2
   680  0022                     	ds	2
   681  0024                     updateWifiCounter@temp_167:
   682  0024                     ___fldiv@b:	
   683                           ; 2 bytes @ 0x4
   684                           
   685                           
   686                           ; 4 bytes @ 0x4
   687  0024                     	ds	4
   688  0028                     ??___fldiv:
   689                           
   690                           ; 1 bytes @ 0x8
   691  0028                     	ds	5
   692  002D                     ___fldiv@rem:
   693                           
   694                           ; 4 bytes @ 0xD
   695  002D                     	ds	4
   696  0031                     ___fldiv@sign:
   697                           
   698                           ; 1 bytes @ 0x11
   699  0031                     	ds	1
   700  0032                     ___fldiv@new_exp:
   701                           
   702                           ; 2 bytes @ 0x12
   703  0032                     	ds	2
   704  0034                     ___fldiv@grs:
   705                           
   706                           ; 4 bytes @ 0x14
   707  0034                     	ds	4
   708  0038                     ___fldiv@bexp:
   709                           
   710                           ; 1 bytes @ 0x18
   711  0038                     	ds	1
   712  0039                     ___fldiv@aexp:
   713                           
   714                           ; 1 bytes @ 0x19
   715  0039                     	ds	1
   716  003A                     ?_dist1:
   717  003A                     ?_dist2:	
   718                           ; 4 bytes @ 0x1A
   719                           
   720  003A                     ?_dist3:	
   721                           ; 4 bytes @ 0x1A
   722                           
   723                           
   724                           ; 4 bytes @ 0x1A
   725  003A                     	ds	4
   726  003E                     ??_dist1:
   727  003E                     ??_dist2:	
   728                           ; 1 bytes @ 0x1E
   729                           
   730  003E                     ??_dist3:	
   731                           ; 1 bytes @ 0x1E
   732                           
   733                           
   734                           ; 1 bytes @ 0x1E
   735  003E                     	ds	1
   736  003F                     dist1@distance1:
   737  003F                     dist2@distance2:	
   738                           ; 4 bytes @ 0x1F
   739                           
   740  003F                     dist3@distance3:	
   741                           ; 4 bytes @ 0x1F
   742                           
   743                           
   744                           ; 4 bytes @ 0x1F
   745  003F                     	ds	4
   746  0043                     ??_main:
   747                           
   748                           ; 1 bytes @ 0x23
   749  0043                     	ds	3
   750  0046                     main@distance1:
   751                           
   752                           ; 4 bytes @ 0x26
   753  0046                     	ds	4
   754  004A                     main@distance2:
   755                           
   756                           ; 4 bytes @ 0x2A
   757  004A                     	ds	4
   758  004E                     main@distance3:
   759                           
   760                           ; 4 bytes @ 0x2E
   761  004E                     	ds	4
   762  0052                     main@c3:
   763                           
   764                           ; 1 bytes @ 0x32
   765  0052                     	ds	1
   766  0053                     main@c2:
   767                           
   768                           ; 1 bytes @ 0x33
   769  0053                     	ds	1
   770  0054                     main@c1:
   771                           
   772                           ; 1 bytes @ 0x34
   773  0054                     	ds	1
   774                           
   775                           	psect	maintext
   776  04F1                     __pmaintext:	
   777 ;;
   778 ;;Main: autosize = 0, tempsize = 3, incstack = 0, save=0
   779 ;;
   780 ;; *************** function _main *****************
   781 ;; Defined at:
   782 ;;		line 33 in file "mainBT.c"
   783 ;; Parameters:    Size  Location     Type
   784 ;;		None
   785 ;; Auto vars:     Size  Location     Type
   786 ;;  distance3       4   46[BANK0 ] float 
   787 ;;  distance2       4   42[BANK0 ] float 
   788 ;;  distance1       4   38[BANK0 ] float 
   789 ;;  c1              1   52[BANK0 ] unsigned char 
   790 ;;  c2              1   51[BANK0 ] unsigned char 
   791 ;;  c3              1   50[BANK0 ] unsigned char 
   792 ;; Return value:  Size  Location     Type
   793 ;;                  1    wreg      void 
   794 ;; Registers used:
   795 ;;		wreg, fsr0l, fsr0h, status,2, status,0, btemp+1, pclath, cstack
   796 ;; Tracked objects:
   797 ;;		On entry : B00/0
   798 ;;		On exit  : 0/0
   799 ;;		Unchanged: 0/0
   800 ;; Data sizes:     COMMON   BANK0   BANK1   BANK3   BANK2
   801 ;;      Params:         0       0       0       0       0
   802 ;;      Locals:         0      15       0       0       0
   803 ;;      Temps:          0       3       0       0       0
   804 ;;      Totals:         0      18       0       0       0
   805 ;;Total ram usage:       18 bytes
   806 ;; Hardware stack levels required when called: 2
   807 ;; This function calls:
   808 ;;		_BT_load_string
   809 ;;		_Initialize_Bluetooth
   810 ;;		_LCD_Clear
   811 ;;		_LCD_Command
   812 ;;		_LCD_init
   813 ;;		_LCD_string
   814 ;;		___flge
   815 ;;		_broadcast_BT
   816 ;;		_dist1
   817 ;;		_dist2
   818 ;;		_dist3
   819 ;;		_itoa
   820 ;;		_updateWifiCounter
   821 ;; This function is called by:
   822 ;;		Startup code after reset
   823 ;; This function uses a non-reentrant model
   824 ;;
   825                           
   826  04F1                     _main:	
   827                           ;psect for function _main
   828                           
   829  04F1                     l2234:	
   830                           ;incstack = 0
   831                           ; Regs used in _main: [wreg-fsr0h+status,2+status,0+btemp+1+pclath+cstack]
   832                           
   833                           
   834                           ;mainBT.c: 35:   TRISB = 0;
   835  04F1  1683               	bsf	3,5	;RP0=1, select bank1
   836  04F2  1303               	bcf	3,6	;RP1=0, select bank1
   837  04F3  0186               	clrf	6	;volatile
   838  04F4                     l2236:
   839                           
   840                           ;mainBT.c: 36:   TRISC2 = 0;
   841  04F4  1107               	bcf	7,2	;volatile
   842  04F5                     l2238:
   843                           
   844                           ;mainBT.c: 37:   TRISC3 = 0;
   845  04F5  1187               	bcf	7,3	;volatile
   846  04F6                     l2240:
   847                           
   848                           ;mainBT.c: 38:   TRISD0 = 0;
   849  04F6  1008               	bcf	8,0	;volatile
   850  04F7                     l2242:
   851                           
   852                           ;mainBT.c: 40:   TRISD1 = 0;
   853  04F7  1088               	bcf	8,1	;volatile
   854  04F8                     l2244:
   855                           
   856                           ;mainBT.c: 41:   TRISD2 = 0;
   857  04F8  1108               	bcf	8,2	;volatile
   858  04F9                     l2246:
   859                           
   860                           ;mainBT.c: 42:   TRISD3 = 0;
   861  04F9  1188               	bcf	8,3	;volatile
   862  04FA                     l2248:
   863                           
   864                           ;mainBT.c: 44:   TRISD7 = 0;
   865  04FA  1388               	bcf	8,7	;volatile
   866  04FB                     l2250:
   867                           
   868                           ;mainBT.c: 45:   TRISD6 = 1;
   869  04FB  1708               	bsf	8,6	;volatile
   870  04FC                     l2252:
   871                           
   872                           ;mainBT.c: 46:   TRISD5 = 0;
   873  04FC  1288               	bcf	8,5	;volatile
   874  04FD                     l2254:
   875                           
   876                           ;mainBT.c: 47:   TRISD4 = 1;
   877  04FD  1608               	bsf	8,4	;volatile
   878  04FE                     l2256:
   879                           
   880                           ;mainBT.c: 48:   TRISC5 = 0;
   881  04FE  1287               	bcf	7,5	;volatile
   882  04FF                     l2258:
   883                           
   884                           ;mainBT.c: 49:   TRISC4 = 1;
   885  04FF  1607               	bsf	7,4	;volatile
   886  0500                     l2260:
   887                           
   888                           ;mainBT.c: 51:   T1CKPS0 = 0;
   889  0500  1283               	bcf	3,5	;RP0=0, select bank0
   890  0501  1303               	bcf	3,6	;RP1=0, select bank0
   891  0502  1210               	bcf	16,4	;volatile
   892  0503                     l2262:
   893                           
   894                           ;mainBT.c: 52:   T1CKPS1 = 0;
   895  0503  1290               	bcf	16,5	;volatile
   896  0504                     l2264:
   897                           
   898                           ;mainBT.c: 54:   TMR1CS = 0;
   899  0504  1090               	bcf	16,1	;volatile
   900  0505                     l2266:
   901                           
   902                           ;mainBT.c: 56:   TRISA0 = 0;
   903  0505  1683               	bsf	3,5	;RP0=1, select bank1
   904  0506  1303               	bcf	3,6	;RP1=0, select bank1
   905  0507  1005               	bcf	5,0	;volatile
   906  0508                     l2268:
   907                           
   908                           ;mainBT.c: 57:   TRISA1 = 0;
   909  0508  1085               	bcf	5,1	;volatile
   910  0509                     l2270:
   911                           
   912                           ;mainBT.c: 58:   TRISA2 = 0;
   913  0509  1105               	bcf	5,2	;volatile
   914  050A                     l2272:
   915                           
   916                           ;mainBT.c: 59:   TRISA3 = 0;
   917  050A  1185               	bcf	5,3	;volatile
   918  050B                     l2274:
   919                           
   920                           ;mainBT.c: 60:   TRISA4 = 0;
   921  050B  1205               	bcf	5,4	;volatile
   922  050C                     l2276:
   923                           
   924                           ;mainBT.c: 61:   TRISA5 = 0;
   925  050C  1285               	bcf	5,5	;volatile
   926  050D                     l2278:
   927                           
   928                           ;mainBT.c: 63:   float distance1;;mainBT.c: 64:   float distance2;;mainBT.c: 65:   float
      +                           distance3;;mainBT.c: 68:   char c3;;mainBT.c: 69:   char c2;;mainBT.c: 70:   char c1;;m
      +                          ainBT.c: 72:    LCD_init();
   929  050D  120A  158A  24DC  120A  118A  	fcall	_LCD_init
   930  0512                     l2280:
   931                           
   932                           ;mainBT.c: 73:    LCD_Clear();
   933  0512  120A  158A  2478  120A  118A  	fcall	_LCD_Clear
   934  0517                     l2282:
   935                           
   936                           ;mainBT.c: 74:    LCD_Command(0x80);
   937  0517  3080               	movlw	128
   938  0518  120A  158A  24B4  120A  118A  	fcall	_LCD_Command
   939  051D                     l2284:
   940                           
   941                           ;mainBT.c: 75:    LCD_string("before While");
   942  051D  3071               	movlw	(low ((STR_1-__stringbase)| (0+32768)))& (0+255)
   943  051E  00F3               	movwf	LCD_string@str
   944  051F  3080               	movlw	128
   945  0520  00F4               	movwf	LCD_string@str+1
   946  0521  120A  158A  251B  120A  118A  	fcall	_LCD_string
   947  0526                     l2286:
   948                           
   949                           ;mainBT.c: 76:    _delay((unsigned long)((500)*(4000000/4000.0)));
   950  0526  3003               	movlw	3
   951  0527  1283               	bcf	3,5	;RP0=0, select bank0
   952  0528  1303               	bcf	3,6	;RP1=0, select bank0
   953  0529  00C5               	movwf	??_main+2
   954  052A  308A               	movlw	138
   955  052B  00C4               	movwf	??_main+1
   956  052C  3055               	movlw	85
   957  052D  00C3               	movwf	??_main
   958  052E                     u2347:
   959  052E  0BC3               	decfsz	??_main,f
   960  052F  2D2E               	goto	u2347
   961  0530  0BC4               	decfsz	??_main+1,f
   962  0531  2D2E               	goto	u2347
   963  0532  0BC5               	decfsz	??_main+2,f
   964  0533  2D2E               	goto	u2347
   965  0534                     l2288:
   966                           
   967                           ;mainBT.c: 79:    LCD_Clear();
   968  0534  120A  158A  2478  120A  118A  	fcall	_LCD_Clear
   969  0539                     l2290:
   970                           
   971                           ;mainBT.c: 80:    LCD_Command(0x80);
   972  0539  3080               	movlw	128
   973  053A  120A  158A  24B4  120A  118A  	fcall	_LCD_Command
   974  053F                     l2292:
   975                           
   976                           ;mainBT.c: 81:    LCD_string("5-7 7-9 over 9");
   977  053F  3062               	movlw	(low ((STR_2-__stringbase)| (0+32768)))& (0+255)
   978  0540  00F3               	movwf	LCD_string@str
   979  0541  3080               	movlw	128
   980  0542  00F4               	movwf	LCD_string@str+1
   981  0543  120A  158A  251B  120A  118A  	fcall	_LCD_string
   982  0548                     l2294:
   983                           
   984                           ;mainBT.c: 82:    LCD_Command(0xC0);
   985  0548  30C0               	movlw	192
   986  0549  120A  158A  24B4  120A  118A  	fcall	_LCD_Command
   987  054E                     l2296:
   988                           
   989                           ;mainBT.c: 83:    LCD_string("0");
   990  054E  307E               	movlw	(low ((STR_3-__stringbase)| (0+32768)))& (0+255)
   991  054F  00F3               	movwf	LCD_string@str
   992  0550  3080               	movlw	128
   993  0551  00F4               	movwf	LCD_string@str+1
   994  0552  120A  158A  251B  120A  118A  	fcall	_LCD_string
   995  0557                     l2298:
   996                           
   997                           ;mainBT.c: 84:    LCD_Command(0xC5);
   998  0557  30C5               	movlw	197
   999  0558  120A  158A  24B4  120A  118A  	fcall	_LCD_Command
  1000  055D                     l2300:
  1001                           
  1002                           ;mainBT.c: 85:    LCD_string("0");
  1003  055D  307E               	movlw	(low ((STR_3-__stringbase)| (0+32768)))& (0+255)
  1004  055E  00F3               	movwf	LCD_string@str
  1005  055F  3080               	movlw	128
  1006  0560  00F4               	movwf	LCD_string@str+1
  1007  0561  120A  158A  251B  120A  118A  	fcall	_LCD_string
  1008  0566                     l2302:
  1009                           
  1010                           ;mainBT.c: 86:    LCD_Command(0xCC);
  1011  0566  30CC               	movlw	204
  1012  0567  120A  158A  24B4  120A  118A  	fcall	_LCD_Command
  1013  056C                     l2304:
  1014                           
  1015                           ;mainBT.c: 87:    LCD_string("0");
  1016  056C  307E               	movlw	(low ((STR_3-__stringbase)| (0+32768)))& (0+255)
  1017  056D  00F3               	movwf	LCD_string@str
  1018  056E  3080               	movlw	128
  1019  056F  00F4               	movwf	LCD_string@str+1
  1020  0570  120A  158A  251B  120A  118A  	fcall	_LCD_string
  1021  0575                     l2306:
  1022                           
  1023                           ;mainBT.c: 88:    _delay((unsigned long)((500)*(4000000/4000.0)));
  1024  0575  3003               	movlw	3
  1025  0576  1283               	bcf	3,5	;RP0=0, select bank0
  1026  0577  1303               	bcf	3,6	;RP1=0, select bank0
  1027  0578  00C5               	movwf	??_main+2
  1028  0579  308A               	movlw	138
  1029  057A  00C4               	movwf	??_main+1
  1030  057B  3055               	movlw	85
  1031  057C  00C3               	movwf	??_main
  1032  057D                     u2357:
  1033  057D  0BC3               	decfsz	??_main,f
  1034  057E  2D7D               	goto	u2357
  1035  057F  0BC4               	decfsz	??_main+1,f
  1036  0580  2D7D               	goto	u2357
  1037  0581  0BC5               	decfsz	??_main+2,f
  1038  0582  2D7D               	goto	u2357
  1039  0583                     l2308:
  1040                           
  1041                           ;mainBT.c: 90:    Initialize_Bluetooth();
  1042  0583  120A  158A  24A0  120A  118A  	fcall	_Initialize_Bluetooth
  1043  0588                     l2310:
  1044                           
  1045                           ;mainBT.c: 92:   {;mainBT.c: 93:         RD1=0;
  1046  0588  1283               	bcf	3,5	;RP0=0, select bank0
  1047  0589  1303               	bcf	3,6	;RP1=0, select bank0
  1048  058A  1088               	bcf	8,1	;volatile
  1049  058B                     l2312:
  1050                           
  1051                           ;mainBT.c: 94:         RD2=0;
  1052  058B  1108               	bcf	8,2	;volatile
  1053  058C                     l2314:
  1054                           
  1055                           ;mainBT.c: 95:         RD3=0;
  1056  058C  1188               	bcf	8,3	;volatile
  1057  058D                     l2316:
  1058                           
  1059                           ;mainBT.c: 104:         updateWifiCounter();
  1060  058D  120A  118A  2154  120A  118A  	fcall	_updateWifiCounter
  1061  0592                     l2318:
  1062                           
  1063                           ;mainBT.c: 105:         _delay((unsigned long)((50)*(4000000/4000.0)));
  1064  0592  3041               	movlw	65
  1065  0593  1283               	bcf	3,5	;RP0=0, select bank0
  1066  0594  1303               	bcf	3,6	;RP1=0, select bank0
  1067  0595  00C4               	movwf	??_main+1
  1068  0596  30ED               	movlw	237
  1069  0597  00C3               	movwf	??_main
  1070  0598                     u2367:
  1071  0598  0BC3               	decfsz	??_main,f
  1072  0599  2D98               	goto	u2367
  1073  059A  0BC4               	decfsz	??_main+1,f
  1074  059B  2D98               	goto	u2367
  1075  059C  2D9D               	nop2
  1076  059D                     l2320:
  1077                           
  1078                           ;mainBT.c: 107:       distance3 =dist3();
  1079  059D  120A  158A  25ED  120A  118A  	fcall	_dist3
  1080  05A2  1283               	bcf	3,5	;RP0=0, select bank0
  1081  05A3  1303               	bcf	3,6	;RP1=0, select bank0
  1082  05A4  083D               	movf	?_dist3+3,w
  1083  05A5  00D1               	movwf	main@distance3+3
  1084  05A6  083C               	movf	?_dist3+2,w
  1085  05A7  00D0               	movwf	main@distance3+2
  1086  05A8  083B               	movf	?_dist3+1,w
  1087  05A9  00CF               	movwf	main@distance3+1
  1088  05AA  083A               	movf	?_dist3,w
  1089  05AB  00CE               	movwf	main@distance3
  1090  05AC                     l2322:
  1091                           
  1092                           ;mainBT.c: 108:       if (distance3 >60)
  1093  05AC  3042               	movlw	66
  1094  05AD  00F3               	movwf	___flge@ff1+3
  1095  05AE  3070               	movlw	112
  1096  05AF  00F2               	movwf	___flge@ff1+2
  1097  05B0  3000               	movlw	0
  1098  05B1  00F1               	movwf	___flge@ff1+1
  1099  05B2  3000               	movlw	0
  1100  05B3  00F0               	movwf	___flge@ff1
  1101  05B4  0851               	movf	main@distance3+3,w
  1102  05B5  00F7               	movwf	___flge@ff2+3
  1103  05B6  0850               	movf	main@distance3+2,w
  1104  05B7  00F6               	movwf	___flge@ff2+2
  1105  05B8  084F               	movf	main@distance3+1,w
  1106  05B9  00F5               	movwf	___flge@ff2+1
  1107  05BA  084E               	movf	main@distance3,w
  1108  05BB  00F4               	movwf	___flge@ff2
  1109  05BC  120A  158A  275E  120A  118A  	fcall	___flge
  1110  05C1  1803               	btfsc	3,0
  1111  05C2  2DC4               	goto	u2281
  1112  05C3  2DC5               	goto	u2280
  1113  05C4                     u2281:
  1114  05C4  2DD3               	goto	l2326
  1115  05C5                     u2280:
  1116  05C5                     l2324:
  1117                           
  1118                           ;mainBT.c: 109:       {;mainBT.c: 110:           _delay((unsigned long)((500)*(4000000/4
      +                          000.0)));
  1119  05C5  3003               	movlw	3
  1120  05C6  1283               	bcf	3,5	;RP0=0, select bank0
  1121  05C7  1303               	bcf	3,6	;RP1=0, select bank0
  1122  05C8  00C5               	movwf	??_main+2
  1123  05C9  308A               	movlw	138
  1124  05CA  00C4               	movwf	??_main+1
  1125  05CB  3055               	movlw	85
  1126  05CC  00C3               	movwf	??_main
  1127  05CD                     u2377:
  1128  05CD  0BC3               	decfsz	??_main,f
  1129  05CE  2DCD               	goto	u2377
  1130  05CF  0BC4               	decfsz	??_main+1,f
  1131  05D0  2DCD               	goto	u2377
  1132  05D1  0BC5               	decfsz	??_main+2,f
  1133  05D2  2DCD               	goto	u2377
  1134  05D3                     l2326:
  1135                           
  1136                           ;mainBT.c: 113:       if(distance3 <60){
  1137  05D3  1283               	bcf	3,5	;RP0=0, select bank0
  1138  05D4  1303               	bcf	3,6	;RP1=0, select bank0
  1139  05D5  0851               	movf	main@distance3+3,w
  1140  05D6  00F3               	movwf	___flge@ff1+3
  1141  05D7  0850               	movf	main@distance3+2,w
  1142  05D8  00F2               	movwf	___flge@ff1+2
  1143  05D9  084F               	movf	main@distance3+1,w
  1144  05DA  00F1               	movwf	___flge@ff1+1
  1145  05DB  084E               	movf	main@distance3,w
  1146  05DC  00F0               	movwf	___flge@ff1
  1147  05DD  3042               	movlw	66
  1148  05DE  00F7               	movwf	___flge@ff2+3
  1149  05DF  3070               	movlw	112
  1150  05E0  00F6               	movwf	___flge@ff2+2
  1151  05E1  3000               	movlw	0
  1152  05E2  00F5               	movwf	___flge@ff2+1
  1153  05E3  3000               	movlw	0
  1154  05E4  00F4               	movwf	___flge@ff2
  1155  05E5  120A  158A  275E  120A  118A  	fcall	___flge
  1156  05EA  1803               	btfsc	3,0
  1157  05EB  2DED               	goto	u2291
  1158  05EC  2DEE               	goto	u2290
  1159  05ED                     u2291:
  1160  05ED  2D88               	goto	l2310
  1161  05EE                     u2290:
  1162  05EE                     l2328:
  1163                           
  1164                           ;mainBT.c: 114:          RD1=1;
  1165  05EE  1283               	bcf	3,5	;RP0=0, select bank0
  1166  05EF  1303               	bcf	3,6	;RP1=0, select bank0
  1167  05F0  1488               	bsf	8,1	;volatile
  1168  05F1                     l2330:
  1169                           
  1170                           ;mainBT.c: 115:          distance2=dist2();
  1171  05F1  120A  158A  259C  120A  118A  	fcall	_dist2
  1172  05F6  1283               	bcf	3,5	;RP0=0, select bank0
  1173  05F7  1303               	bcf	3,6	;RP1=0, select bank0
  1174  05F8  083D               	movf	?_dist2+3,w
  1175  05F9  00CD               	movwf	main@distance2+3
  1176  05FA  083C               	movf	?_dist2+2,w
  1177  05FB  00CC               	movwf	main@distance2+2
  1178  05FC  083B               	movf	?_dist2+1,w
  1179  05FD  00CB               	movwf	main@distance2+1
  1180  05FE  083A               	movf	?_dist2,w
  1181  05FF  00CA               	movwf	main@distance2
  1182  0600                     l2332:
  1183                           
  1184                           ;mainBT.c: 116:          if(distance2>60)
  1185  0600  3042               	movlw	66
  1186  0601  00F3               	movwf	___flge@ff1+3
  1187  0602  3070               	movlw	112
  1188  0603  00F2               	movwf	___flge@ff1+2
  1189  0604  3000               	movlw	0
  1190  0605  00F1               	movwf	___flge@ff1+1
  1191  0606  3000               	movlw	0
  1192  0607  00F0               	movwf	___flge@ff1
  1193  0608  084D               	movf	main@distance2+3,w
  1194  0609  00F7               	movwf	___flge@ff2+3
  1195  060A  084C               	movf	main@distance2+2,w
  1196  060B  00F6               	movwf	___flge@ff2+2
  1197  060C  084B               	movf	main@distance2+1,w
  1198  060D  00F5               	movwf	___flge@ff2+1
  1199  060E  084A               	movf	main@distance2,w
  1200  060F  00F4               	movwf	___flge@ff2
  1201  0610  120A  158A  275E  120A  118A  	fcall	___flge
  1202  0615  1803               	btfsc	3,0
  1203  0616  2E18               	goto	u2301
  1204  0617  2E19               	goto	u2300
  1205  0618                     u2301:
  1206  0618  2E8C               	goto	l2360
  1207  0619                     u2300:
  1208  0619                     l2334:
  1209                           
  1210                           ;mainBT.c: 117:          {;mainBT.c: 120:             LCD_Command(0xC0);
  1211  0619  30C0               	movlw	192
  1212  061A  120A  158A  24B4  120A  118A  	fcall	_LCD_Command
  1213  061F                     l2336:
  1214                           
  1215                           ;mainBT.c: 121:             count3++;
  1216  061F  3001               	movlw	1
  1217  0620  1283               	bcf	3,5	;RP0=0, select bank0
  1218  0621  1303               	bcf	3,6	;RP1=0, select bank0
  1219  0622  07D9               	addwf	_count3,f
  1220  0623  1803               	skipnc
  1221  0624  0ADA               	incf	_count3+1,f
  1222  0625  3000               	movlw	0
  1223  0626  07DA               	addwf	_count3+1,f
  1224  0627                     l2338:
  1225                           
  1226                           ;mainBT.c: 122:             c3=itoa(count3);
  1227  0627  085A               	movf	_count3+1,w
  1228  0628  00FA               	movwf	itoa@value+1
  1229  0629  0859               	movf	_count3,w
  1230  062A  00F9               	movwf	itoa@value
  1231  062B  120A  158A  2697  120A  118A  	fcall	_itoa
  1232  0630  1283               	bcf	3,5	;RP0=0, select bank0
  1233  0631  1303               	bcf	3,6	;RP1=0, select bank0
  1234  0632  00C3               	movwf	??_main
  1235  0633  0843               	movf	??_main,w
  1236  0634  00D2               	movwf	main@c3
  1237  0635                     l2340:
  1238                           
  1239                           ;mainBT.c: 123:             LCD_string(c3);
  1240  0635  0852               	movf	main@c3,w
  1241  0636  00C3               	movwf	??_main
  1242  0637  01C4               	clrf	??_main+1
  1243  0638  0843               	movf	??_main,w
  1244  0639  00F3               	movwf	LCD_string@str
  1245  063A  0844               	movf	??_main+1,w
  1246  063B  00F4               	movwf	LCD_string@str+1
  1247  063C  120A  158A  251B  120A  118A  	fcall	_LCD_string
  1248  0641                     l2342:
  1249                           
  1250                           ;mainBT.c: 125:             BT_load_string("People between 150-170:  ");
  1251  0641  301B               	movlw	(low ((STR_6-__stringbase)| (0+32768)))& (0+255)
  1252  0642  00F1               	movwf	BT_load_string@string
  1253  0643  3080               	movlw	128
  1254  0644  00F2               	movwf	BT_load_string@string+1
  1255  0645  120A  158A  24F5  120A  118A  	fcall	_BT_load_string
  1256  064A                     l2344:
  1257                           
  1258                           ;mainBT.c: 126:             broadcast_BT();
  1259  064A  120A  158A  248F  120A  118A  	fcall	_broadcast_BT
  1260  064F                     l2346:
  1261                           
  1262                           ;mainBT.c: 127:             BT_load_string(c3);
  1263  064F  1283               	bcf	3,5	;RP0=0, select bank0
  1264  0650  1303               	bcf	3,6	;RP1=0, select bank0
  1265  0651  0852               	movf	main@c3,w
  1266  0652  00C3               	movwf	??_main
  1267  0653  01C4               	clrf	??_main+1
  1268  0654  0843               	movf	??_main,w
  1269  0655  00F1               	movwf	BT_load_string@string
  1270  0656  0844               	movf	??_main+1,w
  1271  0657  00F2               	movwf	BT_load_string@string+1
  1272  0658  120A  158A  24F5  120A  118A  	fcall	_BT_load_string
  1273  065D                     l2348:
  1274                           
  1275                           ;mainBT.c: 128:             broadcast_BT();
  1276  065D  120A  158A  248F  120A  118A  	fcall	_broadcast_BT
  1277  0662                     l2350:
  1278                           
  1279                           ;mainBT.c: 129:             BT_load_string("\n");
  1280  0662  3019               	movlw	(low (((STR_8+24)-__stringbase)| (0+32768)))& (0+255)
  1281  0663  00F1               	movwf	BT_load_string@string
  1282  0664  3080               	movlw	128
  1283  0665  00F2               	movwf	BT_load_string@string+1
  1284  0666  120A  158A  24F5  120A  118A  	fcall	_BT_load_string
  1285  066B                     l2352:
  1286                           
  1287                           ;mainBT.c: 130:             broadcast_BT();
  1288  066B  120A  158A  248F  120A  118A  	fcall	_broadcast_BT
  1289  0670                     l2354:
  1290                           
  1291                           ;mainBT.c: 131:             BT_load_string("------------------------\n");
  1292  0670  3001               	movlw	(low ((STR_8-__stringbase)| (0+32768)))& (0+255)
  1293  0671  00F1               	movwf	BT_load_string@string
  1294  0672  3080               	movlw	128
  1295  0673  00F2               	movwf	BT_load_string@string+1
  1296  0674  120A  158A  24F5  120A  118A  	fcall	_BT_load_string
  1297  0679                     l2356:
  1298                           
  1299                           ;mainBT.c: 132:             broadcast_BT();
  1300  0679  120A  158A  248F  120A  118A  	fcall	_broadcast_BT
  1301  067E                     l2358:
  1302                           
  1303                           ;mainBT.c: 133:               _delay((unsigned long)((500)*(4000000/4000.0)));
  1304  067E  3003               	movlw	3
  1305  067F  1283               	bcf	3,5	;RP0=0, select bank0
  1306  0680  1303               	bcf	3,6	;RP1=0, select bank0
  1307  0681  00C5               	movwf	??_main+2
  1308  0682  308A               	movlw	138
  1309  0683  00C4               	movwf	??_main+1
  1310  0684  3055               	movlw	85
  1311  0685  00C3               	movwf	??_main
  1312  0686                     u2387:
  1313  0686  0BC3               	decfsz	??_main,f
  1314  0687  2E86               	goto	u2387
  1315  0688  0BC4               	decfsz	??_main+1,f
  1316  0689  2E86               	goto	u2387
  1317  068A  0BC5               	decfsz	??_main+2,f
  1318  068B  2E86               	goto	u2387
  1319  068C                     l2360:
  1320                           
  1321                           ;mainBT.c: 136:          if(distance2<60){
  1322  068C  1283               	bcf	3,5	;RP0=0, select bank0
  1323  068D  1303               	bcf	3,6	;RP1=0, select bank0
  1324  068E  084D               	movf	main@distance2+3,w
  1325  068F  00F3               	movwf	___flge@ff1+3
  1326  0690  084C               	movf	main@distance2+2,w
  1327  0691  00F2               	movwf	___flge@ff1+2
  1328  0692  084B               	movf	main@distance2+1,w
  1329  0693  00F1               	movwf	___flge@ff1+1
  1330  0694  084A               	movf	main@distance2,w
  1331  0695  00F0               	movwf	___flge@ff1
  1332  0696  3042               	movlw	66
  1333  0697  00F7               	movwf	___flge@ff2+3
  1334  0698  3070               	movlw	112
  1335  0699  00F6               	movwf	___flge@ff2+2
  1336  069A  3000               	movlw	0
  1337  069B  00F5               	movwf	___flge@ff2+1
  1338  069C  3000               	movlw	0
  1339  069D  00F4               	movwf	___flge@ff2
  1340  069E  120A  158A  275E  120A  118A  	fcall	___flge
  1341  06A3  1803               	btfsc	3,0
  1342  06A4  2EA6               	goto	u2311
  1343  06A5  2EA7               	goto	u2310
  1344  06A6                     u2311:
  1345  06A6  2D88               	goto	l2310
  1346  06A7                     u2310:
  1347  06A7                     l2362:
  1348                           
  1349                           ;mainBT.c: 137:              RD2=1;
  1350  06A7  1283               	bcf	3,5	;RP0=0, select bank0
  1351  06A8  1303               	bcf	3,6	;RP1=0, select bank0
  1352  06A9  1508               	bsf	8,2	;volatile
  1353  06AA                     l2364:
  1354                           
  1355                           ;mainBT.c: 138:              distance1= dist1();
  1356  06AA  120A  158A  254B  120A  118A  	fcall	_dist1
  1357  06AF  1283               	bcf	3,5	;RP0=0, select bank0
  1358  06B0  1303               	bcf	3,6	;RP1=0, select bank0
  1359  06B1  083D               	movf	?_dist1+3,w
  1360  06B2  00C9               	movwf	main@distance1+3
  1361  06B3  083C               	movf	?_dist1+2,w
  1362  06B4  00C8               	movwf	main@distance1+2
  1363  06B5  083B               	movf	?_dist1+1,w
  1364  06B6  00C7               	movwf	main@distance1+1
  1365  06B7  083A               	movf	?_dist1,w
  1366  06B8  00C6               	movwf	main@distance1
  1367  06B9                     l2366:
  1368                           
  1369                           ;mainBT.c: 139:              if(distance1>60){
  1370  06B9  3042               	movlw	66
  1371  06BA  00F3               	movwf	___flge@ff1+3
  1372  06BB  3070               	movlw	112
  1373  06BC  00F2               	movwf	___flge@ff1+2
  1374  06BD  3000               	movlw	0
  1375  06BE  00F1               	movwf	___flge@ff1+1
  1376  06BF  3000               	movlw	0
  1377  06C0  00F0               	movwf	___flge@ff1
  1378  06C1  0849               	movf	main@distance1+3,w
  1379  06C2  00F7               	movwf	___flge@ff2+3
  1380  06C3  0848               	movf	main@distance1+2,w
  1381  06C4  00F6               	movwf	___flge@ff2+2
  1382  06C5  0847               	movf	main@distance1+1,w
  1383  06C6  00F5               	movwf	___flge@ff2+1
  1384  06C7  0846               	movf	main@distance1,w
  1385  06C8  00F4               	movwf	___flge@ff2
  1386  06C9  120A  158A  275E  120A  118A  	fcall	___flge
  1387  06CE  1803               	btfsc	3,0
  1388  06CF  2ED1               	goto	u2321
  1389  06D0  2ED2               	goto	u2320
  1390  06D1                     u2321:
  1391  06D1  2F45               	goto	l2394
  1392  06D2                     u2320:
  1393  06D2                     l2368:
  1394                           
  1395                           ;mainBT.c: 142:              LCD_Command(0xC5);
  1396  06D2  30C5               	movlw	197
  1397  06D3  120A  158A  24B4  120A  118A  	fcall	_LCD_Command
  1398  06D8                     l2370:
  1399                           
  1400                           ;mainBT.c: 143:              count2++;
  1401  06D8  3001               	movlw	1
  1402  06D9  1283               	bcf	3,5	;RP0=0, select bank0
  1403  06DA  1303               	bcf	3,6	;RP1=0, select bank0
  1404  06DB  07D7               	addwf	_count2,f
  1405  06DC  1803               	skipnc
  1406  06DD  0AD8               	incf	_count2+1,f
  1407  06DE  3000               	movlw	0
  1408  06DF  07D8               	addwf	_count2+1,f
  1409  06E0                     l2372:
  1410                           
  1411                           ;mainBT.c: 144:              c2=itoa(count2);
  1412  06E0  0858               	movf	_count2+1,w
  1413  06E1  00FA               	movwf	itoa@value+1
  1414  06E2  0857               	movf	_count2,w
  1415  06E3  00F9               	movwf	itoa@value
  1416  06E4  120A  158A  2697  120A  118A  	fcall	_itoa
  1417  06E9  1283               	bcf	3,5	;RP0=0, select bank0
  1418  06EA  1303               	bcf	3,6	;RP1=0, select bank0
  1419  06EB  00C3               	movwf	??_main
  1420  06EC  0843               	movf	??_main,w
  1421  06ED  00D3               	movwf	main@c2
  1422  06EE                     l2374:
  1423                           
  1424                           ;mainBT.c: 145:              LCD_string(c2);
  1425  06EE  0853               	movf	main@c2,w
  1426  06EF  00C3               	movwf	??_main
  1427  06F0  01C4               	clrf	??_main+1
  1428  06F1  0843               	movf	??_main,w
  1429  06F2  00F3               	movwf	LCD_string@str
  1430  06F3  0844               	movf	??_main+1,w
  1431  06F4  00F4               	movwf	LCD_string@str+1
  1432  06F5  120A  158A  251B  120A  118A  	fcall	_LCD_string
  1433  06FA                     l2376:
  1434                           
  1435                           ;mainBT.c: 146:              BT_load_string("People between 170-190:  ");
  1436  06FA  3035               	movlw	(low ((STR_9-__stringbase)| (0+32768)))& (0+255)
  1437  06FB  00F1               	movwf	BT_load_string@string
  1438  06FC  3080               	movlw	128
  1439  06FD  00F2               	movwf	BT_load_string@string+1
  1440  06FE  120A  158A  24F5  120A  118A  	fcall	_BT_load_string
  1441  0703                     l2378:
  1442                           
  1443                           ;mainBT.c: 147:              broadcast_BT();
  1444  0703  120A  158A  248F  120A  118A  	fcall	_broadcast_BT
  1445  0708                     l2380:
  1446                           
  1447                           ;mainBT.c: 148:                 BT_load_string(c2);
  1448  0708  1283               	bcf	3,5	;RP0=0, select bank0
  1449  0709  1303               	bcf	3,6	;RP1=0, select bank0
  1450  070A  0853               	movf	main@c2,w
  1451  070B  00C3               	movwf	??_main
  1452  070C  01C4               	clrf	??_main+1
  1453  070D  0843               	movf	??_main,w
  1454  070E  00F1               	movwf	BT_load_string@string
  1455  070F  0844               	movf	??_main+1,w
  1456  0710  00F2               	movwf	BT_load_string@string+1
  1457  0711  120A  158A  24F5  120A  118A  	fcall	_BT_load_string
  1458  0716                     l2382:
  1459                           
  1460                           ;mainBT.c: 149:                 broadcast_BT();
  1461  0716  120A  158A  248F  120A  118A  	fcall	_broadcast_BT
  1462  071B                     l2384:
  1463                           
  1464                           ;mainBT.c: 150:                 BT_load_string("\n");
  1465  071B  3019               	movlw	(low (((STR_8+24)-__stringbase)| (0+32768)))& (0+255)
  1466  071C  00F1               	movwf	BT_load_string@string
  1467  071D  3080               	movlw	128
  1468  071E  00F2               	movwf	BT_load_string@string+1
  1469  071F  120A  158A  24F5  120A  118A  	fcall	_BT_load_string
  1470  0724                     l2386:
  1471                           
  1472                           ;mainBT.c: 151:                 broadcast_BT();
  1473  0724  120A  158A  248F  120A  118A  	fcall	_broadcast_BT
  1474  0729                     l2388:
  1475                           
  1476                           ;mainBT.c: 152:                 BT_load_string("------------------------\n");
  1477  0729  3001               	movlw	(low ((STR_8-__stringbase)| (0+32768)))& (0+255)
  1478  072A  00F1               	movwf	BT_load_string@string
  1479  072B  3080               	movlw	128
  1480  072C  00F2               	movwf	BT_load_string@string+1
  1481  072D  120A  158A  24F5  120A  118A  	fcall	_BT_load_string
  1482  0732                     l2390:
  1483                           
  1484                           ;mainBT.c: 153:                 broadcast_BT();
  1485  0732  120A  158A  248F  120A  118A  	fcall	_broadcast_BT
  1486  0737                     l2392:
  1487                           
  1488                           ;mainBT.c: 154:               _delay((unsigned long)((500)*(4000000/4000.0)));
  1489  0737  3003               	movlw	3
  1490  0738  1283               	bcf	3,5	;RP0=0, select bank0
  1491  0739  1303               	bcf	3,6	;RP1=0, select bank0
  1492  073A  00C5               	movwf	??_main+2
  1493  073B  308A               	movlw	138
  1494  073C  00C4               	movwf	??_main+1
  1495  073D  3055               	movlw	85
  1496  073E  00C3               	movwf	??_main
  1497  073F                     u2397:
  1498  073F  0BC3               	decfsz	??_main,f
  1499  0740  2F3F               	goto	u2397
  1500  0741  0BC4               	decfsz	??_main+1,f
  1501  0742  2F3F               	goto	u2397
  1502  0743  0BC5               	decfsz	??_main+2,f
  1503  0744  2F3F               	goto	u2397
  1504  0745                     l2394:
  1505                           
  1506                           ;mainBT.c: 157:              if(distance1<60){
  1507  0745  1283               	bcf	3,5	;RP0=0, select bank0
  1508  0746  1303               	bcf	3,6	;RP1=0, select bank0
  1509  0747  0849               	movf	main@distance1+3,w
  1510  0748  00F3               	movwf	___flge@ff1+3
  1511  0749  0848               	movf	main@distance1+2,w
  1512  074A  00F2               	movwf	___flge@ff1+2
  1513  074B  0847               	movf	main@distance1+1,w
  1514  074C  00F1               	movwf	___flge@ff1+1
  1515  074D  0846               	movf	main@distance1,w
  1516  074E  00F0               	movwf	___flge@ff1
  1517  074F  3042               	movlw	66
  1518  0750  00F7               	movwf	___flge@ff2+3
  1519  0751  3070               	movlw	112
  1520  0752  00F6               	movwf	___flge@ff2+2
  1521  0753  3000               	movlw	0
  1522  0754  00F5               	movwf	___flge@ff2+1
  1523  0755  3000               	movlw	0
  1524  0756  00F4               	movwf	___flge@ff2
  1525  0757  120A  158A  275E  120A  118A  	fcall	___flge
  1526  075C  1803               	btfsc	3,0
  1527  075D  2F5F               	goto	u2331
  1528  075E  2F60               	goto	u2330
  1529  075F                     u2331:
  1530  075F  2FD7               	goto	l223
  1531  0760                     u2330:
  1532  0760                     l2396:
  1533                           
  1534                           ;mainBT.c: 159:                  RD3=1;
  1535  0760  1283               	bcf	3,5	;RP0=0, select bank0
  1536  0761  1303               	bcf	3,6	;RP1=0, select bank0
  1537  0762  1588               	bsf	8,3	;volatile
  1538  0763                     l2398:
  1539                           
  1540                           ;mainBT.c: 160:                  LCD_Command(0xCC);
  1541  0763  30CC               	movlw	204
  1542  0764  120A  158A  24B4  120A  118A  	fcall	_LCD_Command
  1543  0769                     l2400:
  1544                           
  1545                           ;mainBT.c: 161:                  count1++;
  1546  0769  3001               	movlw	1
  1547  076A  1283               	bcf	3,5	;RP0=0, select bank0
  1548  076B  1303               	bcf	3,6	;RP1=0, select bank0
  1549  076C  07D5               	addwf	_count1,f
  1550  076D  1803               	skipnc
  1551  076E  0AD6               	incf	_count1+1,f
  1552  076F  3000               	movlw	0
  1553  0770  07D6               	addwf	_count1+1,f
  1554  0771                     l2402:
  1555                           
  1556                           ;mainBT.c: 162:                  c1=itoa(count1);
  1557  0771  0856               	movf	_count1+1,w
  1558  0772  00FA               	movwf	itoa@value+1
  1559  0773  0855               	movf	_count1,w
  1560  0774  00F9               	movwf	itoa@value
  1561  0775  120A  158A  2697  120A  118A  	fcall	_itoa
  1562  077A  1283               	bcf	3,5	;RP0=0, select bank0
  1563  077B  1303               	bcf	3,6	;RP1=0, select bank0
  1564  077C  00C3               	movwf	??_main
  1565  077D  0843               	movf	??_main,w
  1566  077E  00D4               	movwf	main@c1
  1567  077F                     l2404:
  1568                           
  1569                           ;mainBT.c: 163:                  LCD_string(c1);
  1570  077F  0854               	movf	main@c1,w
  1571  0780  00C3               	movwf	??_main
  1572  0781  01C4               	clrf	??_main+1
  1573  0782  0843               	movf	??_main,w
  1574  0783  00F3               	movwf	LCD_string@str
  1575  0784  0844               	movf	??_main+1,w
  1576  0785  00F4               	movwf	LCD_string@str+1
  1577  0786  120A  158A  251B  120A  118A  	fcall	_LCD_string
  1578  078B                     l2406:
  1579                           
  1580                           ;mainBT.c: 164:                  BT_load_string("People over 190:  ");
  1581  078B  304F               	movlw	(low ((STR_12-__stringbase)| (0+32768)))& (0+255)
  1582  078C  00F1               	movwf	BT_load_string@string
  1583  078D  3080               	movlw	128
  1584  078E  00F2               	movwf	BT_load_string@string+1
  1585  078F  120A  158A  24F5  120A  118A  	fcall	_BT_load_string
  1586  0794                     l2408:
  1587                           
  1588                           ;mainBT.c: 165:                  broadcast_BT();
  1589  0794  120A  158A  248F  120A  118A  	fcall	_broadcast_BT
  1590  0799                     l2410:
  1591                           
  1592                           ;mainBT.c: 166:                  BT_load_string(c1);
  1593  0799  1283               	bcf	3,5	;RP0=0, select bank0
  1594  079A  1303               	bcf	3,6	;RP1=0, select bank0
  1595  079B  0854               	movf	main@c1,w
  1596  079C  00C3               	movwf	??_main
  1597  079D  01C4               	clrf	??_main+1
  1598  079E  0843               	movf	??_main,w
  1599  079F  00F1               	movwf	BT_load_string@string
  1600  07A0  0844               	movf	??_main+1,w
  1601  07A1  00F2               	movwf	BT_load_string@string+1
  1602  07A2  120A  158A  24F5  120A  118A  	fcall	_BT_load_string
  1603  07A7                     l2412:
  1604                           
  1605                           ;mainBT.c: 167:                  broadcast_BT();
  1606  07A7  120A  158A  248F  120A  118A  	fcall	_broadcast_BT
  1607  07AC                     l2414:
  1608                           
  1609                           ;mainBT.c: 168:                  BT_load_string("\n");
  1610  07AC  3019               	movlw	(low (((STR_8+24)-__stringbase)| (0+32768)))& (0+255)
  1611  07AD  00F1               	movwf	BT_load_string@string
  1612  07AE  3080               	movlw	128
  1613  07AF  00F2               	movwf	BT_load_string@string+1
  1614  07B0  120A  158A  24F5  120A  118A  	fcall	_BT_load_string
  1615  07B5                     l2416:
  1616                           
  1617                           ;mainBT.c: 169:                  broadcast_BT();
  1618  07B5  120A  158A  248F  120A  118A  	fcall	_broadcast_BT
  1619  07BA                     l2418:
  1620                           
  1621                           ;mainBT.c: 170:                  BT_load_string("------------------------\n");
  1622  07BA  3001               	movlw	(low ((STR_8-__stringbase)| (0+32768)))& (0+255)
  1623  07BB  00F1               	movwf	BT_load_string@string
  1624  07BC  3080               	movlw	128
  1625  07BD  00F2               	movwf	BT_load_string@string+1
  1626  07BE  120A  158A  24F5  120A  118A  	fcall	_BT_load_string
  1627  07C3                     l2420:
  1628                           
  1629                           ;mainBT.c: 171:                  broadcast_BT();
  1630  07C3  120A  158A  248F  120A  118A  	fcall	_broadcast_BT
  1631  07C8                     l2422:
  1632                           
  1633                           ;mainBT.c: 172:                  _delay((unsigned long)((500)*(4000000/4000.0)));
  1634  07C8  3003               	movlw	3
  1635  07C9  1283               	bcf	3,5	;RP0=0, select bank0
  1636  07CA  1303               	bcf	3,6	;RP1=0, select bank0
  1637  07CB  00C5               	movwf	??_main+2
  1638  07CC  308A               	movlw	138
  1639  07CD  00C4               	movwf	??_main+1
  1640  07CE  3055               	movlw	85
  1641  07CF  00C3               	movwf	??_main
  1642  07D0                     u2407:
  1643  07D0  0BC3               	decfsz	??_main,f
  1644  07D1  2FD0               	goto	u2407
  1645  07D2  0BC4               	decfsz	??_main+1,f
  1646  07D3  2FD0               	goto	u2407
  1647  07D4  0BC5               	decfsz	??_main+2,f
  1648  07D5  2FD0               	goto	u2407
  1649  07D6  2D88               	goto	l2310
  1650  07D7                     l223:	
  1651                           ;mainBT.c: 178:       }
  1652                           
  1653  07D7  2D88               	goto	l2310
  1654  07D8  120A  118A  2800   	ljmp	start
  1655  07DB                     __end_of_main:
  1656                           
  1657                           	psect	text1
  1658  0154                     __ptext1:	
  1659 ;; *************** function _updateWifiCounter *****************
  1660 ;; Defined at:
  1661 ;;		line 185 in file "mainBT.c"
  1662 ;; Parameters:    Size  Location     Type
  1663 ;;		None
  1664 ;; Auto vars:     Size  Location     Type
  1665 ;;  temp            2    4[BANK0 ] int 
  1666 ;;  temp            2    2[BANK0 ] int 
  1667 ;;  temp            2    0[BANK0 ] int 
  1668 ;; Return value:  Size  Location     Type
  1669 ;;                  1    wreg      void 
  1670 ;; Registers used:
  1671 ;;		wreg, status,2, status,0, pclath, cstack
  1672 ;; Tracked objects:
  1673 ;;		On entry : 0/0
  1674 ;;		On exit  : 0/0
  1675 ;;		Unchanged: 0/0
  1676 ;; Data sizes:     COMMON   BANK0   BANK1   BANK3   BANK2
  1677 ;;      Params:         0       0       0       0       0
  1678 ;;      Locals:         0       6       0       0       0
  1679 ;;      Temps:          0       0       0       0       0
  1680 ;;      Totals:         0       6       0       0       0
  1681 ;;Total ram usage:        6 bytes
  1682 ;; Hardware stack levels used: 1
  1683 ;; Hardware stack levels required when called: 1
  1684 ;; This function calls:
  1685 ;;		___awdiv
  1686 ;; This function is called by:
  1687 ;;		_main
  1688 ;; This function uses a non-reentrant model
  1689 ;;
  1690                           
  1691  0154                     _updateWifiCounter:	
  1692                           ;psect for function _updateWifiCounter
  1693                           
  1694  0154                     l2060:	
  1695                           ;incstack = 0
  1696                           ; Regs used in _updateWifiCounter: [wreg+status,2+status,0+pclath+cstack]
  1697                           
  1698                           
  1699                           ;mainBT.c: 188:     if(wifiCounter == 1){
  1700  0154  1283               	bcf	3,5	;RP0=0, select bank0
  1701  0155  1303               	bcf	3,6	;RP1=0, select bank0
  1702  0156  0367               	decf	_wifiCounter,w
  1703  0157  0468               	iorwf	_wifiCounter+1,w
  1704  0158  1D03               	btfss	3,2
  1705  0159  295B               	goto	u1941
  1706  015A  295C               	goto	u1940
  1707  015B                     u1941:
  1708  015B  29EB               	goto	l2112
  1709  015C                     u1940:
  1710  015C                     l2062:
  1711                           
  1712                           ;mainBT.c: 190:         RA0 = 0;
  1713  015C  1005               	bcf	5,0	;volatile
  1714                           
  1715                           ;mainBT.c: 191:         RA1 = 0;
  1716  015D  1085               	bcf	5,1	;volatile
  1717  015E                     l2064:
  1718                           
  1719                           ;mainBT.c: 194:         int temp;;mainBT.c: 195:         temp = count3%2;
  1720  015E  3001               	movlw	1
  1721  015F  0559               	andwf	_count3,w
  1722  0160  00A0               	movwf	updateWifiCounter@temp
  1723  0161  3000               	movlw	0
  1724  0162  055A               	andwf	_count3+1,w
  1725  0163  00A1               	movwf	updateWifiCounter@temp+1
  1726  0164                     l2066:
  1727                           
  1728                           ;mainBT.c: 196:         if (temp ==1){RA2 = 1;}
  1729  0164  0320               	decf	updateWifiCounter@temp,w
  1730  0165  0421               	iorwf	updateWifiCounter@temp+1,w
  1731  0166  1D03               	btfss	3,2
  1732  0167  2969               	goto	u1951
  1733  0168  296A               	goto	u1950
  1734  0169                     u1951:
  1735  0169  296B               	goto	l2070
  1736  016A                     u1950:
  1737  016A                     l2068:
  1738  016A  1505               	bsf	5,2	;volatile
  1739  016B                     l2070:
  1740                           
  1741                           ;mainBT.c: 197:         if (temp ==0){RA2 = 0;}
  1742  016B  0820               	movf	updateWifiCounter@temp,w
  1743  016C  0421               	iorwf	updateWifiCounter@temp+1,w
  1744  016D  1D03               	btfss	3,2
  1745  016E  2970               	goto	u1961
  1746  016F  2971               	goto	u1960
  1747  0170                     u1961:
  1748  0170  2972               	goto	l2074
  1749  0171                     u1960:
  1750  0171                     l2072:
  1751  0171  1105               	bcf	5,2	;volatile
  1752  0172                     l2074:
  1753                           
  1754                           ;mainBT.c: 198:         count3 = count3/2;
  1755  0172  3002               	movlw	2
  1756  0173  00F0               	movwf	___awdiv@divisor
  1757  0174  3000               	movlw	0
  1758  0175  00F1               	movwf	___awdiv@divisor+1
  1759  0176  085A               	movf	_count3+1,w
  1760  0177  00F3               	movwf	___awdiv@dividend+1
  1761  0178  0859               	movf	_count3,w
  1762  0179  00F2               	movwf	___awdiv@dividend
  1763  017A  120A  158A  26F7  120A  118A  	fcall	___awdiv
  1764  017F  0871               	movf	?___awdiv+1,w
  1765  0180  1283               	bcf	3,5	;RP0=0, select bank0
  1766  0181  1303               	bcf	3,6	;RP1=0, select bank0
  1767  0182  00DA               	movwf	_count3+1
  1768  0183  0870               	movf	?___awdiv,w
  1769  0184  00D9               	movwf	_count3
  1770  0185                     l2076:
  1771                           
  1772                           ;mainBT.c: 199:         temp = count3%2;
  1773  0185  3001               	movlw	1
  1774  0186  0559               	andwf	_count3,w
  1775  0187  00A0               	movwf	updateWifiCounter@temp
  1776  0188  3000               	movlw	0
  1777  0189  055A               	andwf	_count3+1,w
  1778  018A  00A1               	movwf	updateWifiCounter@temp+1
  1779  018B                     l2078:
  1780                           
  1781                           ;mainBT.c: 200:         if (temp ==1){RA3 = 1;}
  1782  018B  0320               	decf	updateWifiCounter@temp,w
  1783  018C  0421               	iorwf	updateWifiCounter@temp+1,w
  1784  018D  1D03               	btfss	3,2
  1785  018E  2990               	goto	u1971
  1786  018F  2991               	goto	u1970
  1787  0190                     u1971:
  1788  0190  2992               	goto	l2082
  1789  0191                     u1970:
  1790  0191                     l2080:
  1791  0191  1585               	bsf	5,3	;volatile
  1792  0192                     l2082:
  1793                           
  1794                           ;mainBT.c: 201:         if (temp ==0){RA3 = 0;}
  1795  0192  0820               	movf	updateWifiCounter@temp,w
  1796  0193  0421               	iorwf	updateWifiCounter@temp+1,w
  1797  0194  1D03               	btfss	3,2
  1798  0195  2997               	goto	u1981
  1799  0196  2998               	goto	u1980
  1800  0197                     u1981:
  1801  0197  2999               	goto	l2086
  1802  0198                     u1980:
  1803  0198                     l2084:
  1804  0198  1185               	bcf	5,3	;volatile
  1805  0199                     l2086:
  1806                           
  1807                           ;mainBT.c: 202:         count3 = count3/2;
  1808  0199  3002               	movlw	2
  1809  019A  00F0               	movwf	___awdiv@divisor
  1810  019B  3000               	movlw	0
  1811  019C  00F1               	movwf	___awdiv@divisor+1
  1812  019D  085A               	movf	_count3+1,w
  1813  019E  00F3               	movwf	___awdiv@dividend+1
  1814  019F  0859               	movf	_count3,w
  1815  01A0  00F2               	movwf	___awdiv@dividend
  1816  01A1  120A  158A  26F7  120A  118A  	fcall	___awdiv
  1817  01A6  0871               	movf	?___awdiv+1,w
  1818  01A7  1283               	bcf	3,5	;RP0=0, select bank0
  1819  01A8  1303               	bcf	3,6	;RP1=0, select bank0
  1820  01A9  00DA               	movwf	_count3+1
  1821  01AA  0870               	movf	?___awdiv,w
  1822  01AB  00D9               	movwf	_count3
  1823  01AC                     l2088:
  1824                           
  1825                           ;mainBT.c: 203:         temp = count3%2;
  1826  01AC  3001               	movlw	1
  1827  01AD  0559               	andwf	_count3,w
  1828  01AE  00A0               	movwf	updateWifiCounter@temp
  1829  01AF  3000               	movlw	0
  1830  01B0  055A               	andwf	_count3+1,w
  1831  01B1  00A1               	movwf	updateWifiCounter@temp+1
  1832  01B2                     l2090:
  1833                           
  1834                           ;mainBT.c: 204:         if (temp ==1){RA4 = 1;}
  1835  01B2  0320               	decf	updateWifiCounter@temp,w
  1836  01B3  0421               	iorwf	updateWifiCounter@temp+1,w
  1837  01B4  1D03               	btfss	3,2
  1838  01B5  29B7               	goto	u1991
  1839  01B6  29B8               	goto	u1990
  1840  01B7                     u1991:
  1841  01B7  29B9               	goto	l2094
  1842  01B8                     u1990:
  1843  01B8                     l2092:
  1844  01B8  1605               	bsf	5,4	;volatile
  1845  01B9                     l2094:
  1846                           
  1847                           ;mainBT.c: 205:         if (temp ==0){RA4 = 0;}
  1848  01B9  0820               	movf	updateWifiCounter@temp,w
  1849  01BA  0421               	iorwf	updateWifiCounter@temp+1,w
  1850  01BB  1D03               	btfss	3,2
  1851  01BC  29BE               	goto	u2001
  1852  01BD  29BF               	goto	u2000
  1853  01BE                     u2001:
  1854  01BE  29C0               	goto	l2098
  1855  01BF                     u2000:
  1856  01BF                     l2096:
  1857  01BF  1205               	bcf	5,4	;volatile
  1858  01C0                     l2098:
  1859                           
  1860                           ;mainBT.c: 206:         count3 = count3/2;
  1861  01C0  3002               	movlw	2
  1862  01C1  00F0               	movwf	___awdiv@divisor
  1863  01C2  3000               	movlw	0
  1864  01C3  00F1               	movwf	___awdiv@divisor+1
  1865  01C4  085A               	movf	_count3+1,w
  1866  01C5  00F3               	movwf	___awdiv@dividend+1
  1867  01C6  0859               	movf	_count3,w
  1868  01C7  00F2               	movwf	___awdiv@dividend
  1869  01C8  120A  158A  26F7  120A  118A  	fcall	___awdiv
  1870  01CD  0871               	movf	?___awdiv+1,w
  1871  01CE  1283               	bcf	3,5	;RP0=0, select bank0
  1872  01CF  1303               	bcf	3,6	;RP1=0, select bank0
  1873  01D0  00DA               	movwf	_count3+1
  1874  01D1  0870               	movf	?___awdiv,w
  1875  01D2  00D9               	movwf	_count3
  1876  01D3                     l2100:
  1877                           
  1878                           ;mainBT.c: 207:         temp = count3%2;
  1879  01D3  3001               	movlw	1
  1880  01D4  0559               	andwf	_count3,w
  1881  01D5  00A0               	movwf	updateWifiCounter@temp
  1882  01D6  3000               	movlw	0
  1883  01D7  055A               	andwf	_count3+1,w
  1884  01D8  00A1               	movwf	updateWifiCounter@temp+1
  1885  01D9                     l2102:
  1886                           
  1887                           ;mainBT.c: 208:         if (temp ==1){RA5 = 1;}
  1888  01D9  0320               	decf	updateWifiCounter@temp,w
  1889  01DA  0421               	iorwf	updateWifiCounter@temp+1,w
  1890  01DB  1D03               	btfss	3,2
  1891  01DC  29DE               	goto	u2011
  1892  01DD  29DF               	goto	u2010
  1893  01DE                     u2011:
  1894  01DE  29E0               	goto	l2106
  1895  01DF                     u2010:
  1896  01DF                     l2104:
  1897  01DF  1685               	bsf	5,5	;volatile
  1898  01E0                     l2106:
  1899                           
  1900                           ;mainBT.c: 209:         if (temp ==0){RA5 = 0;}
  1901  01E0  0820               	movf	updateWifiCounter@temp,w
  1902  01E1  0421               	iorwf	updateWifiCounter@temp+1,w
  1903  01E2  1D03               	btfss	3,2
  1904  01E3  29E5               	goto	u2021
  1905  01E4  29E6               	goto	u2020
  1906  01E5                     u2021:
  1907  01E5  29E7               	goto	l2110
  1908  01E6                     u2020:
  1909  01E6                     l2108:
  1910  01E6  1285               	bcf	5,5	;volatile
  1911  01E7                     l2110:
  1912                           
  1913                           ;mainBT.c: 211:         wifiCounter = 2;
  1914  01E7  3002               	movlw	2
  1915  01E8  00E7               	movwf	_wifiCounter
  1916  01E9  3000               	movlw	0
  1917  01EA  00E8               	movwf	_wifiCounter+1
  1918  01EB                     l2112:
  1919                           
  1920                           ;mainBT.c: 214:     if(wifiCounter == 2){
  1921  01EB  3002               	movlw	2
  1922  01EC  0667               	xorwf	_wifiCounter,w
  1923  01ED  0468               	iorwf	_wifiCounter+1,w
  1924  01EE  1D03               	btfss	3,2
  1925  01EF  29F1               	goto	u2031
  1926  01F0  29F2               	goto	u2030
  1927  01F1                     u2031:
  1928  01F1  2A7D               	goto	l2162
  1929  01F2                     u2030:
  1930  01F2                     l2114:
  1931                           
  1932                           ;mainBT.c: 216:         RA0 = 1;
  1933  01F2  1405               	bsf	5,0	;volatile
  1934                           
  1935                           ;mainBT.c: 217:         RA1 = 0;
  1936  01F3  1085               	bcf	5,1	;volatile
  1937  01F4                     l2116:
  1938                           
  1939                           ;mainBT.c: 220:         int temp;;mainBT.c: 221:         temp = count2%2;
  1940  01F4  3001               	movlw	1
  1941  01F5  0557               	andwf	_count2,w
  1942  01F6  00A2               	movwf	updateWifiCounter@temp_166
  1943  01F7  3000               	movlw	0
  1944  01F8  0558               	andwf	_count2+1,w
  1945  01F9  00A3               	movwf	updateWifiCounter@temp_166+1
  1946  01FA                     l2118:
  1947                           
  1948                           ;mainBT.c: 222:         if (temp ==1){RA2 = 1;}
  1949  01FA  0322               	decf	updateWifiCounter@temp_166,w
  1950  01FB  0423               	iorwf	updateWifiCounter@temp_166+1,w
  1951  01FC  1D03               	btfss	3,2
  1952  01FD  29FF               	goto	u2041
  1953  01FE  2A00               	goto	u2040
  1954  01FF                     u2041:
  1955  01FF  2A01               	goto	l2122
  1956  0200                     u2040:
  1957  0200                     l2120:
  1958  0200  1505               	bsf	5,2	;volatile
  1959  0201                     l2122:
  1960                           
  1961                           ;mainBT.c: 223:         if (temp ==0){RA2 = 0;}
  1962  0201  0822               	movf	updateWifiCounter@temp_166,w
  1963  0202  0423               	iorwf	updateWifiCounter@temp_166+1,w
  1964  0203  1D03               	btfss	3,2
  1965  0204  2A06               	goto	u2051
  1966  0205  2A07               	goto	u2050
  1967  0206                     u2051:
  1968  0206  2A08               	goto	l2126
  1969  0207                     u2050:
  1970  0207                     l2124:
  1971  0207  1105               	bcf	5,2	;volatile
  1972  0208                     l2126:
  1973                           
  1974                           ;mainBT.c: 224:         count2 = count2/2;
  1975  0208  3002               	movlw	2
  1976  0209  00F0               	movwf	___awdiv@divisor
  1977  020A  3000               	movlw	0
  1978  020B  00F1               	movwf	___awdiv@divisor+1
  1979  020C  0858               	movf	_count2+1,w
  1980  020D  00F3               	movwf	___awdiv@dividend+1
  1981  020E  0857               	movf	_count2,w
  1982  020F  00F2               	movwf	___awdiv@dividend
  1983  0210  120A  158A  26F7  120A  118A  	fcall	___awdiv
  1984  0215  0871               	movf	?___awdiv+1,w
  1985  0216  1283               	bcf	3,5	;RP0=0, select bank0
  1986  0217  1303               	bcf	3,6	;RP1=0, select bank0
  1987  0218  00D8               	movwf	_count2+1
  1988  0219  0870               	movf	?___awdiv,w
  1989  021A  00D7               	movwf	_count2
  1990  021B                     l2128:
  1991                           
  1992                           ;mainBT.c: 225:         temp = count2%2;
  1993  021B  3001               	movlw	1
  1994  021C  0557               	andwf	_count2,w
  1995  021D  00A2               	movwf	updateWifiCounter@temp_166
  1996  021E  3000               	movlw	0
  1997  021F  0558               	andwf	_count2+1,w
  1998  0220  00A3               	movwf	updateWifiCounter@temp_166+1
  1999  0221                     l2130:
  2000                           
  2001                           ;mainBT.c: 226:         if (temp ==1){RA3 = 1;}
  2002  0221  0322               	decf	updateWifiCounter@temp_166,w
  2003  0222  0423               	iorwf	updateWifiCounter@temp_166+1,w
  2004  0223  1D03               	btfss	3,2
  2005  0224  2A26               	goto	u2061
  2006  0225  2A27               	goto	u2060
  2007  0226                     u2061:
  2008  0226  2A28               	goto	l2134
  2009  0227                     u2060:
  2010  0227                     l2132:
  2011  0227  1585               	bsf	5,3	;volatile
  2012  0228                     l2134:
  2013                           
  2014                           ;mainBT.c: 227:         if (temp ==0){RA3 = 0;}
  2015  0228  0822               	movf	updateWifiCounter@temp_166,w
  2016  0229  0423               	iorwf	updateWifiCounter@temp_166+1,w
  2017  022A  1D03               	btfss	3,2
  2018  022B  2A2D               	goto	u2071
  2019  022C  2A2E               	goto	u2070
  2020  022D                     u2071:
  2021  022D  2A2F               	goto	l2138
  2022  022E                     u2070:
  2023  022E                     l2136:
  2024  022E  1185               	bcf	5,3	;volatile
  2025  022F                     l2138:
  2026                           
  2027                           ;mainBT.c: 228:         count2 = count2/2;
  2028  022F  3002               	movlw	2
  2029  0230  00F0               	movwf	___awdiv@divisor
  2030  0231  3000               	movlw	0
  2031  0232  00F1               	movwf	___awdiv@divisor+1
  2032  0233  0858               	movf	_count2+1,w
  2033  0234  00F3               	movwf	___awdiv@dividend+1
  2034  0235  0857               	movf	_count2,w
  2035  0236  00F2               	movwf	___awdiv@dividend
  2036  0237  120A  158A  26F7  120A  118A  	fcall	___awdiv
  2037  023C  0871               	movf	?___awdiv+1,w
  2038  023D  1283               	bcf	3,5	;RP0=0, select bank0
  2039  023E  1303               	bcf	3,6	;RP1=0, select bank0
  2040  023F  00D8               	movwf	_count2+1
  2041  0240  0870               	movf	?___awdiv,w
  2042  0241  00D7               	movwf	_count2
  2043  0242                     l2140:
  2044                           
  2045                           ;mainBT.c: 229:         temp = count2%2;
  2046  0242  3001               	movlw	1
  2047  0243  0557               	andwf	_count2,w
  2048  0244  00A2               	movwf	updateWifiCounter@temp_166
  2049  0245  3000               	movlw	0
  2050  0246  0558               	andwf	_count2+1,w
  2051  0247  00A3               	movwf	updateWifiCounter@temp_166+1
  2052  0248                     l2142:
  2053                           
  2054                           ;mainBT.c: 230:         if (temp ==1){RA4 = 1;}
  2055  0248  0322               	decf	updateWifiCounter@temp_166,w
  2056  0249  0423               	iorwf	updateWifiCounter@temp_166+1,w
  2057  024A  1D03               	btfss	3,2
  2058  024B  2A4D               	goto	u2081
  2059  024C  2A4E               	goto	u2080
  2060  024D                     u2081:
  2061  024D  2A4F               	goto	l2146
  2062  024E                     u2080:
  2063  024E                     l2144:
  2064  024E  1605               	bsf	5,4	;volatile
  2065  024F                     l2146:
  2066                           
  2067                           ;mainBT.c: 231:         if (temp ==0){RA4 = 0;}
  2068  024F  0822               	movf	updateWifiCounter@temp_166,w
  2069  0250  0423               	iorwf	updateWifiCounter@temp_166+1,w
  2070  0251  1D03               	btfss	3,2
  2071  0252  2A54               	goto	u2091
  2072  0253  2A55               	goto	u2090
  2073  0254                     u2091:
  2074  0254  2A56               	goto	l2150
  2075  0255                     u2090:
  2076  0255                     l2148:
  2077  0255  1205               	bcf	5,4	;volatile
  2078  0256                     l2150:
  2079                           
  2080                           ;mainBT.c: 232:         count2 = count2/2;
  2081  0256  3002               	movlw	2
  2082  0257  00F0               	movwf	___awdiv@divisor
  2083  0258  3000               	movlw	0
  2084  0259  00F1               	movwf	___awdiv@divisor+1
  2085  025A  0858               	movf	_count2+1,w
  2086  025B  00F3               	movwf	___awdiv@dividend+1
  2087  025C  0857               	movf	_count2,w
  2088  025D  00F2               	movwf	___awdiv@dividend
  2089  025E  120A  158A  26F7  120A  118A  	fcall	___awdiv
  2090  0263  0871               	movf	?___awdiv+1,w
  2091  0264  1283               	bcf	3,5	;RP0=0, select bank0
  2092  0265  1303               	bcf	3,6	;RP1=0, select bank0
  2093  0266  00D8               	movwf	_count2+1
  2094  0267  0870               	movf	?___awdiv,w
  2095  0268  00D7               	movwf	_count2
  2096  0269                     l2152:
  2097                           
  2098                           ;mainBT.c: 233:         temp = count2%2;
  2099  0269  3001               	movlw	1
  2100  026A  0557               	andwf	_count2,w
  2101  026B  00A2               	movwf	updateWifiCounter@temp_166
  2102  026C  3000               	movlw	0
  2103  026D  0558               	andwf	_count2+1,w
  2104  026E  00A3               	movwf	updateWifiCounter@temp_166+1
  2105  026F                     l2154:
  2106                           
  2107                           ;mainBT.c: 234:         if (temp ==1){RA5 = 1;}
  2108  026F  0322               	decf	updateWifiCounter@temp_166,w
  2109  0270  0423               	iorwf	updateWifiCounter@temp_166+1,w
  2110  0271  1D03               	btfss	3,2
  2111  0272  2A74               	goto	u2101
  2112  0273  2A75               	goto	u2100
  2113  0274                     u2101:
  2114  0274  2A76               	goto	l2158
  2115  0275                     u2100:
  2116  0275                     l2156:
  2117  0275  1685               	bsf	5,5	;volatile
  2118  0276                     l2158:
  2119                           
  2120                           ;mainBT.c: 235:         if (temp ==0){RA5 = 0;}
  2121  0276  0822               	movf	updateWifiCounter@temp_166,w
  2122  0277  0423               	iorwf	updateWifiCounter@temp_166+1,w
  2123  0278  1D03               	btfss	3,2
  2124  0279  2A7B               	goto	u2111
  2125  027A  2A7C               	goto	u2110
  2126  027B                     u2111:
  2127  027B  2A7D               	goto	l2162
  2128  027C                     u2110:
  2129  027C                     l2160:
  2130  027C  1285               	bcf	5,5	;volatile
  2131  027D                     l2162:
  2132                           
  2133                           ;mainBT.c: 238:     if(wifiCounter == 3){
  2134  027D  3003               	movlw	3
  2135  027E  0667               	xorwf	_wifiCounter,w
  2136  027F  0468               	iorwf	_wifiCounter+1,w
  2137  0280  1D03               	btfss	3,2
  2138  0281  2A83               	goto	u2121
  2139  0282  2A84               	goto	u2120
  2140  0283                     u2121:
  2141  0283  2B13               	goto	l260
  2142  0284                     u2120:
  2143  0284                     l2164:
  2144                           
  2145                           ;mainBT.c: 240:         RA0 = 0;
  2146  0284  1005               	bcf	5,0	;volatile
  2147                           
  2148                           ;mainBT.c: 241:         RA1 = 1;
  2149  0285  1485               	bsf	5,1	;volatile
  2150  0286                     l2166:
  2151                           
  2152                           ;mainBT.c: 244:         int temp;;mainBT.c: 245:         temp = count1%2;
  2153  0286  3001               	movlw	1
  2154  0287  0555               	andwf	_count1,w
  2155  0288  00A4               	movwf	updateWifiCounter@temp_167
  2156  0289  3000               	movlw	0
  2157  028A  0556               	andwf	_count1+1,w
  2158  028B  00A5               	movwf	updateWifiCounter@temp_167+1
  2159  028C                     l2168:
  2160                           
  2161                           ;mainBT.c: 246:         if (temp ==1){RA2 = 1;}
  2162  028C  0324               	decf	updateWifiCounter@temp_167,w
  2163  028D  0425               	iorwf	updateWifiCounter@temp_167+1,w
  2164  028E  1D03               	btfss	3,2
  2165  028F  2A91               	goto	u2131
  2166  0290  2A92               	goto	u2130
  2167  0291                     u2131:
  2168  0291  2A93               	goto	l2172
  2169  0292                     u2130:
  2170  0292                     l2170:
  2171  0292  1505               	bsf	5,2	;volatile
  2172  0293                     l2172:
  2173                           
  2174                           ;mainBT.c: 247:         if (temp ==0){RA2 = 0;}
  2175  0293  0824               	movf	updateWifiCounter@temp_167,w
  2176  0294  0425               	iorwf	updateWifiCounter@temp_167+1,w
  2177  0295  1D03               	btfss	3,2
  2178  0296  2A98               	goto	u2141
  2179  0297  2A99               	goto	u2140
  2180  0298                     u2141:
  2181  0298  2A9A               	goto	l2176
  2182  0299                     u2140:
  2183  0299                     l2174:
  2184  0299  1105               	bcf	5,2	;volatile
  2185  029A                     l2176:
  2186                           
  2187                           ;mainBT.c: 248:         count1 = count1/2;
  2188  029A  3002               	movlw	2
  2189  029B  00F0               	movwf	___awdiv@divisor
  2190  029C  3000               	movlw	0
  2191  029D  00F1               	movwf	___awdiv@divisor+1
  2192  029E  0856               	movf	_count1+1,w
  2193  029F  00F3               	movwf	___awdiv@dividend+1
  2194  02A0  0855               	movf	_count1,w
  2195  02A1  00F2               	movwf	___awdiv@dividend
  2196  02A2  120A  158A  26F7  120A  118A  	fcall	___awdiv
  2197  02A7  0871               	movf	?___awdiv+1,w
  2198  02A8  1283               	bcf	3,5	;RP0=0, select bank0
  2199  02A9  1303               	bcf	3,6	;RP1=0, select bank0
  2200  02AA  00D6               	movwf	_count1+1
  2201  02AB  0870               	movf	?___awdiv,w
  2202  02AC  00D5               	movwf	_count1
  2203  02AD                     l2178:
  2204                           
  2205                           ;mainBT.c: 249:         temp = count1%2;
  2206  02AD  3001               	movlw	1
  2207  02AE  0555               	andwf	_count1,w
  2208  02AF  00A4               	movwf	updateWifiCounter@temp_167
  2209  02B0  3000               	movlw	0
  2210  02B1  0556               	andwf	_count1+1,w
  2211  02B2  00A5               	movwf	updateWifiCounter@temp_167+1
  2212  02B3                     l2180:
  2213                           
  2214                           ;mainBT.c: 250:         if (temp ==1){RA3 = 1;}
  2215  02B3  0324               	decf	updateWifiCounter@temp_167,w
  2216  02B4  0425               	iorwf	updateWifiCounter@temp_167+1,w
  2217  02B5  1D03               	btfss	3,2
  2218  02B6  2AB8               	goto	u2151
  2219  02B7  2AB9               	goto	u2150
  2220  02B8                     u2151:
  2221  02B8  2ABA               	goto	l2184
  2222  02B9                     u2150:
  2223  02B9                     l2182:
  2224  02B9  1585               	bsf	5,3	;volatile
  2225  02BA                     l2184:
  2226                           
  2227                           ;mainBT.c: 251:         if (temp ==0){RA3 = 0;}
  2228  02BA  0824               	movf	updateWifiCounter@temp_167,w
  2229  02BB  0425               	iorwf	updateWifiCounter@temp_167+1,w
  2230  02BC  1D03               	btfss	3,2
  2231  02BD  2ABF               	goto	u2161
  2232  02BE  2AC0               	goto	u2160
  2233  02BF                     u2161:
  2234  02BF  2AC1               	goto	l2188
  2235  02C0                     u2160:
  2236  02C0                     l2186:
  2237  02C0  1185               	bcf	5,3	;volatile
  2238  02C1                     l2188:
  2239                           
  2240                           ;mainBT.c: 252:         count1 = count1/2;
  2241  02C1  3002               	movlw	2
  2242  02C2  00F0               	movwf	___awdiv@divisor
  2243  02C3  3000               	movlw	0
  2244  02C4  00F1               	movwf	___awdiv@divisor+1
  2245  02C5  0856               	movf	_count1+1,w
  2246  02C6  00F3               	movwf	___awdiv@dividend+1
  2247  02C7  0855               	movf	_count1,w
  2248  02C8  00F2               	movwf	___awdiv@dividend
  2249  02C9  120A  158A  26F7  120A  118A  	fcall	___awdiv
  2250  02CE  0871               	movf	?___awdiv+1,w
  2251  02CF  1283               	bcf	3,5	;RP0=0, select bank0
  2252  02D0  1303               	bcf	3,6	;RP1=0, select bank0
  2253  02D1  00D6               	movwf	_count1+1
  2254  02D2  0870               	movf	?___awdiv,w
  2255  02D3  00D5               	movwf	_count1
  2256  02D4                     l2190:
  2257                           
  2258                           ;mainBT.c: 253:         temp = count1%2;
  2259  02D4  3001               	movlw	1
  2260  02D5  0555               	andwf	_count1,w
  2261  02D6  00A4               	movwf	updateWifiCounter@temp_167
  2262  02D7  3000               	movlw	0
  2263  02D8  0556               	andwf	_count1+1,w
  2264  02D9  00A5               	movwf	updateWifiCounter@temp_167+1
  2265  02DA                     l2192:
  2266                           
  2267                           ;mainBT.c: 254:         if (temp ==1){RA4 = 1;}
  2268  02DA  0324               	decf	updateWifiCounter@temp_167,w
  2269  02DB  0425               	iorwf	updateWifiCounter@temp_167+1,w
  2270  02DC  1D03               	btfss	3,2
  2271  02DD  2ADF               	goto	u2171
  2272  02DE  2AE0               	goto	u2170
  2273  02DF                     u2171:
  2274  02DF  2AE1               	goto	l2196
  2275  02E0                     u2170:
  2276  02E0                     l2194:
  2277  02E0  1605               	bsf	5,4	;volatile
  2278  02E1                     l2196:
  2279                           
  2280                           ;mainBT.c: 255:         if (temp ==0){RA4 = 0;}
  2281  02E1  0824               	movf	updateWifiCounter@temp_167,w
  2282  02E2  0425               	iorwf	updateWifiCounter@temp_167+1,w
  2283  02E3  1D03               	btfss	3,2
  2284  02E4  2AE6               	goto	u2181
  2285  02E5  2AE7               	goto	u2180
  2286  02E6                     u2181:
  2287  02E6  2AE8               	goto	l2200
  2288  02E7                     u2180:
  2289  02E7                     l2198:
  2290  02E7  1205               	bcf	5,4	;volatile
  2291  02E8                     l2200:
  2292                           
  2293                           ;mainBT.c: 256:         count1 = count1/2;
  2294  02E8  3002               	movlw	2
  2295  02E9  00F0               	movwf	___awdiv@divisor
  2296  02EA  3000               	movlw	0
  2297  02EB  00F1               	movwf	___awdiv@divisor+1
  2298  02EC  0856               	movf	_count1+1,w
  2299  02ED  00F3               	movwf	___awdiv@dividend+1
  2300  02EE  0855               	movf	_count1,w
  2301  02EF  00F2               	movwf	___awdiv@dividend
  2302  02F0  120A  158A  26F7  120A  118A  	fcall	___awdiv
  2303  02F5  0871               	movf	?___awdiv+1,w
  2304  02F6  1283               	bcf	3,5	;RP0=0, select bank0
  2305  02F7  1303               	bcf	3,6	;RP1=0, select bank0
  2306  02F8  00D6               	movwf	_count1+1
  2307  02F9  0870               	movf	?___awdiv,w
  2308  02FA  00D5               	movwf	_count1
  2309  02FB                     l2202:
  2310                           
  2311                           ;mainBT.c: 257:         temp = count1%2;
  2312  02FB  3001               	movlw	1
  2313  02FC  0555               	andwf	_count1,w
  2314  02FD  00A4               	movwf	updateWifiCounter@temp_167
  2315  02FE  3000               	movlw	0
  2316  02FF  0556               	andwf	_count1+1,w
  2317  0300  00A5               	movwf	updateWifiCounter@temp_167+1
  2318  0301                     l2204:
  2319                           
  2320                           ;mainBT.c: 258:         if (temp ==1){RA5 = 1;}
  2321  0301  0324               	decf	updateWifiCounter@temp_167,w
  2322  0302  0425               	iorwf	updateWifiCounter@temp_167+1,w
  2323  0303  1D03               	btfss	3,2
  2324  0304  2B06               	goto	u2191
  2325  0305  2B07               	goto	u2190
  2326  0306                     u2191:
  2327  0306  2B08               	goto	l2208
  2328  0307                     u2190:
  2329  0307                     l2206:
  2330  0307  1685               	bsf	5,5	;volatile
  2331  0308                     l2208:
  2332                           
  2333                           ;mainBT.c: 259:         if (temp ==0){RA5 = 0;}
  2334  0308  0824               	movf	updateWifiCounter@temp_167,w
  2335  0309  0425               	iorwf	updateWifiCounter@temp_167+1,w
  2336  030A  1D03               	btfss	3,2
  2337  030B  2B0D               	goto	u2201
  2338  030C  2B0E               	goto	u2200
  2339  030D                     u2201:
  2340  030D  2B0F               	goto	l2212
  2341  030E                     u2200:
  2342  030E                     l2210:
  2343  030E  1285               	bcf	5,5	;volatile
  2344  030F                     l2212:
  2345                           
  2346                           ;mainBT.c: 260:         wifiCounter = 1;
  2347  030F  3001               	movlw	1
  2348  0310  00E7               	movwf	_wifiCounter
  2349  0311  3000               	movlw	0
  2350  0312  00E8               	movwf	_wifiCounter+1
  2351  0313                     l260:
  2352  0313  0008               	return
  2353  0314                     __end_of_updateWifiCounter:
  2354                           
  2355                           	psect	text2
  2356  0E97                     __ptext2:	
  2357 ;; *************** function _itoa *****************
  2358 ;; Defined at:
  2359 ;;		line 52 in file "./LCD.h"
  2360 ;; Parameters:    Size  Location     Type
  2361 ;;  value           2    9[COMMON] int 
  2362 ;; Auto vars:     Size  Location     Type
  2363 ;;  c               2    2[BANK0 ] int 
  2364 ;;  original        2    0[BANK0 ] int 
  2365 ;; Return value:  Size  Location     Type
  2366 ;;                  1    wreg      PTR unsigned char 
  2367 ;; Registers used:
  2368 ;;		wreg, fsr0l, fsr0h, status,2, status,0, pclath, cstack
  2369 ;; Tracked objects:
  2370 ;;		On entry : 0/0
  2371 ;;		On exit  : 0/0
  2372 ;;		Unchanged: 0/0
  2373 ;; Data sizes:     COMMON   BANK0   BANK1   BANK3   BANK2
  2374 ;;      Params:         2       0       0       0       0
  2375 ;;      Locals:         0       4       0       0       0
  2376 ;;      Temps:          1       0       0       0       0
  2377 ;;      Totals:         3       4       0       0       0
  2378 ;;Total ram usage:        7 bytes
  2379 ;; Hardware stack levels used: 1
  2380 ;; Hardware stack levels required when called: 1
  2381 ;; This function calls:
  2382 ;;		___awdiv
  2383 ;;		___awmod
  2384 ;; This function is called by:
  2385 ;;		_main
  2386 ;; This function uses a non-reentrant model
  2387 ;;
  2388                           
  2389  0E97                     _itoa:	
  2390                           ;psect for function _itoa
  2391                           
  2392  0E97                     l2012:	
  2393                           ;incstack = 0
  2394                           ; Regs used in _itoa: [wreg-fsr0h+status,2+status,0+pclath+cstack]
  2395                           
  2396                           
  2397                           ;./LCD.h: 52: char *itoa(int value);./LCD.h: 53:  {;./LCD.h: 54:      static char buffer
      +                          [12];;./LCD.h: 55:      int original = value;
  2398  0E97  087A               	movf	itoa@value+1,w
  2399  0E98  1283               	bcf	3,5	;RP0=0, select bank0
  2400  0E99  1303               	bcf	3,6	;RP1=0, select bank0
  2401  0E9A  00A1               	movwf	itoa@original+1
  2402  0E9B  0879               	movf	itoa@value,w
  2403  0E9C  00A0               	movwf	itoa@original
  2404                           
  2405                           ;./LCD.h: 57:      int c = sizeof(buffer)-1;
  2406  0E9D  300B               	movlw	11
  2407  0E9E  00A2               	movwf	itoa@c
  2408  0E9F  3000               	movlw	0
  2409  0EA0  00A3               	movwf	itoa@c+1
  2410  0EA1                     l2014:
  2411                           
  2412                           ;./LCD.h: 59:      buffer[c] = 0;
  2413  0EA1  01E6               	clrf	itoa@buffer+11
  2414  0EA2                     l2016:
  2415                           
  2416                           ;./LCD.h: 61:      if (value < 0)
  2417  0EA2  1FFA               	btfss	itoa@value+1,7
  2418  0EA3  2EA5               	goto	u1901
  2419  0EA4  2EA6               	goto	u1900
  2420  0EA5                     u1901:
  2421  0EA5  2EAB               	goto	l2020
  2422  0EA6                     u1900:
  2423  0EA6                     l2018:
  2424                           
  2425                           ;./LCD.h: 62:          value = -value;
  2426  0EA6  09F9               	comf	itoa@value,f
  2427  0EA7  09FA               	comf	itoa@value+1,f
  2428  0EA8  0AF9               	incf	itoa@value,f
  2429  0EA9  1903               	skipnz
  2430  0EAA  0AFA               	incf	itoa@value+1,f
  2431  0EAB                     l2020:
  2432                           
  2433                           ;./LCD.h: 65:      {;./LCD.h: 66:          buffer[--c] = (value % 10) + '0';
  2434  0EAB  300A               	movlw	10
  2435  0EAC  00F0               	movwf	___awmod@divisor
  2436  0EAD  3000               	movlw	0
  2437  0EAE  00F1               	movwf	___awmod@divisor+1
  2438  0EAF  087A               	movf	itoa@value+1,w
  2439  0EB0  00F3               	movwf	___awmod@dividend+1
  2440  0EB1  0879               	movf	itoa@value,w
  2441  0EB2  00F2               	movwf	___awmod@dividend
  2442  0EB3  120A  158A  263E  120A  158A  	fcall	___awmod
  2443  0EB8  0870               	movf	?___awmod,w
  2444  0EB9  3E30               	addlw	48
  2445  0EBA  00FB               	movwf	??_itoa
  2446  0EBB  30FF               	movlw	255
  2447  0EBC  1283               	bcf	3,5	;RP0=0, select bank0
  2448  0EBD  1303               	bcf	3,6	;RP1=0, select bank0
  2449  0EBE  07A2               	addwf	itoa@c,f
  2450  0EBF  1803               	skipnc
  2451  0EC0  0AA3               	incf	itoa@c+1,f
  2452  0EC1  30FF               	movlw	255
  2453  0EC2  07A3               	addwf	itoa@c+1,f
  2454  0EC3  0822               	movf	itoa@c,w
  2455  0EC4  3E5B               	addlw	(low (itoa@buffer| 0))& (0+255)
  2456  0EC5  0084               	movwf	4
  2457  0EC6  087B               	movf	??_itoa,w
  2458  0EC7  1383               	bcf	3,7	;select IRP bank0
  2459  0EC8  0080               	movwf	0
  2460  0EC9                     l2022:
  2461                           
  2462                           ;./LCD.h: 67:          value /= 10;
  2463  0EC9  300A               	movlw	10
  2464  0ECA  00F0               	movwf	___awdiv@divisor
  2465  0ECB  3000               	movlw	0
  2466  0ECC  00F1               	movwf	___awdiv@divisor+1
  2467  0ECD  087A               	movf	itoa@value+1,w
  2468  0ECE  00F3               	movwf	___awdiv@dividend+1
  2469  0ECF  0879               	movf	itoa@value,w
  2470  0ED0  00F2               	movwf	___awdiv@dividend
  2471  0ED1  120A  158A  26F7  120A  158A  	fcall	___awdiv
  2472  0ED6  0871               	movf	?___awdiv+1,w
  2473  0ED7  00FA               	movwf	itoa@value+1
  2474  0ED8  0870               	movf	?___awdiv,w
  2475  0ED9  00F9               	movwf	itoa@value
  2476  0EDA                     l2024:
  2477                           
  2478                           ;./LCD.h: 68:      } while (value);
  2479  0EDA  0879               	movf	itoa@value,w
  2480  0EDB  047A               	iorwf	itoa@value+1,w
  2481  0EDC  1D03               	btfss	3,2
  2482  0EDD  2EDF               	goto	u1911
  2483  0EDE  2EE0               	goto	u1910
  2484  0EDF                     u1911:
  2485  0EDF  2EAB               	goto	l2020
  2486  0EE0                     u1910:
  2487  0EE0                     l171:
  2488                           
  2489                           ;./LCD.h: 70:      if (original < 0)
  2490  0EE0  1283               	bcf	3,5	;RP0=0, select bank0
  2491  0EE1  1303               	bcf	3,6	;RP1=0, select bank0
  2492  0EE2  1FA1               	btfss	itoa@original+1,7
  2493  0EE3  2EE5               	goto	u1921
  2494  0EE4  2EE6               	goto	u1920
  2495  0EE5                     u1921:
  2496  0EE5  2EF4               	goto	l2028
  2497  0EE6                     u1920:
  2498  0EE6                     l2026:
  2499                           
  2500                           ;./LCD.h: 71:          buffer[--c] = '-';
  2501  0EE6  302D               	movlw	45
  2502  0EE7  00FB               	movwf	??_itoa
  2503  0EE8  30FF               	movlw	255
  2504  0EE9  07A2               	addwf	itoa@c,f
  2505  0EEA  1803               	skipnc
  2506  0EEB  0AA3               	incf	itoa@c+1,f
  2507  0EEC  30FF               	movlw	255
  2508  0EED  07A3               	addwf	itoa@c+1,f
  2509  0EEE  0822               	movf	itoa@c,w
  2510  0EEF  3E5B               	addlw	(low (itoa@buffer| 0))& (0+255)
  2511  0EF0  0084               	movwf	4
  2512  0EF1  087B               	movf	??_itoa,w
  2513  0EF2  1383               	bcf	3,7	;select IRP bank0
  2514  0EF3  0080               	movwf	0
  2515  0EF4                     l2028:
  2516                           
  2517                           ;./LCD.h: 73:      return &buffer[c];
  2518  0EF4  0822               	movf	itoa@c,w
  2519  0EF5  3E5B               	addlw	(low (itoa@buffer| 0))& (0+255)
  2520  0EF6                     l173:
  2521  0EF6  0008               	return
  2522  0EF7                     __end_of_itoa:
  2523                           
  2524                           	psect	text3
  2525  0E3E                     __ptext3:	
  2526 ;; *************** function ___awmod *****************
  2527 ;; Defined at:
  2528 ;;		line 5 in file "C:\Program Files\Microchip\xc8\v2.36\pic\sources\c90\common\awmod.c"
  2529 ;; Parameters:    Size  Location     Type
  2530 ;;  divisor         2    0[COMMON] int 
  2531 ;;  dividend        2    2[COMMON] int 
  2532 ;; Auto vars:     Size  Location     Type
  2533 ;;  sign            1    6[COMMON] unsigned char 
  2534 ;;  counter         1    5[COMMON] unsigned char 
  2535 ;; Return value:  Size  Location     Type
  2536 ;;                  2    0[COMMON] int 
  2537 ;; Registers used:
  2538 ;;		wreg, status,2, status,0
  2539 ;; Tracked objects:
  2540 ;;		On entry : 0/0
  2541 ;;		On exit  : 0/0
  2542 ;;		Unchanged: 0/0
  2543 ;; Data sizes:     COMMON   BANK0   BANK1   BANK3   BANK2
  2544 ;;      Params:         4       0       0       0       0
  2545 ;;      Locals:         2       0       0       0       0
  2546 ;;      Temps:          1       0       0       0       0
  2547 ;;      Totals:         7       0       0       0       0
  2548 ;;Total ram usage:        7 bytes
  2549 ;; Hardware stack levels used: 1
  2550 ;; This function calls:
  2551 ;;		Nothing
  2552 ;; This function is called by:
  2553 ;;		_itoa
  2554 ;; This function uses a non-reentrant model
  2555 ;;
  2556                           
  2557  0E3E                     ___awmod:	
  2558                           ;psect for function ___awmod
  2559                           
  2560  0E3E                     l1718:	
  2561                           ;incstack = 0
  2562                           ; Regs used in ___awmod: [wreg+status,2+status,0]
  2563                           
  2564  0E3E  01F6               	clrf	___awmod@sign
  2565  0E3F                     l1720:
  2566  0E3F  1FF3               	btfss	___awmod@dividend+1,7
  2567  0E40  2E42               	goto	u1311
  2568  0E41  2E43               	goto	u1310
  2569  0E42                     u1311:
  2570  0E42  2E4A               	goto	l1726
  2571  0E43                     u1310:
  2572  0E43                     l1722:
  2573  0E43  09F2               	comf	___awmod@dividend,f
  2574  0E44  09F3               	comf	___awmod@dividend+1,f
  2575  0E45  0AF2               	incf	___awmod@dividend,f
  2576  0E46  1903               	skipnz
  2577  0E47  0AF3               	incf	___awmod@dividend+1,f
  2578  0E48                     l1724:
  2579  0E48  01F6               	clrf	___awmod@sign
  2580  0E49  0AF6               	incf	___awmod@sign,f
  2581  0E4A                     l1726:
  2582  0E4A  1FF1               	btfss	___awmod@divisor+1,7
  2583  0E4B  2E4D               	goto	u1321
  2584  0E4C  2E4E               	goto	u1320
  2585  0E4D                     u1321:
  2586  0E4D  2E53               	goto	l1730
  2587  0E4E                     u1320:
  2588  0E4E                     l1728:
  2589  0E4E  09F0               	comf	___awmod@divisor,f
  2590  0E4F  09F1               	comf	___awmod@divisor+1,f
  2591  0E50  0AF0               	incf	___awmod@divisor,f
  2592  0E51  1903               	skipnz
  2593  0E52  0AF1               	incf	___awmod@divisor+1,f
  2594  0E53                     l1730:
  2595  0E53  0870               	movf	___awmod@divisor,w
  2596  0E54  0471               	iorwf	___awmod@divisor+1,w
  2597  0E55  1903               	btfsc	3,2
  2598  0E56  2E58               	goto	u1331
  2599  0E57  2E59               	goto	u1330
  2600  0E58                     u1331:
  2601  0E58  2E88               	goto	l1748
  2602  0E59                     u1330:
  2603  0E59                     l1732:
  2604  0E59  01F5               	clrf	___awmod@counter
  2605  0E5A  0AF5               	incf	___awmod@counter,f
  2606  0E5B  2E67               	goto	l1738
  2607  0E5C                     l1734:
  2608  0E5C  3001               	movlw	1
  2609  0E5D                     u1345:
  2610  0E5D  1003               	clrc
  2611  0E5E  0DF0               	rlf	___awmod@divisor,f
  2612  0E5F  0DF1               	rlf	___awmod@divisor+1,f
  2613  0E60  3EFF               	addlw	-1
  2614  0E61  1D03               	skipz
  2615  0E62  2E5D               	goto	u1345
  2616  0E63                     l1736:
  2617  0E63  3001               	movlw	1
  2618  0E64  00F4               	movwf	??___awmod
  2619  0E65  0874               	movf	??___awmod,w
  2620  0E66  07F5               	addwf	___awmod@counter,f
  2621  0E67                     l1738:
  2622  0E67  1FF1               	btfss	___awmod@divisor+1,7
  2623  0E68  2E6A               	goto	u1351
  2624  0E69  2E6B               	goto	u1350
  2625  0E6A                     u1351:
  2626  0E6A  2E5C               	goto	l1734
  2627  0E6B                     u1350:
  2628  0E6B                     l1740:
  2629  0E6B  0871               	movf	___awmod@divisor+1,w
  2630  0E6C  0273               	subwf	___awmod@dividend+1,w
  2631  0E6D  1D03               	skipz
  2632  0E6E  2E71               	goto	u1365
  2633  0E6F  0870               	movf	___awmod@divisor,w
  2634  0E70  0272               	subwf	___awmod@dividend,w
  2635  0E71                     u1365:
  2636  0E71  1C03               	skipc
  2637  0E72  2E74               	goto	u1361
  2638  0E73  2E75               	goto	u1360
  2639  0E74                     u1361:
  2640  0E74  2E7B               	goto	l1744
  2641  0E75                     u1360:
  2642  0E75                     l1742:
  2643  0E75  0870               	movf	___awmod@divisor,w
  2644  0E76  02F2               	subwf	___awmod@dividend,f
  2645  0E77  0871               	movf	___awmod@divisor+1,w
  2646  0E78  1C03               	skipc
  2647  0E79  03F3               	decf	___awmod@dividend+1,f
  2648  0E7A  02F3               	subwf	___awmod@dividend+1,f
  2649  0E7B                     l1744:
  2650  0E7B  3001               	movlw	1
  2651  0E7C                     u1375:
  2652  0E7C  1003               	clrc
  2653  0E7D  0CF1               	rrf	___awmod@divisor+1,f
  2654  0E7E  0CF0               	rrf	___awmod@divisor,f
  2655  0E7F  3EFF               	addlw	-1
  2656  0E80  1D03               	skipz
  2657  0E81  2E7C               	goto	u1375
  2658  0E82                     l1746:
  2659  0E82  3001               	movlw	1
  2660  0E83  02F5               	subwf	___awmod@counter,f
  2661  0E84  1D03               	btfss	3,2
  2662  0E85  2E87               	goto	u1381
  2663  0E86  2E88               	goto	u1380
  2664  0E87                     u1381:
  2665  0E87  2E6B               	goto	l1740
  2666  0E88                     u1380:
  2667  0E88                     l1748:
  2668  0E88  0876               	movf	___awmod@sign,w
  2669  0E89  1903               	btfsc	3,2
  2670  0E8A  2E8C               	goto	u1391
  2671  0E8B  2E8D               	goto	u1390
  2672  0E8C                     u1391:
  2673  0E8C  2E92               	goto	l1752
  2674  0E8D                     u1390:
  2675  0E8D                     l1750:
  2676  0E8D  09F2               	comf	___awmod@dividend,f
  2677  0E8E  09F3               	comf	___awmod@dividend+1,f
  2678  0E8F  0AF2               	incf	___awmod@dividend,f
  2679  0E90  1903               	skipnz
  2680  0E91  0AF3               	incf	___awmod@dividend+1,f
  2681  0E92                     l1752:
  2682  0E92  0873               	movf	___awmod@dividend+1,w
  2683  0E93  00F1               	movwf	?___awmod+1
  2684  0E94  0872               	movf	___awmod@dividend,w
  2685  0E95  00F0               	movwf	?___awmod
  2686  0E96                     l512:
  2687  0E96  0008               	return
  2688  0E97                     __end_of___awmod:
  2689                           
  2690                           	psect	text4
  2691  0EF7                     __ptext4:	
  2692 ;; *************** function ___awdiv *****************
  2693 ;; Defined at:
  2694 ;;		line 5 in file "C:\Program Files\Microchip\xc8\v2.36\pic\sources\c90\common\awdiv.c"
  2695 ;; Parameters:    Size  Location     Type
  2696 ;;  divisor         2    0[COMMON] int 
  2697 ;;  dividend        2    2[COMMON] int 
  2698 ;; Auto vars:     Size  Location     Type
  2699 ;;  quotient        2    7[COMMON] int 
  2700 ;;  sign            1    6[COMMON] unsigned char 
  2701 ;;  counter         1    5[COMMON] unsigned char 
  2702 ;; Return value:  Size  Location     Type
  2703 ;;                  2    0[COMMON] int 
  2704 ;; Registers used:
  2705 ;;		wreg, status,2, status,0
  2706 ;; Tracked objects:
  2707 ;;		On entry : 0/0
  2708 ;;		On exit  : 0/0
  2709 ;;		Unchanged: 0/0
  2710 ;; Data sizes:     COMMON   BANK0   BANK1   BANK3   BANK2
  2711 ;;      Params:         4       0       0       0       0
  2712 ;;      Locals:         4       0       0       0       0
  2713 ;;      Temps:          1       0       0       0       0
  2714 ;;      Totals:         9       0       0       0       0
  2715 ;;Total ram usage:        9 bytes
  2716 ;; Hardware stack levels used: 1
  2717 ;; This function calls:
  2718 ;;		Nothing
  2719 ;; This function is called by:
  2720 ;;		_itoa
  2721 ;;		_updateWifiCounter
  2722 ;; This function uses a non-reentrant model
  2723 ;;
  2724                           
  2725  0EF7                     ___awdiv:	
  2726                           ;psect for function ___awdiv
  2727                           
  2728  0EF7                     l1674:	
  2729                           ;incstack = 0
  2730                           ; Regs used in ___awdiv: [wreg+status,2+status,0]
  2731                           
  2732  0EF7  01F6               	clrf	___awdiv@sign
  2733  0EF8                     l1676:
  2734  0EF8  1FF1               	btfss	___awdiv@divisor+1,7
  2735  0EF9  2EFB               	goto	u1211
  2736  0EFA  2EFC               	goto	u1210
  2737  0EFB                     u1211:
  2738  0EFB  2F03               	goto	l1682
  2739  0EFC                     u1210:
  2740  0EFC                     l1678:
  2741  0EFC  09F0               	comf	___awdiv@divisor,f
  2742  0EFD  09F1               	comf	___awdiv@divisor+1,f
  2743  0EFE  0AF0               	incf	___awdiv@divisor,f
  2744  0EFF  1903               	skipnz
  2745  0F00  0AF1               	incf	___awdiv@divisor+1,f
  2746  0F01                     l1680:
  2747  0F01  01F6               	clrf	___awdiv@sign
  2748  0F02  0AF6               	incf	___awdiv@sign,f
  2749  0F03                     l1682:
  2750  0F03  1FF3               	btfss	___awdiv@dividend+1,7
  2751  0F04  2F06               	goto	u1221
  2752  0F05  2F07               	goto	u1220
  2753  0F06                     u1221:
  2754  0F06  2F10               	goto	l1688
  2755  0F07                     u1220:
  2756  0F07                     l1684:
  2757  0F07  09F2               	comf	___awdiv@dividend,f
  2758  0F08  09F3               	comf	___awdiv@dividend+1,f
  2759  0F09  0AF2               	incf	___awdiv@dividend,f
  2760  0F0A  1903               	skipnz
  2761  0F0B  0AF3               	incf	___awdiv@dividend+1,f
  2762  0F0C                     l1686:
  2763  0F0C  3001               	movlw	1
  2764  0F0D  00F4               	movwf	??___awdiv
  2765  0F0E  0874               	movf	??___awdiv,w
  2766  0F0F  06F6               	xorwf	___awdiv@sign,f
  2767  0F10                     l1688:
  2768  0F10  01F7               	clrf	___awdiv@quotient
  2769  0F11  01F8               	clrf	___awdiv@quotient+1
  2770  0F12                     l1690:
  2771  0F12  0870               	movf	___awdiv@divisor,w
  2772  0F13  0471               	iorwf	___awdiv@divisor+1,w
  2773  0F14  1903               	btfsc	3,2
  2774  0F15  2F17               	goto	u1231
  2775  0F16  2F18               	goto	u1230
  2776  0F17                     u1231:
  2777  0F17  2F4F               	goto	l1710
  2778  0F18                     u1230:
  2779  0F18                     l1692:
  2780  0F18  01F5               	clrf	___awdiv@counter
  2781  0F19  0AF5               	incf	___awdiv@counter,f
  2782  0F1A  2F26               	goto	l1698
  2783  0F1B                     l1694:
  2784  0F1B  3001               	movlw	1
  2785  0F1C                     u1245:
  2786  0F1C  1003               	clrc
  2787  0F1D  0DF0               	rlf	___awdiv@divisor,f
  2788  0F1E  0DF1               	rlf	___awdiv@divisor+1,f
  2789  0F1F  3EFF               	addlw	-1
  2790  0F20  1D03               	skipz
  2791  0F21  2F1C               	goto	u1245
  2792  0F22                     l1696:
  2793  0F22  3001               	movlw	1
  2794  0F23  00F4               	movwf	??___awdiv
  2795  0F24  0874               	movf	??___awdiv,w
  2796  0F25  07F5               	addwf	___awdiv@counter,f
  2797  0F26                     l1698:
  2798  0F26  1FF1               	btfss	___awdiv@divisor+1,7
  2799  0F27  2F29               	goto	u1251
  2800  0F28  2F2A               	goto	u1250
  2801  0F29                     u1251:
  2802  0F29  2F1B               	goto	l1694
  2803  0F2A                     u1250:
  2804  0F2A                     l1700:
  2805  0F2A  3001               	movlw	1
  2806  0F2B                     u1265:
  2807  0F2B  1003               	clrc
  2808  0F2C  0DF7               	rlf	___awdiv@quotient,f
  2809  0F2D  0DF8               	rlf	___awdiv@quotient+1,f
  2810  0F2E  3EFF               	addlw	-1
  2811  0F2F  1D03               	skipz
  2812  0F30  2F2B               	goto	u1265
  2813  0F31  0871               	movf	___awdiv@divisor+1,w
  2814  0F32  0273               	subwf	___awdiv@dividend+1,w
  2815  0F33  1D03               	skipz
  2816  0F34  2F37               	goto	u1275
  2817  0F35  0870               	movf	___awdiv@divisor,w
  2818  0F36  0272               	subwf	___awdiv@dividend,w
  2819  0F37                     u1275:
  2820  0F37  1C03               	skipc
  2821  0F38  2F3A               	goto	u1271
  2822  0F39  2F3B               	goto	u1270
  2823  0F3A                     u1271:
  2824  0F3A  2F42               	goto	l1706
  2825  0F3B                     u1270:
  2826  0F3B                     l1702:
  2827  0F3B  0870               	movf	___awdiv@divisor,w
  2828  0F3C  02F2               	subwf	___awdiv@dividend,f
  2829  0F3D  0871               	movf	___awdiv@divisor+1,w
  2830  0F3E  1C03               	skipc
  2831  0F3F  03F3               	decf	___awdiv@dividend+1,f
  2832  0F40  02F3               	subwf	___awdiv@dividend+1,f
  2833  0F41                     l1704:
  2834  0F41  1477               	bsf	___awdiv@quotient,0
  2835  0F42                     l1706:
  2836  0F42  3001               	movlw	1
  2837  0F43                     u1285:
  2838  0F43  1003               	clrc
  2839  0F44  0CF1               	rrf	___awdiv@divisor+1,f
  2840  0F45  0CF0               	rrf	___awdiv@divisor,f
  2841  0F46  3EFF               	addlw	-1
  2842  0F47  1D03               	skipz
  2843  0F48  2F43               	goto	u1285
  2844  0F49                     l1708:
  2845  0F49  3001               	movlw	1
  2846  0F4A  02F5               	subwf	___awdiv@counter,f
  2847  0F4B  1D03               	btfss	3,2
  2848  0F4C  2F4E               	goto	u1291
  2849  0F4D  2F4F               	goto	u1290
  2850  0F4E                     u1291:
  2851  0F4E  2F2A               	goto	l1700
  2852  0F4F                     u1290:
  2853  0F4F                     l1710:
  2854  0F4F  0876               	movf	___awdiv@sign,w
  2855  0F50  1903               	btfsc	3,2
  2856  0F51  2F53               	goto	u1301
  2857  0F52  2F54               	goto	u1300
  2858  0F53                     u1301:
  2859  0F53  2F59               	goto	l1714
  2860  0F54                     u1300:
  2861  0F54                     l1712:
  2862  0F54  09F7               	comf	___awdiv@quotient,f
  2863  0F55  09F8               	comf	___awdiv@quotient+1,f
  2864  0F56  0AF7               	incf	___awdiv@quotient,f
  2865  0F57  1903               	skipnz
  2866  0F58  0AF8               	incf	___awdiv@quotient+1,f
  2867  0F59                     l1714:
  2868  0F59  0878               	movf	___awdiv@quotient+1,w
  2869  0F5A  00F1               	movwf	?___awdiv+1
  2870  0F5B  0877               	movf	___awdiv@quotient,w
  2871  0F5C  00F0               	movwf	?___awdiv
  2872  0F5D                     l499:
  2873  0F5D  0008               	return
  2874  0F5E                     __end_of___awdiv:
  2875                           
  2876                           	psect	text5
  2877  0DED                     __ptext5:	
  2878 ;; *************** function _dist3 *****************
  2879 ;; Defined at:
  2880 ;;		line 47 in file "./sensor.h"
  2881 ;; Parameters:    Size  Location     Type
  2882 ;;		None
  2883 ;; Auto vars:     Size  Location     Type
  2884 ;;  distance3       4   31[BANK0 ] float 
  2885 ;; Return value:  Size  Location     Type
  2886 ;;                  4   26[BANK0 ] float 
  2887 ;; Registers used:
  2888 ;;		wreg, status,2, status,0, btemp+1, pclath, cstack
  2889 ;; Tracked objects:
  2890 ;;		On entry : 0/0
  2891 ;;		On exit  : 0/0
  2892 ;;		Unchanged: 0/0
  2893 ;; Data sizes:     COMMON   BANK0   BANK1   BANK3   BANK2
  2894 ;;      Params:         0       4       0       0       0
  2895 ;;      Locals:         0       4       0       0       0
  2896 ;;      Temps:          0       1       0       0       0
  2897 ;;      Totals:         0       9       0       0       0
  2898 ;;Total ram usage:        9 bytes
  2899 ;; Hardware stack levels used: 1
  2900 ;; Hardware stack levels required when called: 1
  2901 ;; This function calls:
  2902 ;;		___fldiv
  2903 ;;		___xxtofl
  2904 ;; This function is called by:
  2905 ;;		_main
  2906 ;; This function uses a non-reentrant model
  2907 ;;
  2908                           
  2909  0DED                     _dist3:	
  2910                           ;psect for function _dist3
  2911                           
  2912  0DED                     l1982:	
  2913                           ;incstack = 0
  2914                           ; Regs used in _dist3: [wreg+status,2+status,0+btemp+1+pclath+cstack]
  2915                           
  2916  0DED                     l1984:
  2917                           
  2918                           ;./sensor.h: 50:     TMR1 = 0;
  2919  0DED  1283               	bcf	3,5	;RP0=0, select bank0
  2920  0DEE  1303               	bcf	3,6	;RP1=0, select bank0
  2921  0DEF  018E               	clrf	14	;volatile
  2922  0DF0  018F               	clrf	15	;volatile
  2923  0DF1                     l1986:
  2924                           
  2925                           ;./sensor.h: 51:     RC5 = 1;
  2926  0DF1  1687               	bsf	7,5	;volatile
  2927  0DF2                     l1988:
  2928                           
  2929                           ;./sensor.h: 52:     _delay((unsigned long)((10)*(4000000/4000000.0)));
  2930  0DF2  3002               	movlw	2
  2931  0DF3  1283               	bcf	3,5	;RP0=0, select bank0
  2932  0DF4  1303               	bcf	3,6	;RP1=0, select bank0
  2933  0DF5  00BE               	movwf	??_dist3
  2934  0DF6                     u2417:
  2935  0DF6  0BBE               	decfsz	??_dist3,f
  2936  0DF7  2DF6               	goto	u2417
  2937  0DF8  0000               	nop
  2938  0DF9                     l1990:
  2939                           
  2940                           ;./sensor.h: 53:     RC5 = 0;
  2941  0DF9  1283               	bcf	3,5	;RP0=0, select bank0
  2942  0DFA  1303               	bcf	3,6	;RP1=0, select bank0
  2943  0DFB  1287               	bcf	7,5	;volatile
  2944  0DFC                     l143:	
  2945                           ;./sensor.h: 54:     while(!RC4);
  2946                           
  2947  0DFC  1E07               	btfss	7,4	;volatile
  2948  0DFD  2DFF               	goto	u1871
  2949  0DFE  2E00               	goto	u1870
  2950  0DFF                     u1871:
  2951  0DFF  2DFC               	goto	l143
  2952  0E00                     u1870:
  2953  0E00                     l145:
  2954                           
  2955                           ;./sensor.h: 55:     TMR1ON = 1;
  2956  0E00  1410               	bsf	16,0	;volatile
  2957  0E01                     l146:	
  2958                           ;./sensor.h: 56:     while(RC4);
  2959                           
  2960  0E01  1A07               	btfsc	7,4	;volatile
  2961  0E02  2E04               	goto	u1881
  2962  0E03  2E05               	goto	u1880
  2963  0E04                     u1881:
  2964  0E04  2E01               	goto	l146
  2965  0E05                     u1880:
  2966  0E05                     l148:
  2967                           
  2968                           ;./sensor.h: 57:     TMR1ON = 0;
  2969  0E05  1010               	bcf	16,0	;volatile
  2970  0E06                     l1992:
  2971                           
  2972                           ;./sensor.h: 58:     distance3 = TMR1/58.8;
  2973  0E06  3042               	movlw	66
  2974  0E07  00A3               	movwf	___fldiv@a+3
  2975  0E08  306B               	movlw	107
  2976  0E09  00A2               	movwf	___fldiv@a+2
  2977  0E0A  3033               	movlw	51
  2978  0E0B  00A1               	movwf	___fldiv@a+1
  2979  0E0C  3033               	movlw	51
  2980  0E0D  00A0               	movwf	___fldiv@a
  2981  0E0E  080E               	movf	14,w	;volatile
  2982  0E0F  00F0               	movwf	___xxtofl@val
  2983  0E10  080F               	movf	15,w	;volatile
  2984  0E11  00F1               	movwf	___xxtofl@val+1
  2985  0E12  01F2               	clrf	___xxtofl@val+2
  2986  0E13  01F3               	clrf	___xxtofl@val+3
  2987  0E14  3000               	movlw	0
  2988  0E15  120A  118A  209A  120A  158A  	fcall	___xxtofl
  2989  0E1A  0873               	movf	?___xxtofl+3,w
  2990  0E1B  1283               	bcf	3,5	;RP0=0, select bank0
  2991  0E1C  1303               	bcf	3,6	;RP1=0, select bank0
  2992  0E1D  00A7               	movwf	___fldiv@b+3
  2993  0E1E  0872               	movf	?___xxtofl+2,w
  2994  0E1F  00A6               	movwf	___fldiv@b+2
  2995  0E20  0871               	movf	?___xxtofl+1,w
  2996  0E21  00A5               	movwf	___fldiv@b+1
  2997  0E22  0870               	movf	?___xxtofl,w
  2998  0E23  00A4               	movwf	___fldiv@b
  2999  0E24  120A  118A  2314  120A  158A  	fcall	___fldiv
  3000  0E29  1283               	bcf	3,5	;RP0=0, select bank0
  3001  0E2A  1303               	bcf	3,6	;RP1=0, select bank0
  3002  0E2B  0823               	movf	?___fldiv+3,w
  3003  0E2C  00C2               	movwf	dist3@distance3+3
  3004  0E2D  0822               	movf	?___fldiv+2,w
  3005  0E2E  00C1               	movwf	dist3@distance3+2
  3006  0E2F  0821               	movf	?___fldiv+1,w
  3007  0E30  00C0               	movwf	dist3@distance3+1
  3008  0E31  0820               	movf	?___fldiv,w
  3009  0E32  00BF               	movwf	dist3@distance3
  3010  0E33                     l1994:
  3011                           
  3012                           ;./sensor.h: 59:     T1CKPS0=0;
  3013  0E33  1210               	bcf	16,4	;volatile
  3014  0E34                     l1996:
  3015                           
  3016                           ;./sensor.h: 60:     T1CKPS1=0;
  3017  0E34  1290               	bcf	16,5	;volatile
  3018  0E35                     l1998:
  3019                           
  3020                           ;./sensor.h: 62:     return distance3;
  3021  0E35  0842               	movf	dist3@distance3+3,w
  3022  0E36  00BD               	movwf	?_dist3+3
  3023  0E37  0841               	movf	dist3@distance3+2,w
  3024  0E38  00BC               	movwf	?_dist3+2
  3025  0E39  0840               	movf	dist3@distance3+1,w
  3026  0E3A  00BB               	movwf	?_dist3+1
  3027  0E3B  083F               	movf	dist3@distance3,w
  3028  0E3C  00BA               	movwf	?_dist3
  3029  0E3D                     l149:
  3030  0E3D  0008               	return
  3031  0E3E                     __end_of_dist3:
  3032                           
  3033                           	psect	text6
  3034  0D9C                     __ptext6:	
  3035 ;; *************** function _dist2 *****************
  3036 ;; Defined at:
  3037 ;;		line 29 in file "./sensor.h"
  3038 ;; Parameters:    Size  Location     Type
  3039 ;;		None
  3040 ;; Auto vars:     Size  Location     Type
  3041 ;;  distance2       4   31[BANK0 ] float 
  3042 ;; Return value:  Size  Location     Type
  3043 ;;                  4   26[BANK0 ] float 
  3044 ;; Registers used:
  3045 ;;		wreg, status,2, status,0, btemp+1, pclath, cstack
  3046 ;; Tracked objects:
  3047 ;;		On entry : 0/0
  3048 ;;		On exit  : 0/0
  3049 ;;		Unchanged: 0/0
  3050 ;; Data sizes:     COMMON   BANK0   BANK1   BANK3   BANK2
  3051 ;;      Params:         0       4       0       0       0
  3052 ;;      Locals:         0       4       0       0       0
  3053 ;;      Temps:          0       1       0       0       0
  3054 ;;      Totals:         0       9       0       0       0
  3055 ;;Total ram usage:        9 bytes
  3056 ;; Hardware stack levels used: 1
  3057 ;; Hardware stack levels required when called: 1
  3058 ;; This function calls:
  3059 ;;		___fldiv
  3060 ;;		___xxtofl
  3061 ;; This function is called by:
  3062 ;;		_main
  3063 ;; This function uses a non-reentrant model
  3064 ;;
  3065                           
  3066  0D9C                     _dist2:	
  3067                           ;psect for function _dist2
  3068                           
  3069  0D9C                     l1962:	
  3070                           ;incstack = 0
  3071                           ; Regs used in _dist2: [wreg+status,2+status,0+btemp+1+pclath+cstack]
  3072                           
  3073  0D9C                     l1964:
  3074                           
  3075                           ;./sensor.h: 32:     TMR1 = 0;
  3076  0D9C  1283               	bcf	3,5	;RP0=0, select bank0
  3077  0D9D  1303               	bcf	3,6	;RP1=0, select bank0
  3078  0D9E  018E               	clrf	14	;volatile
  3079  0D9F  018F               	clrf	15	;volatile
  3080  0DA0                     l1966:
  3081                           
  3082                           ;./sensor.h: 33:     RD5 = 1;
  3083  0DA0  1688               	bsf	8,5	;volatile
  3084  0DA1                     l1968:
  3085                           
  3086                           ;./sensor.h: 34:     _delay((unsigned long)((10)*(4000000/4000000.0)));
  3087  0DA1  3002               	movlw	2
  3088  0DA2  1283               	bcf	3,5	;RP0=0, select bank0
  3089  0DA3  1303               	bcf	3,6	;RP1=0, select bank0
  3090  0DA4  00BE               	movwf	??_dist2
  3091  0DA5                     u2427:
  3092  0DA5  0BBE               	decfsz	??_dist2,f
  3093  0DA6  2DA5               	goto	u2427
  3094  0DA7  0000               	nop
  3095  0DA8                     l1970:
  3096                           
  3097                           ;./sensor.h: 35:     RD5 = 0;
  3098  0DA8  1283               	bcf	3,5	;RP0=0, select bank0
  3099  0DA9  1303               	bcf	3,6	;RP1=0, select bank0
  3100  0DAA  1288               	bcf	8,5	;volatile
  3101  0DAB                     l134:	
  3102                           ;./sensor.h: 36:     while(!RD4);
  3103                           
  3104  0DAB  1E08               	btfss	8,4	;volatile
  3105  0DAC  2DAE               	goto	u1851
  3106  0DAD  2DAF               	goto	u1850
  3107  0DAE                     u1851:
  3108  0DAE  2DAB               	goto	l134
  3109  0DAF                     u1850:
  3110  0DAF                     l136:
  3111                           
  3112                           ;./sensor.h: 37:     TMR1ON = 1;
  3113  0DAF  1410               	bsf	16,0	;volatile
  3114  0DB0                     l137:	
  3115                           ;./sensor.h: 38:     while(RD4);
  3116                           
  3117  0DB0  1A08               	btfsc	8,4	;volatile
  3118  0DB1  2DB3               	goto	u1861
  3119  0DB2  2DB4               	goto	u1860
  3120  0DB3                     u1861:
  3121  0DB3  2DB0               	goto	l137
  3122  0DB4                     u1860:
  3123  0DB4                     l139:
  3124                           
  3125                           ;./sensor.h: 39:     TMR1ON = 0;
  3126  0DB4  1010               	bcf	16,0	;volatile
  3127  0DB5                     l1972:
  3128                           
  3129                           ;./sensor.h: 40:     distance2 = TMR1/58.8;
  3130  0DB5  3042               	movlw	66
  3131  0DB6  00A3               	movwf	___fldiv@a+3
  3132  0DB7  306B               	movlw	107
  3133  0DB8  00A2               	movwf	___fldiv@a+2
  3134  0DB9  3033               	movlw	51
  3135  0DBA  00A1               	movwf	___fldiv@a+1
  3136  0DBB  3033               	movlw	51
  3137  0DBC  00A0               	movwf	___fldiv@a
  3138  0DBD  080E               	movf	14,w	;volatile
  3139  0DBE  00F0               	movwf	___xxtofl@val
  3140  0DBF  080F               	movf	15,w	;volatile
  3141  0DC0  00F1               	movwf	___xxtofl@val+1
  3142  0DC1  01F2               	clrf	___xxtofl@val+2
  3143  0DC2  01F3               	clrf	___xxtofl@val+3
  3144  0DC3  3000               	movlw	0
  3145  0DC4  120A  118A  209A  120A  158A  	fcall	___xxtofl
  3146  0DC9  0873               	movf	?___xxtofl+3,w
  3147  0DCA  1283               	bcf	3,5	;RP0=0, select bank0
  3148  0DCB  1303               	bcf	3,6	;RP1=0, select bank0
  3149  0DCC  00A7               	movwf	___fldiv@b+3
  3150  0DCD  0872               	movf	?___xxtofl+2,w
  3151  0DCE  00A6               	movwf	___fldiv@b+2
  3152  0DCF  0871               	movf	?___xxtofl+1,w
  3153  0DD0  00A5               	movwf	___fldiv@b+1
  3154  0DD1  0870               	movf	?___xxtofl,w
  3155  0DD2  00A4               	movwf	___fldiv@b
  3156  0DD3  120A  118A  2314  120A  158A  	fcall	___fldiv
  3157  0DD8  1283               	bcf	3,5	;RP0=0, select bank0
  3158  0DD9  1303               	bcf	3,6	;RP1=0, select bank0
  3159  0DDA  0823               	movf	?___fldiv+3,w
  3160  0DDB  00C2               	movwf	dist2@distance2+3
  3161  0DDC  0822               	movf	?___fldiv+2,w
  3162  0DDD  00C1               	movwf	dist2@distance2+2
  3163  0DDE  0821               	movf	?___fldiv+1,w
  3164  0DDF  00C0               	movwf	dist2@distance2+1
  3165  0DE0  0820               	movf	?___fldiv,w
  3166  0DE1  00BF               	movwf	dist2@distance2
  3167  0DE2                     l1974:
  3168                           
  3169                           ;./sensor.h: 41:     T1CKPS0 = 0;
  3170  0DE2  1210               	bcf	16,4	;volatile
  3171  0DE3                     l1976:
  3172                           
  3173                           ;./sensor.h: 42:     T1CKPS1 = 0;
  3174  0DE3  1290               	bcf	16,5	;volatile
  3175  0DE4                     l1978:
  3176                           
  3177                           ;./sensor.h: 44:     return distance2;
  3178  0DE4  0842               	movf	dist2@distance2+3,w
  3179  0DE5  00BD               	movwf	?_dist2+3
  3180  0DE6  0841               	movf	dist2@distance2+2,w
  3181  0DE7  00BC               	movwf	?_dist2+2
  3182  0DE8  0840               	movf	dist2@distance2+1,w
  3183  0DE9  00BB               	movwf	?_dist2+1
  3184  0DEA  083F               	movf	dist2@distance2,w
  3185  0DEB  00BA               	movwf	?_dist2
  3186  0DEC                     l140:
  3187  0DEC  0008               	return
  3188  0DED                     __end_of_dist2:
  3189                           
  3190                           	psect	text7
  3191  0D4B                     __ptext7:	
  3192 ;; *************** function _dist1 *****************
  3193 ;; Defined at:
  3194 ;;		line 11 in file "./sensor.h"
  3195 ;; Parameters:    Size  Location     Type
  3196 ;;		None
  3197 ;; Auto vars:     Size  Location     Type
  3198 ;;  distance1       4   31[BANK0 ] float 
  3199 ;; Return value:  Size  Location     Type
  3200 ;;                  4   26[BANK0 ] float 
  3201 ;; Registers used:
  3202 ;;		wreg, status,2, status,0, btemp+1, pclath, cstack
  3203 ;; Tracked objects:
  3204 ;;		On entry : 0/0
  3205 ;;		On exit  : 0/0
  3206 ;;		Unchanged: 0/0
  3207 ;; Data sizes:     COMMON   BANK0   BANK1   BANK3   BANK2
  3208 ;;      Params:         0       4       0       0       0
  3209 ;;      Locals:         0       4       0       0       0
  3210 ;;      Temps:          0       1       0       0       0
  3211 ;;      Totals:         0       9       0       0       0
  3212 ;;Total ram usage:        9 bytes
  3213 ;; Hardware stack levels used: 1
  3214 ;; Hardware stack levels required when called: 1
  3215 ;; This function calls:
  3216 ;;		___fldiv
  3217 ;;		___xxtofl
  3218 ;; This function is called by:
  3219 ;;		_main
  3220 ;; This function uses a non-reentrant model
  3221 ;;
  3222                           
  3223  0D4B                     _dist1:	
  3224                           ;psect for function _dist1
  3225                           
  3226  0D4B                     l1942:	
  3227                           ;incstack = 0
  3228                           ; Regs used in _dist1: [wreg+status,2+status,0+btemp+1+pclath+cstack]
  3229                           
  3230  0D4B                     l1944:
  3231                           
  3232                           ;./sensor.h: 14:     TMR1 = 0;
  3233  0D4B  1283               	bcf	3,5	;RP0=0, select bank0
  3234  0D4C  1303               	bcf	3,6	;RP1=0, select bank0
  3235  0D4D  018E               	clrf	14	;volatile
  3236  0D4E  018F               	clrf	15	;volatile
  3237  0D4F                     l1946:
  3238                           
  3239                           ;./sensor.h: 15:     RD7 = 1;
  3240  0D4F  1788               	bsf	8,7	;volatile
  3241  0D50                     l1948:
  3242                           
  3243                           ;./sensor.h: 16:     _delay((unsigned long)((10)*(4000000/4000000.0)));
  3244  0D50  3002               	movlw	2
  3245  0D51  1283               	bcf	3,5	;RP0=0, select bank0
  3246  0D52  1303               	bcf	3,6	;RP1=0, select bank0
  3247  0D53  00BE               	movwf	??_dist1
  3248  0D54                     u2437:
  3249  0D54  0BBE               	decfsz	??_dist1,f
  3250  0D55  2D54               	goto	u2437
  3251  0D56  0000               	nop
  3252  0D57                     l1950:
  3253                           
  3254                           ;./sensor.h: 17:     RD7 = 0;
  3255  0D57  1283               	bcf	3,5	;RP0=0, select bank0
  3256  0D58  1303               	bcf	3,6	;RP1=0, select bank0
  3257  0D59  1388               	bcf	8,7	;volatile
  3258  0D5A                     l125:	
  3259                           ;./sensor.h: 18:     while(!RD6);
  3260                           
  3261  0D5A  1F08               	btfss	8,6	;volatile
  3262  0D5B  2D5D               	goto	u1831
  3263  0D5C  2D5E               	goto	u1830
  3264  0D5D                     u1831:
  3265  0D5D  2D5A               	goto	l125
  3266  0D5E                     u1830:
  3267  0D5E                     l127:
  3268                           
  3269                           ;./sensor.h: 19:     TMR1ON = 1;
  3270  0D5E  1410               	bsf	16,0	;volatile
  3271  0D5F                     l128:	
  3272                           ;./sensor.h: 20:     while(RD6);
  3273                           
  3274  0D5F  1B08               	btfsc	8,6	;volatile
  3275  0D60  2D62               	goto	u1841
  3276  0D61  2D63               	goto	u1840
  3277  0D62                     u1841:
  3278  0D62  2D5F               	goto	l128
  3279  0D63                     u1840:
  3280  0D63                     l130:
  3281                           
  3282                           ;./sensor.h: 21:     TMR1ON = 0;
  3283  0D63  1010               	bcf	16,0	;volatile
  3284  0D64                     l1952:
  3285                           
  3286                           ;./sensor.h: 22:     distance1 = TMR1/58.8;
  3287  0D64  3042               	movlw	66
  3288  0D65  00A3               	movwf	___fldiv@a+3
  3289  0D66  306B               	movlw	107
  3290  0D67  00A2               	movwf	___fldiv@a+2
  3291  0D68  3033               	movlw	51
  3292  0D69  00A1               	movwf	___fldiv@a+1
  3293  0D6A  3033               	movlw	51
  3294  0D6B  00A0               	movwf	___fldiv@a
  3295  0D6C  080E               	movf	14,w	;volatile
  3296  0D6D  00F0               	movwf	___xxtofl@val
  3297  0D6E  080F               	movf	15,w	;volatile
  3298  0D6F  00F1               	movwf	___xxtofl@val+1
  3299  0D70  01F2               	clrf	___xxtofl@val+2
  3300  0D71  01F3               	clrf	___xxtofl@val+3
  3301  0D72  3000               	movlw	0
  3302  0D73  120A  118A  209A  120A  158A  	fcall	___xxtofl
  3303  0D78  0873               	movf	?___xxtofl+3,w
  3304  0D79  1283               	bcf	3,5	;RP0=0, select bank0
  3305  0D7A  1303               	bcf	3,6	;RP1=0, select bank0
  3306  0D7B  00A7               	movwf	___fldiv@b+3
  3307  0D7C  0872               	movf	?___xxtofl+2,w
  3308  0D7D  00A6               	movwf	___fldiv@b+2
  3309  0D7E  0871               	movf	?___xxtofl+1,w
  3310  0D7F  00A5               	movwf	___fldiv@b+1
  3311  0D80  0870               	movf	?___xxtofl,w
  3312  0D81  00A4               	movwf	___fldiv@b
  3313  0D82  120A  118A  2314  120A  158A  	fcall	___fldiv
  3314  0D87  1283               	bcf	3,5	;RP0=0, select bank0
  3315  0D88  1303               	bcf	3,6	;RP1=0, select bank0
  3316  0D89  0823               	movf	?___fldiv+3,w
  3317  0D8A  00C2               	movwf	dist1@distance1+3
  3318  0D8B  0822               	movf	?___fldiv+2,w
  3319  0D8C  00C1               	movwf	dist1@distance1+2
  3320  0D8D  0821               	movf	?___fldiv+1,w
  3321  0D8E  00C0               	movwf	dist1@distance1+1
  3322  0D8F  0820               	movf	?___fldiv,w
  3323  0D90  00BF               	movwf	dist1@distance1
  3324  0D91                     l1954:
  3325                           
  3326                           ;./sensor.h: 23:     T1CKPS0 = 0;
  3327  0D91  1210               	bcf	16,4	;volatile
  3328  0D92                     l1956:
  3329                           
  3330                           ;./sensor.h: 24:     T1CKPS1 = 0;
  3331  0D92  1290               	bcf	16,5	;volatile
  3332  0D93                     l1958:
  3333                           
  3334                           ;./sensor.h: 26:     return distance1;
  3335  0D93  0842               	movf	dist1@distance1+3,w
  3336  0D94  00BD               	movwf	?_dist1+3
  3337  0D95  0841               	movf	dist1@distance1+2,w
  3338  0D96  00BC               	movwf	?_dist1+2
  3339  0D97  0840               	movf	dist1@distance1+1,w
  3340  0D98  00BB               	movwf	?_dist1+1
  3341  0D99  083F               	movf	dist1@distance1,w
  3342  0D9A  00BA               	movwf	?_dist1
  3343  0D9B                     l131:
  3344  0D9B  0008               	return
  3345  0D9C                     __end_of_dist1:
  3346                           
  3347                           	psect	text8
  3348  009A                     __ptext8:	
  3349 ;; *************** function ___xxtofl *****************
  3350 ;; Defined at:
  3351 ;;		line 10 in file "C:\Program Files\Microchip\xc8\v2.36\pic\sources\c90\common\xxtofl.c"
  3352 ;; Parameters:    Size  Location     Type
  3353 ;;  sign            1    wreg     unsigned char 
  3354 ;;  val             4    0[COMMON] long 
  3355 ;; Auto vars:     Size  Location     Type
  3356 ;;  sign            1    8[COMMON] unsigned char 
  3357 ;;  arg             4   10[COMMON] unsigned long 
  3358 ;;  exp             1    9[COMMON] unsigned char 
  3359 ;; Return value:  Size  Location     Type
  3360 ;;                  4    0[COMMON] unsigned char 
  3361 ;; Registers used:
  3362 ;;		wreg, status,2, status,0
  3363 ;; Tracked objects:
  3364 ;;		On entry : 0/0
  3365 ;;		On exit  : 0/0
  3366 ;;		Unchanged: 0/0
  3367 ;; Data sizes:     COMMON   BANK0   BANK1   BANK3   BANK2
  3368 ;;      Params:         4       0       0       0       0
  3369 ;;      Locals:         6       0       0       0       0
  3370 ;;      Temps:          4       0       0       0       0
  3371 ;;      Totals:        14       0       0       0       0
  3372 ;;Total ram usage:       14 bytes
  3373 ;; Hardware stack levels used: 1
  3374 ;; This function calls:
  3375 ;;		Nothing
  3376 ;; This function is called by:
  3377 ;;		_dist1
  3378 ;;		_dist2
  3379 ;;		_dist3
  3380 ;; This function uses a non-reentrant model
  3381 ;;
  3382                           
  3383  009A                     ___xxtofl:	
  3384                           ;psect for function ___xxtofl
  3385                           
  3386                           
  3387                           ;incstack = 0
  3388                           ; Regs used in ___xxtofl: [wreg+status,2+status,0]
  3389                           ;___xxtofl@sign stored from wreg
  3390  009A  00F8               	movwf	___xxtofl@sign
  3391  009B                     l1898:
  3392  009B  0878               	movf	___xxtofl@sign,w
  3393  009C  1903               	btfsc	3,2
  3394  009D  289F               	goto	u1691
  3395  009E  28A0               	goto	u1690
  3396  009F                     u1691:
  3397  009F  28B4               	goto	l1904
  3398  00A0                     u1690:
  3399  00A0                     l1900:
  3400  00A0  1FF3               	btfss	___xxtofl@val+3,7
  3401  00A1  28A3               	goto	u1701
  3402  00A2  28A4               	goto	u1700
  3403  00A3                     u1701:
  3404  00A3  28B4               	goto	l1904
  3405  00A4                     u1700:
  3406  00A4                     l1902:
  3407  00A4  0970               	comf	___xxtofl@val,w
  3408  00A5  00FA               	movwf	___xxtofl@arg
  3409  00A6  0971               	comf	___xxtofl@val+1,w
  3410  00A7  00FB               	movwf	___xxtofl@arg+1
  3411  00A8  0972               	comf	___xxtofl@val+2,w
  3412  00A9  00FC               	movwf	___xxtofl@arg+2
  3413  00AA  0973               	comf	___xxtofl@val+3,w
  3414  00AB  00FD               	movwf	___xxtofl@arg+3
  3415  00AC  0AFA               	incf	___xxtofl@arg,f
  3416  00AD  1903               	skipnz
  3417  00AE  0AFB               	incf	___xxtofl@arg+1,f
  3418  00AF  1903               	skipnz
  3419  00B0  0AFC               	incf	___xxtofl@arg+2,f
  3420  00B1  1903               	skipnz
  3421  00B2  0AFD               	incf	___xxtofl@arg+3,f
  3422  00B3  28BC               	goto	l779
  3423  00B4                     l1904:
  3424  00B4  0873               	movf	___xxtofl@val+3,w
  3425  00B5  00FD               	movwf	___xxtofl@arg+3
  3426  00B6  0872               	movf	___xxtofl@val+2,w
  3427  00B7  00FC               	movwf	___xxtofl@arg+2
  3428  00B8  0871               	movf	___xxtofl@val+1,w
  3429  00B9  00FB               	movwf	___xxtofl@arg+1
  3430  00BA  0870               	movf	___xxtofl@val,w
  3431  00BB  00FA               	movwf	___xxtofl@arg
  3432  00BC                     l779:
  3433  00BC  0873               	movf	___xxtofl@val+3,w
  3434  00BD  0472               	iorwf	___xxtofl@val+2,w
  3435  00BE  0471               	iorwf	___xxtofl@val+1,w
  3436  00BF  0470               	iorwf	___xxtofl@val,w
  3437  00C0  1D03               	skipz
  3438  00C1  28C3               	goto	u1711
  3439  00C2  28C4               	goto	u1710
  3440  00C3                     u1711:
  3441  00C3  28CD               	goto	l1910
  3442  00C4                     u1710:
  3443  00C4                     l1906:
  3444  00C4  3000               	movlw	0
  3445  00C5  00F3               	movwf	?___xxtofl+3
  3446  00C6  3000               	movlw	0
  3447  00C7  00F2               	movwf	?___xxtofl+2
  3448  00C8  3000               	movlw	0
  3449  00C9  00F1               	movwf	?___xxtofl+1
  3450  00CA  3000               	movlw	0
  3451  00CB  00F0               	movwf	?___xxtofl
  3452  00CC  2953               	goto	l781
  3453  00CD                     l1910:
  3454  00CD  3096               	movlw	150
  3455  00CE  00F4               	movwf	??___xxtofl
  3456  00CF  0874               	movf	??___xxtofl,w
  3457  00D0  00F9               	movwf	___xxtofl@exp
  3458  00D1  28DF               	goto	l1914
  3459  00D2                     l1912:
  3460  00D2  3001               	movlw	1
  3461  00D3  00F4               	movwf	??___xxtofl
  3462  00D4  0874               	movf	??___xxtofl,w
  3463  00D5  07F9               	addwf	___xxtofl@exp,f
  3464  00D6  3001               	movlw	1
  3465  00D7                     u1725:
  3466  00D7  1003               	clrc
  3467  00D8  0CFD               	rrf	___xxtofl@arg+3,f
  3468  00D9  0CFC               	rrf	___xxtofl@arg+2,f
  3469  00DA  0CFB               	rrf	___xxtofl@arg+1,f
  3470  00DB  0CFA               	rrf	___xxtofl@arg,f
  3471  00DC  3EFF               	addlw	-1
  3472  00DD  1D03               	skipz
  3473  00DE  28D7               	goto	u1725
  3474  00DF                     l1914:
  3475  00DF  30FE               	movlw	254
  3476  00E0  057D               	andwf	___xxtofl@arg+3,w
  3477  00E1  1D03               	btfss	3,2
  3478  00E2  28E4               	goto	u1731
  3479  00E3  28E5               	goto	u1730
  3480  00E4                     u1731:
  3481  00E4  28D2               	goto	l1912
  3482  00E5                     u1730:
  3483  00E5  2901               	goto	l785
  3484  00E6                     l1916:
  3485  00E6  3001               	movlw	1
  3486  00E7  00F4               	movwf	??___xxtofl
  3487  00E8  0874               	movf	??___xxtofl,w
  3488  00E9  07F9               	addwf	___xxtofl@exp,f
  3489  00EA                     l1918:
  3490  00EA  3001               	movlw	1
  3491  00EB  07FA               	addwf	___xxtofl@arg,f
  3492  00EC  3000               	movlw	0
  3493  00ED  1803               	skipnc
  3494  00EE  3001               	movlw	1
  3495  00EF  07FB               	addwf	___xxtofl@arg+1,f
  3496  00F0  3000               	movlw	0
  3497  00F1  1803               	skipnc
  3498  00F2  3001               	movlw	1
  3499  00F3  07FC               	addwf	___xxtofl@arg+2,f
  3500  00F4  3000               	movlw	0
  3501  00F5  1803               	skipnc
  3502  00F6  3001               	movlw	1
  3503  00F7  07FD               	addwf	___xxtofl@arg+3,f
  3504  00F8                     l1920:
  3505  00F8  3001               	movlw	1
  3506  00F9                     u1745:
  3507  00F9  1003               	clrc
  3508  00FA  0CFD               	rrf	___xxtofl@arg+3,f
  3509  00FB  0CFC               	rrf	___xxtofl@arg+2,f
  3510  00FC  0CFB               	rrf	___xxtofl@arg+1,f
  3511  00FD  0CFA               	rrf	___xxtofl@arg,f
  3512  00FE  3EFF               	addlw	-1
  3513  00FF  1D03               	skipz
  3514  0100  28F9               	goto	u1745
  3515  0101                     l785:
  3516  0101  30FF               	movlw	255
  3517  0102  057D               	andwf	___xxtofl@arg+3,w
  3518  0103  1D03               	btfss	3,2
  3519  0104  2906               	goto	u1751
  3520  0105  2907               	goto	u1750
  3521  0106                     u1751:
  3522  0106  28E6               	goto	l1916
  3523  0107                     u1750:
  3524  0107  2913               	goto	l1924
  3525  0108                     l1922:
  3526  0108  3001               	movlw	1
  3527  0109  02F9               	subwf	___xxtofl@exp,f
  3528  010A  3001               	movlw	1
  3529  010B  00F4               	movwf	??___xxtofl
  3530  010C                     u1765:
  3531  010C  1003               	clrc
  3532  010D  0DFA               	rlf	___xxtofl@arg,f
  3533  010E  0DFB               	rlf	___xxtofl@arg+1,f
  3534  010F  0DFC               	rlf	___xxtofl@arg+2,f
  3535  0110  0DFD               	rlf	___xxtofl@arg+3,f
  3536  0111  0BF4               	decfsz	??___xxtofl,f
  3537  0112  290C               	goto	u1765
  3538  0113                     l1924:
  3539  0113  1BFC               	btfsc	___xxtofl@arg+2,7
  3540  0114  2916               	goto	u1771
  3541  0115  2917               	goto	u1770
  3542  0116                     u1771:
  3543  0116  291D               	goto	l792
  3544  0117                     u1770:
  3545  0117                     l1926:
  3546  0117  3002               	movlw	2
  3547  0118  0279               	subwf	___xxtofl@exp,w
  3548  0119  1803               	skipnc
  3549  011A  291C               	goto	u1781
  3550  011B  291D               	goto	u1780
  3551  011C                     u1781:
  3552  011C  2908               	goto	l1922
  3553  011D                     u1780:
  3554  011D                     l792:
  3555  011D  1879               	btfsc	___xxtofl@exp,0
  3556  011E  2920               	goto	u1791
  3557  011F  2921               	goto	u1790
  3558  0120                     u1791:
  3559  0120  2929               	goto	l793
  3560  0121                     u1790:
  3561  0121                     l1928:
  3562  0121  30FF               	movlw	255
  3563  0122  05FA               	andwf	___xxtofl@arg,f
  3564  0123  30FF               	movlw	255
  3565  0124  05FB               	andwf	___xxtofl@arg+1,f
  3566  0125  307F               	movlw	127
  3567  0126  05FC               	andwf	___xxtofl@arg+2,f
  3568  0127  30FF               	movlw	255
  3569  0128  05FD               	andwf	___xxtofl@arg+3,f
  3570  0129                     l793:
  3571  0129  1003               	clrc
  3572  012A  0CF9               	rrf	___xxtofl@exp,f
  3573  012B                     l1930:
  3574  012B  0879               	movf	___xxtofl@exp,w
  3575  012C  00F4               	movwf	??___xxtofl
  3576  012D  01F5               	clrf	??___xxtofl+1
  3577  012E  01F6               	clrf	??___xxtofl+2
  3578  012F  01F7               	clrf	??___xxtofl+3
  3579  0130  3018               	movlw	24
  3580  0131                     u1805:
  3581  0131  1003               	clrc
  3582  0132  0DF4               	rlf	??___xxtofl,f
  3583  0133  0DF5               	rlf	??___xxtofl+1,f
  3584  0134  0DF6               	rlf	??___xxtofl+2,f
  3585  0135  0DF7               	rlf	??___xxtofl+3,f
  3586  0136                     u1800:
  3587  0136  3EFF               	addlw	-1
  3588  0137  1D03               	skipz
  3589  0138  2931               	goto	u1805
  3590  0139  0874               	movf	??___xxtofl,w
  3591  013A  04FA               	iorwf	___xxtofl@arg,f
  3592  013B  0875               	movf	??___xxtofl+1,w
  3593  013C  04FB               	iorwf	___xxtofl@arg+1,f
  3594  013D  0876               	movf	??___xxtofl+2,w
  3595  013E  04FC               	iorwf	___xxtofl@arg+2,f
  3596  013F  0877               	movf	??___xxtofl+3,w
  3597  0140  04FD               	iorwf	___xxtofl@arg+3,f
  3598  0141                     l1932:
  3599  0141  0878               	movf	___xxtofl@sign,w
  3600  0142  1903               	btfsc	3,2
  3601  0143  2945               	goto	u1811
  3602  0144  2946               	goto	u1810
  3603  0145                     u1811:
  3604  0145  294B               	goto	l1938
  3605  0146                     u1810:
  3606  0146                     l1934:
  3607  0146  1FF3               	btfss	___xxtofl@val+3,7
  3608  0147  2949               	goto	u1821
  3609  0148  294A               	goto	u1820
  3610  0149                     u1821:
  3611  0149  294B               	goto	l1938
  3612  014A                     u1820:
  3613  014A                     l1936:
  3614  014A  17FD               	bsf	___xxtofl@arg+3,7
  3615  014B                     l1938:
  3616  014B  087D               	movf	___xxtofl@arg+3,w
  3617  014C  00F3               	movwf	?___xxtofl+3
  3618  014D  087C               	movf	___xxtofl@arg+2,w
  3619  014E  00F2               	movwf	?___xxtofl+2
  3620  014F  087B               	movf	___xxtofl@arg+1,w
  3621  0150  00F1               	movwf	?___xxtofl+1
  3622  0151  087A               	movf	___xxtofl@arg,w
  3623  0152  00F0               	movwf	?___xxtofl
  3624  0153                     l781:
  3625  0153  0008               	return
  3626  0154                     __end_of___xxtofl:
  3627                           
  3628                           	psect	text9
  3629  0314                     __ptext9:	
  3630 ;; *************** function ___fldiv *****************
  3631 ;; Defined at:
  3632 ;;		line 8 in file "C:\Program Files\Microchip\xc8\v2.36\pic\sources\c90\common\sprcdiv.c"
  3633 ;; Parameters:    Size  Location     Type
  3634 ;;  a               4    0[BANK0 ] unsigned char 
  3635 ;;  b               4    4[BANK0 ] unsigned char 
  3636 ;; Auto vars:     Size  Location     Type
  3637 ;;  grs             4   20[BANK0 ] unsigned long 
  3638 ;;  rem             4   13[BANK0 ] unsigned long 
  3639 ;;  new_exp         2   18[BANK0 ] int 
  3640 ;;  aexp            1   25[BANK0 ] unsigned char 
  3641 ;;  bexp            1   24[BANK0 ] unsigned char 
  3642 ;;  sign            1   17[BANK0 ] unsigned char 
  3643 ;; Return value:  Size  Location     Type
  3644 ;;                  4    0[BANK0 ] unsigned char 
  3645 ;; Registers used:
  3646 ;;		wreg, status,2, status,0, btemp+1
  3647 ;; Tracked objects:
  3648 ;;		On entry : 0/0
  3649 ;;		On exit  : 0/0
  3650 ;;		Unchanged: 0/0
  3651 ;; Data sizes:     COMMON   BANK0   BANK1   BANK3   BANK2
  3652 ;;      Params:         0       8       0       0       0
  3653 ;;      Locals:         0      13       0       0       0
  3654 ;;      Temps:          0       5       0       0       0
  3655 ;;      Totals:         0      26       0       0       0
  3656 ;;Total ram usage:       26 bytes
  3657 ;; Hardware stack levels used: 1
  3658 ;; This function calls:
  3659 ;;		Nothing
  3660 ;; This function is called by:
  3661 ;;		_dist1
  3662 ;;		_dist2
  3663 ;;		_dist3
  3664 ;; This function uses a non-reentrant model
  3665 ;;
  3666                           
  3667  0314                     ___fldiv:	
  3668                           ;psect for function ___fldiv
  3669                           
  3670  0314                     l1756:	
  3671                           ;incstack = 0
  3672                           ; Regs used in ___fldiv: [wreg+status,2+status,0+btemp+1]
  3673                           
  3674  0314  1283               	bcf	3,5	;RP0=0, select bank0
  3675  0315  1303               	bcf	3,6	;RP1=0, select bank0
  3676  0316  0827               	movf	___fldiv@b+3,w
  3677  0317  3980               	andlw	128
  3678  0318  00A8               	movwf	??___fldiv
  3679  0319  0828               	movf	??___fldiv,w
  3680  031A  00B1               	movwf	___fldiv@sign
  3681  031B                     l1758:
  3682  031B  0827               	movf	___fldiv@b+3,w
  3683  031C  00A8               	movwf	??___fldiv
  3684  031D  0728               	addwf	??___fldiv,w
  3685  031E  00A9               	movwf	??___fldiv+1
  3686  031F  0829               	movf	??___fldiv+1,w
  3687  0320  00B8               	movwf	___fldiv@bexp
  3688  0321                     l1760:
  3689  0321  1FA6               	btfss	___fldiv@b+2,7
  3690  0322  2B24               	goto	u1401
  3691  0323  2B25               	goto	u1400
  3692  0324                     u1401:
  3693  0324  2B26               	goto	l1764
  3694  0325                     u1400:
  3695  0325                     l1762:
  3696  0325  1438               	bsf	___fldiv@bexp,0
  3697  0326                     l1764:
  3698  0326  0838               	movf	___fldiv@bexp,w
  3699  0327  1903               	btfsc	3,2
  3700  0328  2B2A               	goto	u1411
  3701  0329  2B2B               	goto	u1410
  3702  032A                     u1411:
  3703  032A  2B3B               	goto	l1774
  3704  032B                     u1410:
  3705  032B                     l1766:
  3706  032B  0A38               	incf	___fldiv@bexp,w
  3707  032C  1D03               	btfss	3,2
  3708  032D  2B2F               	goto	u1421
  3709  032E  2B30               	goto	u1420
  3710  032F                     u1421:
  3711  032F  2B38               	goto	l1770
  3712  0330                     u1420:
  3713  0330                     l1768:
  3714  0330  3000               	movlw	0
  3715  0331  00A7               	movwf	___fldiv@b+3
  3716  0332  3000               	movlw	0
  3717  0333  00A6               	movwf	___fldiv@b+2
  3718  0334  3000               	movlw	0
  3719  0335  00A5               	movwf	___fldiv@b+1
  3720  0336  3000               	movlw	0
  3721  0337  00A4               	movwf	___fldiv@b
  3722  0338                     l1770:
  3723  0338  17A6               	bsf	___fldiv@b+2,7
  3724  0339                     l1772:
  3725  0339  01A7               	clrf	___fldiv@b+3
  3726  033A  2B43               	goto	l1776
  3727  033B                     l1774:
  3728  033B  3000               	movlw	0
  3729  033C  00A7               	movwf	___fldiv@b+3
  3730  033D  3000               	movlw	0
  3731  033E  00A6               	movwf	___fldiv@b+2
  3732  033F  3000               	movlw	0
  3733  0340  00A5               	movwf	___fldiv@b+1
  3734  0341  3000               	movlw	0
  3735  0342  00A4               	movwf	___fldiv@b
  3736  0343                     l1776:
  3737  0343  0823               	movf	___fldiv@a+3,w
  3738  0344  3980               	andlw	128
  3739  0345  00A8               	movwf	??___fldiv
  3740  0346  0828               	movf	??___fldiv,w
  3741  0347  06B1               	xorwf	___fldiv@sign,f
  3742  0348                     l1778:
  3743  0348  0823               	movf	___fldiv@a+3,w
  3744  0349  00A8               	movwf	??___fldiv
  3745  034A  0728               	addwf	??___fldiv,w
  3746  034B  00A9               	movwf	??___fldiv+1
  3747  034C  0829               	movf	??___fldiv+1,w
  3748  034D  00B9               	movwf	___fldiv@aexp
  3749  034E                     l1780:
  3750  034E  1FA2               	btfss	___fldiv@a+2,7
  3751  034F  2B51               	goto	u1431
  3752  0350  2B52               	goto	u1430
  3753  0351                     u1431:
  3754  0351  2B53               	goto	l1784
  3755  0352                     u1430:
  3756  0352                     l1782:
  3757  0352  1439               	bsf	___fldiv@aexp,0
  3758  0353                     l1784:
  3759  0353  0839               	movf	___fldiv@aexp,w
  3760  0354  1903               	btfsc	3,2
  3761  0355  2B57               	goto	u1441
  3762  0356  2B58               	goto	u1440
  3763  0357                     u1441:
  3764  0357  2B68               	goto	l1794
  3765  0358                     u1440:
  3766  0358                     l1786:
  3767  0358  0A39               	incf	___fldiv@aexp,w
  3768  0359  1D03               	btfss	3,2
  3769  035A  2B5C               	goto	u1451
  3770  035B  2B5D               	goto	u1450
  3771  035C                     u1451:
  3772  035C  2B65               	goto	l1790
  3773  035D                     u1450:
  3774  035D                     l1788:
  3775  035D  3000               	movlw	0
  3776  035E  00A3               	movwf	___fldiv@a+3
  3777  035F  3000               	movlw	0
  3778  0360  00A2               	movwf	___fldiv@a+2
  3779  0361  3000               	movlw	0
  3780  0362  00A1               	movwf	___fldiv@a+1
  3781  0363  3000               	movlw	0
  3782  0364  00A0               	movwf	___fldiv@a
  3783  0365                     l1790:
  3784  0365  17A2               	bsf	___fldiv@a+2,7
  3785  0366                     l1792:
  3786  0366  01A3               	clrf	___fldiv@a+3
  3787  0367  2B70               	goto	l695
  3788  0368                     l1794:
  3789  0368  3000               	movlw	0
  3790  0369  00A3               	movwf	___fldiv@a+3
  3791  036A  3000               	movlw	0
  3792  036B  00A2               	movwf	___fldiv@a+2
  3793  036C  3000               	movlw	0
  3794  036D  00A1               	movwf	___fldiv@a+1
  3795  036E  3000               	movlw	0
  3796  036F  00A0               	movwf	___fldiv@a
  3797  0370                     l695:
  3798  0370  0823               	movf	___fldiv@a+3,w
  3799  0371  0422               	iorwf	___fldiv@a+2,w
  3800  0372  0421               	iorwf	___fldiv@a+1,w
  3801  0373  0420               	iorwf	___fldiv@a,w
  3802  0374  1D03               	skipz
  3803  0375  2B77               	goto	u1461
  3804  0376  2B78               	goto	u1460
  3805  0377                     u1461:
  3806  0377  2B91               	goto	l1804
  3807  0378                     u1460:
  3808  0378                     l1796:
  3809  0378  3000               	movlw	0
  3810  0379  00A7               	movwf	___fldiv@b+3
  3811  037A  3000               	movlw	0
  3812  037B  00A6               	movwf	___fldiv@b+2
  3813  037C  3000               	movlw	0
  3814  037D  00A5               	movwf	___fldiv@b+1
  3815  037E  3000               	movlw	0
  3816  037F  00A4               	movwf	___fldiv@b
  3817  0380  3080               	movlw	128
  3818  0381  04A6               	iorwf	___fldiv@b+2,f
  3819  0382  307F               	movlw	127
  3820  0383  04A7               	iorwf	___fldiv@b+3,f
  3821  0384                     l1798:
  3822  0384  0831               	movf	___fldiv@sign,w
  3823  0385  00A8               	movwf	??___fldiv
  3824  0386  0828               	movf	??___fldiv,w
  3825  0387  04A7               	iorwf	___fldiv@b+3,f
  3826  0388                     l1800:
  3827  0388  0827               	movf	___fldiv@b+3,w
  3828  0389  00A3               	movwf	?___fldiv+3
  3829  038A  0826               	movf	___fldiv@b+2,w
  3830  038B  00A2               	movwf	?___fldiv+2
  3831  038C  0825               	movf	___fldiv@b+1,w
  3832  038D  00A1               	movwf	?___fldiv+1
  3833  038E  0824               	movf	___fldiv@b,w
  3834  038F  00A0               	movwf	?___fldiv
  3835  0390  2CF0               	goto	l697
  3836  0391                     l1804:
  3837  0391  0838               	movf	___fldiv@bexp,w
  3838  0392  1D03               	btfss	3,2
  3839  0393  2B95               	goto	u1471
  3840  0394  2B96               	goto	u1470
  3841  0395                     u1471:
  3842  0395  2B9F               	goto	l1810
  3843  0396                     u1470:
  3844  0396                     l1806:
  3845  0396  3000               	movlw	0
  3846  0397  00A3               	movwf	?___fldiv+3
  3847  0398  3000               	movlw	0
  3848  0399  00A2               	movwf	?___fldiv+2
  3849  039A  3000               	movlw	0
  3850  039B  00A1               	movwf	?___fldiv+1
  3851  039C  3000               	movlw	0
  3852  039D  00A0               	movwf	?___fldiv
  3853  039E  2CF0               	goto	l697
  3854  039F                     l1810:
  3855  039F  0838               	movf	___fldiv@bexp,w
  3856  03A0  00A8               	movwf	??___fldiv
  3857  03A1  01A9               	clrf	??___fldiv+1
  3858  03A2  0829               	movf	??___fldiv+1,w
  3859  03A3  00AB               	movwf	??___fldiv+3
  3860  03A4  0839               	movf	___fldiv@aexp,w
  3861  03A5  0228               	subwf	??___fldiv,w
  3862  03A6  00AA               	movwf	??___fldiv+2
  3863  03A7  1C03               	skipc
  3864  03A8  03AB               	decf	??___fldiv+3,f
  3865  03A9  082A               	movf	??___fldiv+2,w
  3866  03AA  3E7F               	addlw	127
  3867  03AB  00B2               	movwf	___fldiv@new_exp
  3868  03AC  082B               	movf	??___fldiv+3,w
  3869  03AD  1803               	skipnc
  3870  03AE  3E01               	addlw	1
  3871  03AF  3E00               	addlw	0
  3872  03B0  00B3               	movwf	___fldiv@new_exp+1
  3873  03B1                     l1812:
  3874  03B1  0827               	movf	___fldiv@b+3,w
  3875  03B2  00B0               	movwf	___fldiv@rem+3
  3876  03B3  0826               	movf	___fldiv@b+2,w
  3877  03B4  00AF               	movwf	___fldiv@rem+2
  3878  03B5  0825               	movf	___fldiv@b+1,w
  3879  03B6  00AE               	movwf	___fldiv@rem+1
  3880  03B7  0824               	movf	___fldiv@b,w
  3881  03B8  00AD               	movwf	___fldiv@rem
  3882  03B9                     l1814:
  3883  03B9  3000               	movlw	0
  3884  03BA  00A7               	movwf	___fldiv@b+3
  3885  03BB  3000               	movlw	0
  3886  03BC  00A6               	movwf	___fldiv@b+2
  3887  03BD  3000               	movlw	0
  3888  03BE  00A5               	movwf	___fldiv@b+1
  3889  03BF  3000               	movlw	0
  3890  03C0  00A4               	movwf	___fldiv@b
  3891  03C1                     l1816:
  3892  03C1  3000               	movlw	0
  3893  03C2  00B7               	movwf	___fldiv@grs+3
  3894  03C3  3000               	movlw	0
  3895  03C4  00B6               	movwf	___fldiv@grs+2
  3896  03C5  3000               	movlw	0
  3897  03C6  00B5               	movwf	___fldiv@grs+1
  3898  03C7  3000               	movlw	0
  3899  03C8  00B4               	movwf	___fldiv@grs
  3900  03C9                     l1818:
  3901  03C9  01B9               	clrf	___fldiv@aexp
  3902  03CA  2C15               	goto	l1838
  3903  03CB                     l1820:
  3904  03CB  0839               	movf	___fldiv@aexp,w
  3905  03CC  1903               	btfsc	3,2
  3906  03CD  2BCF               	goto	u1481
  3907  03CE  2BD0               	goto	u1480
  3908  03CF                     u1481:
  3909  03CF  2BF0               	goto	l1830
  3910  03D0                     u1480:
  3911  03D0                     l1822:
  3912  03D0  3001               	movlw	1
  3913  03D1  00A8               	movwf	??___fldiv
  3914  03D2                     u1495:
  3915  03D2  1003               	clrc
  3916  03D3  0DAD               	rlf	___fldiv@rem,f
  3917  03D4  0DAE               	rlf	___fldiv@rem+1,f
  3918  03D5  0DAF               	rlf	___fldiv@rem+2,f
  3919  03D6  0DB0               	rlf	___fldiv@rem+3,f
  3920  03D7  0BA8               	decfsz	??___fldiv,f
  3921  03D8  2BD2               	goto	u1495
  3922  03D9  3001               	movlw	1
  3923  03DA  00A8               	movwf	??___fldiv
  3924  03DB                     u1505:
  3925  03DB  1003               	clrc
  3926  03DC  0DA4               	rlf	___fldiv@b,f
  3927  03DD  0DA5               	rlf	___fldiv@b+1,f
  3928  03DE  0DA6               	rlf	___fldiv@b+2,f
  3929  03DF  0DA7               	rlf	___fldiv@b+3,f
  3930  03E0  0BA8               	decfsz	??___fldiv,f
  3931  03E1  2BDB               	goto	u1505
  3932  03E2                     l1824:
  3933  03E2  1FB7               	btfss	___fldiv@grs+3,7
  3934  03E3  2BE5               	goto	u1511
  3935  03E4  2BE6               	goto	u1510
  3936  03E5                     u1511:
  3937  03E5  2BE7               	goto	l1828
  3938  03E6                     u1510:
  3939  03E6                     l1826:
  3940  03E6  1424               	bsf	___fldiv@b,0
  3941  03E7                     l1828:
  3942  03E7  3001               	movlw	1
  3943  03E8  00A8               	movwf	??___fldiv
  3944  03E9                     u1525:
  3945  03E9  1003               	clrc
  3946  03EA  0DB4               	rlf	___fldiv@grs,f
  3947  03EB  0DB5               	rlf	___fldiv@grs+1,f
  3948  03EC  0DB6               	rlf	___fldiv@grs+2,f
  3949  03ED  0DB7               	rlf	___fldiv@grs+3,f
  3950  03EE  0BA8               	decfsz	??___fldiv,f
  3951  03EF  2BE9               	goto	u1525
  3952  03F0                     l1830:
  3953  03F0  0823               	movf	___fldiv@a+3,w
  3954  03F1  0230               	subwf	___fldiv@rem+3,w
  3955  03F2  1D03               	skipz
  3956  03F3  2BFE               	goto	u1535
  3957  03F4  0822               	movf	___fldiv@a+2,w
  3958  03F5  022F               	subwf	___fldiv@rem+2,w
  3959  03F6  1D03               	skipz
  3960  03F7  2BFE               	goto	u1535
  3961  03F8  0821               	movf	___fldiv@a+1,w
  3962  03F9  022E               	subwf	___fldiv@rem+1,w
  3963  03FA  1D03               	skipz
  3964  03FB  2BFE               	goto	u1535
  3965  03FC  0820               	movf	___fldiv@a,w
  3966  03FD  022D               	subwf	___fldiv@rem,w
  3967  03FE                     u1535:
  3968  03FE  1C03               	skipc
  3969  03FF  2C01               	goto	u1531
  3970  0400  2C02               	goto	u1530
  3971  0401                     u1531:
  3972  0401  2C11               	goto	l1836
  3973  0402                     u1530:
  3974  0402                     l1832:
  3975  0402  1737               	bsf	___fldiv@grs+3,6
  3976  0403                     l1834:
  3977  0403  0820               	movf	___fldiv@a,w
  3978  0404  02AD               	subwf	___fldiv@rem,f
  3979  0405  0821               	movf	___fldiv@a+1,w
  3980  0406  1C03               	skipc
  3981  0407  0F21               	incfsz	___fldiv@a+1,w
  3982  0408  02AE               	subwf	___fldiv@rem+1,f
  3983  0409  0822               	movf	___fldiv@a+2,w
  3984  040A  1C03               	skipc
  3985  040B  0F22               	incfsz	___fldiv@a+2,w
  3986  040C  02AF               	subwf	___fldiv@rem+2,f
  3987  040D  0823               	movf	___fldiv@a+3,w
  3988  040E  1C03               	skipc
  3989  040F  0F23               	incfsz	___fldiv@a+3,w
  3990  0410  02B0               	subwf	___fldiv@rem+3,f
  3991  0411                     l1836:
  3992  0411  3001               	movlw	1
  3993  0412  00A8               	movwf	??___fldiv
  3994  0413  0828               	movf	??___fldiv,w
  3995  0414  07B9               	addwf	___fldiv@aexp,f
  3996  0415                     l1838:
  3997  0415  301A               	movlw	26
  3998  0416  0239               	subwf	___fldiv@aexp,w
  3999  0417  1C03               	skipc
  4000  0418  2C1A               	goto	u1541
  4001  0419  2C1B               	goto	u1540
  4002  041A                     u1541:
  4003  041A  2BCB               	goto	l1820
  4004  041B                     u1540:
  4005  041B                     l1840:
  4006  041B  0830               	movf	___fldiv@rem+3,w
  4007  041C  042F               	iorwf	___fldiv@rem+2,w
  4008  041D  042E               	iorwf	___fldiv@rem+1,w
  4009  041E  042D               	iorwf	___fldiv@rem,w
  4010  041F  1903               	skipnz
  4011  0420  2C22               	goto	u1551
  4012  0421  2C23               	goto	u1550
  4013  0422                     u1551:
  4014  0422  2C42               	goto	l1854
  4015  0423                     u1550:
  4016  0423                     l1842:
  4017  0423  1434               	bsf	___fldiv@grs,0
  4018  0424  2C42               	goto	l1854
  4019  0425                     l1844:
  4020  0425  3001               	movlw	1
  4021  0426  00A8               	movwf	??___fldiv
  4022  0427                     u1565:
  4023  0427  1003               	clrc
  4024  0428  0DA4               	rlf	___fldiv@b,f
  4025  0429  0DA5               	rlf	___fldiv@b+1,f
  4026  042A  0DA6               	rlf	___fldiv@b+2,f
  4027  042B  0DA7               	rlf	___fldiv@b+3,f
  4028  042C  0BA8               	decfsz	??___fldiv,f
  4029  042D  2C27               	goto	u1565
  4030  042E                     l1846:
  4031  042E  1FB7               	btfss	___fldiv@grs+3,7
  4032  042F  2C31               	goto	u1571
  4033  0430  2C32               	goto	u1570
  4034  0431                     u1571:
  4035  0431  2C33               	goto	l1850
  4036  0432                     u1570:
  4037  0432                     l1848:
  4038  0432  1424               	bsf	___fldiv@b,0
  4039  0433                     l1850:
  4040  0433  3001               	movlw	1
  4041  0434  00A8               	movwf	??___fldiv
  4042  0435                     u1585:
  4043  0435  1003               	clrc
  4044  0436  0DB4               	rlf	___fldiv@grs,f
  4045  0437  0DB5               	rlf	___fldiv@grs+1,f
  4046  0438  0DB6               	rlf	___fldiv@grs+2,f
  4047  0439  0DB7               	rlf	___fldiv@grs+3,f
  4048  043A  0BA8               	decfsz	??___fldiv,f
  4049  043B  2C35               	goto	u1585
  4050  043C                     l1852:
  4051  043C  30FF               	movlw	255
  4052  043D  07B2               	addwf	___fldiv@new_exp,f
  4053  043E  1803               	skipnc
  4054  043F  0AB3               	incf	___fldiv@new_exp+1,f
  4055  0440  30FF               	movlw	255
  4056  0441  07B3               	addwf	___fldiv@new_exp+1,f
  4057  0442                     l1854:
  4058  0442  1FA6               	btfss	___fldiv@b+2,7
  4059  0443  2C45               	goto	u1591
  4060  0444  2C46               	goto	u1590
  4061  0445                     u1591:
  4062  0445  2C25               	goto	l1844
  4063  0446                     u1590:
  4064  0446                     l1856:
  4065  0446  01B9               	clrf	___fldiv@aexp
  4066  0447                     l1858:
  4067  0447  1FB7               	btfss	___fldiv@grs+3,7
  4068  0448  2C4A               	goto	u1601
  4069  0449  2C4B               	goto	u1600
  4070  044A                     u1601:
  4071  044A  2C67               	goto	l1866
  4072  044B                     u1600:
  4073  044B                     l1860:
  4074  044B  30FF               	movlw	255
  4075  044C  0534               	andwf	___fldiv@grs,w
  4076  044D  00A8               	movwf	??___fldiv
  4077  044E  30FF               	movlw	255
  4078  044F  0535               	andwf	___fldiv@grs+1,w
  4079  0450  00A9               	movwf	??___fldiv+1
  4080  0451  30FF               	movlw	255
  4081  0452  0536               	andwf	___fldiv@grs+2,w
  4082  0453  00AA               	movwf	??___fldiv+2
  4083  0454  307F               	movlw	127
  4084  0455  0537               	andwf	___fldiv@grs+3,w
  4085  0456  00AB               	movwf	??___fldiv+3
  4086  0457  082B               	movf	??___fldiv+3,w
  4087  0458  042A               	iorwf	??___fldiv+2,w
  4088  0459  0429               	iorwf	??___fldiv+1,w
  4089  045A  0428               	iorwf	??___fldiv,w
  4090  045B  1903               	skipnz
  4091  045C  2C5E               	goto	u1611
  4092  045D  2C5F               	goto	u1610
  4093  045E                     u1611:
  4094  045E  2C62               	goto	l711
  4095  045F                     u1610:
  4096  045F                     l1862:
  4097  045F  01B9               	clrf	___fldiv@aexp
  4098  0460  0AB9               	incf	___fldiv@aexp,f
  4099  0461  2C67               	goto	l1866
  4100  0462                     l711:
  4101  0462  1C24               	btfss	___fldiv@b,0
  4102  0463  2C65               	goto	u1621
  4103  0464  2C66               	goto	u1620
  4104  0465                     u1621:
  4105  0465  2C67               	goto	l1866
  4106  0466                     u1620:
  4107  0466  2C5F               	goto	l1862
  4108  0467                     l1866:
  4109  0467  0839               	movf	___fldiv@aexp,w
  4110  0468  1903               	btfsc	3,2
  4111  0469  2C6B               	goto	u1631
  4112  046A  2C6C               	goto	u1630
  4113  046B                     u1631:
  4114  046B  2C9D               	goto	l1876
  4115  046C                     u1630:
  4116  046C                     l1868:
  4117  046C  3001               	movlw	1
  4118  046D  07A4               	addwf	___fldiv@b,f
  4119  046E  3000               	movlw	0
  4120  046F  1803               	skipnc
  4121  0470  3001               	movlw	1
  4122  0471  07A5               	addwf	___fldiv@b+1,f
  4123  0472  3000               	movlw	0
  4124  0473  1803               	skipnc
  4125  0474  3001               	movlw	1
  4126  0475  07A6               	addwf	___fldiv@b+2,f
  4127  0476  3000               	movlw	0
  4128  0477  1803               	skipnc
  4129  0478  3001               	movlw	1
  4130  0479  07A7               	addwf	___fldiv@b+3,f
  4131  047A                     l1870:
  4132  047A  1C27               	btfss	___fldiv@b+3,0
  4133  047B  2C7D               	goto	u1641
  4134  047C  2C7E               	goto	u1640
  4135  047D                     u1641:
  4136  047D  2C9D               	goto	l1876
  4137  047E                     u1640:
  4138  047E                     l1872:
  4139  047E  0824               	movf	___fldiv@b,w
  4140  047F  00A8               	movwf	??___fldiv
  4141  0480  0825               	movf	___fldiv@b+1,w
  4142  0481  00A9               	movwf	??___fldiv+1
  4143  0482  0826               	movf	___fldiv@b+2,w
  4144  0483  00AA               	movwf	??___fldiv+2
  4145  0484  0827               	movf	___fldiv@b+3,w
  4146  0485  00AB               	movwf	??___fldiv+3
  4147  0486  3001               	movlw	1
  4148  0487  00AC               	movwf	??___fldiv+4
  4149  0488                     u1655:
  4150  0488  0D2B               	rlf	??___fldiv+3,w
  4151  0489  0CAB               	rrf	??___fldiv+3,f
  4152  048A  0CAA               	rrf	??___fldiv+2,f
  4153  048B  0CA9               	rrf	??___fldiv+1,f
  4154  048C  0CA8               	rrf	??___fldiv,f
  4155  048D                     u1650:
  4156  048D  0BAC               	decfsz	??___fldiv+4,f
  4157  048E  2C88               	goto	u1655
  4158  048F  082B               	movf	??___fldiv+3,w
  4159  0490  00A7               	movwf	___fldiv@b+3
  4160  0491  082A               	movf	??___fldiv+2,w
  4161  0492  00A6               	movwf	___fldiv@b+2
  4162  0493  0829               	movf	??___fldiv+1,w
  4163  0494  00A5               	movwf	___fldiv@b+1
  4164  0495  0828               	movf	??___fldiv,w
  4165  0496  00A4               	movwf	___fldiv@b
  4166  0497                     l1874:
  4167  0497  3001               	movlw	1
  4168  0498  07B2               	addwf	___fldiv@new_exp,f
  4169  0499  1803               	skipnc
  4170  049A  0AB3               	incf	___fldiv@new_exp+1,f
  4171  049B  3000               	movlw	0
  4172  049C  07B3               	addwf	___fldiv@new_exp+1,f
  4173  049D                     l1876:
  4174  049D  0833               	movf	___fldiv@new_exp+1,w
  4175  049E  3A80               	xorlw	128
  4176  049F  00FF               	movwf	btemp+1
  4177  04A0  3080               	movlw	128
  4178  04A1  027F               	subwf	btemp+1,w
  4179  04A2  1D03               	skipz
  4180  04A3  2CA6               	goto	u1665
  4181  04A4  30FF               	movlw	255
  4182  04A5  0232               	subwf	___fldiv@new_exp,w
  4183  04A6                     u1665:
  4184  04A6  1C03               	skipc
  4185  04A7  2CA9               	goto	u1661
  4186  04A8  2CAA               	goto	u1660
  4187  04A9                     u1661:
  4188  04A9  2CB8               	goto	l1880
  4189  04AA                     u1660:
  4190  04AA                     l1878:
  4191  04AA  30FF               	movlw	255
  4192  04AB  1283               	bcf	3,5	;RP0=0, select bank0
  4193  04AC  1303               	bcf	3,6	;RP1=0, select bank0
  4194  04AD  00B2               	movwf	___fldiv@new_exp
  4195  04AE  3000               	movlw	0
  4196  04AF  00B3               	movwf	___fldiv@new_exp+1
  4197  04B0  3000               	movlw	0
  4198  04B1  00A7               	movwf	___fldiv@b+3
  4199  04B2  3000               	movlw	0
  4200  04B3  00A6               	movwf	___fldiv@b+2
  4201  04B4  3000               	movlw	0
  4202  04B5  00A5               	movwf	___fldiv@b+1
  4203  04B6  3000               	movlw	0
  4204  04B7  00A4               	movwf	___fldiv@b
  4205  04B8                     l1880:
  4206  04B8  1283               	bcf	3,5	;RP0=0, select bank0
  4207  04B9  1303               	bcf	3,6	;RP1=0, select bank0
  4208  04BA  0833               	movf	___fldiv@new_exp+1,w
  4209  04BB  3A80               	xorlw	128
  4210  04BC  00FF               	movwf	btemp+1
  4211  04BD  3080               	movlw	128
  4212  04BE  027F               	subwf	btemp+1,w
  4213  04BF  1D03               	skipz
  4214  04C0  2CC3               	goto	u1675
  4215  04C1  3001               	movlw	1
  4216  04C2  0232               	subwf	___fldiv@new_exp,w
  4217  04C3                     u1675:
  4218  04C3  1803               	skipnc
  4219  04C4  2CC6               	goto	u1671
  4220  04C5  2CC7               	goto	u1670
  4221  04C6                     u1671:
  4222  04C6  2CD4               	goto	l717
  4223  04C7                     u1670:
  4224  04C7                     l1882:
  4225  04C7  1283               	bcf	3,5	;RP0=0, select bank0
  4226  04C8  1303               	bcf	3,6	;RP1=0, select bank0
  4227  04C9  01B2               	clrf	___fldiv@new_exp
  4228  04CA  01B3               	clrf	___fldiv@new_exp+1
  4229  04CB                     l1884:
  4230  04CB  3000               	movlw	0
  4231  04CC  00A7               	movwf	___fldiv@b+3
  4232  04CD  3000               	movlw	0
  4233  04CE  00A6               	movwf	___fldiv@b+2
  4234  04CF  3000               	movlw	0
  4235  04D0  00A5               	movwf	___fldiv@b+1
  4236  04D1  3000               	movlw	0
  4237  04D2  00A4               	movwf	___fldiv@b
  4238  04D3                     l1886:
  4239  04D3  01B1               	clrf	___fldiv@sign
  4240  04D4                     l717:
  4241  04D4  1283               	bcf	3,5	;RP0=0, select bank0
  4242  04D5  1303               	bcf	3,6	;RP1=0, select bank0
  4243  04D6  0832               	movf	___fldiv@new_exp,w
  4244  04D7  00A8               	movwf	??___fldiv
  4245  04D8  0828               	movf	??___fldiv,w
  4246  04D9  00B8               	movwf	___fldiv@bexp
  4247  04DA                     l1888:
  4248  04DA  1C38               	btfss	___fldiv@bexp,0
  4249  04DB  2CDD               	goto	u1681
  4250  04DC  2CDE               	goto	u1680
  4251  04DD                     u1681:
  4252  04DD  2CE0               	goto	l1892
  4253  04DE                     u1680:
  4254  04DE                     l1890:
  4255  04DE  17A6               	bsf	___fldiv@b+2,7
  4256  04DF  2CE4               	goto	l719
  4257  04E0                     l1892:
  4258  04E0  307F               	movlw	127
  4259  04E1  00A8               	movwf	??___fldiv
  4260  04E2  0828               	movf	??___fldiv,w
  4261  04E3  05A6               	andwf	___fldiv@b+2,f
  4262  04E4                     l719:
  4263  04E4  0838               	movf	___fldiv@bexp,w
  4264  04E5  00A8               	movwf	??___fldiv
  4265  04E6  1003               	clrc
  4266  04E7  0C28               	rrf	??___fldiv,w
  4267  04E8  00A9               	movwf	??___fldiv+1
  4268  04E9  0829               	movf	??___fldiv+1,w
  4269  04EA  00A7               	movwf	___fldiv@b+3
  4270  04EB  0831               	movf	___fldiv@sign,w
  4271  04EC  00A8               	movwf	??___fldiv
  4272  04ED  0828               	movf	??___fldiv,w
  4273  04EE  04A7               	iorwf	___fldiv@b+3,f
  4274  04EF  2B88               	goto	l1800
  4275  04F0                     l697:
  4276  04F0  0008               	return
  4277  04F1                     __end_of___fldiv:
  4278                           
  4279                           	psect	text10
  4280  0C8F                     __ptext10:	
  4281 ;; *************** function _broadcast_BT *****************
  4282 ;; Defined at:
  4283 ;;		line 38 in file "./BT.h"
  4284 ;; Parameters:    Size  Location     Type
  4285 ;;		None
  4286 ;; Auto vars:     Size  Location     Type
  4287 ;;		None
  4288 ;; Return value:  Size  Location     Type
  4289 ;;                  1    wreg      void 
  4290 ;; Registers used:
  4291 ;;		wreg
  4292 ;; Tracked objects:
  4293 ;;		On entry : 0/0
  4294 ;;		On exit  : 0/0
  4295 ;;		Unchanged: 0/0
  4296 ;; Data sizes:     COMMON   BANK0   BANK1   BANK3   BANK2
  4297 ;;      Params:         0       0       0       0       0
  4298 ;;      Locals:         0       0       0       0       0
  4299 ;;      Temps:          3       0       0       0       0
  4300 ;;      Totals:         3       0       0       0       0
  4301 ;;Total ram usage:        3 bytes
  4302 ;; Hardware stack levels used: 1
  4303 ;; This function calls:
  4304 ;;		Nothing
  4305 ;; This function is called by:
  4306 ;;		_main
  4307 ;; This function uses a non-reentrant model
  4308 ;;
  4309                           
  4310  0C8F                     _broadcast_BT:	
  4311                           ;psect for function _broadcast_BT
  4312                           
  4313  0C8F                     l2058:	
  4314                           ;incstack = 0
  4315                           ; Regs used in _broadcast_BT: [wreg]
  4316                           
  4317                           
  4318                           ;./BT.h: 39:   TXREG = 13;
  4319  0C8F  300D               	movlw	13
  4320  0C90  1283               	bcf	3,5	;RP0=0, select bank0
  4321  0C91  1303               	bcf	3,6	;RP1=0, select bank0
  4322  0C92  0099               	movwf	25	;volatile
  4323                           
  4324                           ;./BT.h: 40:   _delay((unsigned long)((300)*(4000000/4000.0)));
  4325  0C93  3002               	movlw	2
  4326  0C94  00F2               	movwf	??_broadcast_BT+2
  4327  0C95  3086               	movlw	134
  4328  0C96  00F1               	movwf	??_broadcast_BT+1
  4329  0C97  3099               	movlw	153
  4330  0C98  00F0               	movwf	??_broadcast_BT
  4331  0C99                     u2447:
  4332  0C99  0BF0               	decfsz	??_broadcast_BT,f
  4333  0C9A  2C99               	goto	u2447
  4334  0C9B  0BF1               	decfsz	??_broadcast_BT+1,f
  4335  0C9C  2C99               	goto	u2447
  4336  0C9D  0BF2               	decfsz	??_broadcast_BT+2,f
  4337  0C9E  2C99               	goto	u2447
  4338  0C9F                     l197:
  4339  0C9F  0008               	return
  4340  0CA0                     __end_of_broadcast_BT:
  4341                           
  4342                           	psect	text11
  4343  0F5E                     __ptext11:	
  4344 ;; *************** function ___flge *****************
  4345 ;; Defined at:
  4346 ;;		line 4 in file "C:\Program Files\Microchip\xc8\v2.36\pic\sources\c90\common\flge.c"
  4347 ;; Parameters:    Size  Location     Type
  4348 ;;  ff1             4    0[COMMON] void 
  4349 ;;  ff2             4    4[COMMON] void 
  4350 ;; Auto vars:     Size  Location     Type
  4351 ;;		None
  4352 ;; Return value:  Size  Location     Type
  4353 ;;		None               void
  4354 ;; Registers used:
  4355 ;;		wreg, status,2, status,0
  4356 ;; Tracked objects:
  4357 ;;		On entry : 0/0
  4358 ;;		On exit  : 0/0
  4359 ;;		Unchanged: 0/0
  4360 ;; Data sizes:     COMMON   BANK0   BANK1   BANK3   BANK2
  4361 ;;      Params:         8       0       0       0       0
  4362 ;;      Locals:         0       0       0       0       0
  4363 ;;      Temps:          4       0       0       0       0
  4364 ;;      Totals:        12       0       0       0       0
  4365 ;;Total ram usage:       12 bytes
  4366 ;; Hardware stack levels used: 1
  4367 ;; This function calls:
  4368 ;;		Nothing
  4369 ;; This function is called by:
  4370 ;;		_main
  4371 ;; This function uses a non-reentrant model
  4372 ;;
  4373                           
  4374  0F5E                     ___flge:	
  4375                           ;psect for function ___flge
  4376                           
  4377  0F5E                     l2214:	
  4378                           ;incstack = 0
  4379                           ; Regs used in ___flge: [wreg+status,2+status,0]
  4380                           
  4381  0F5E  3000               	movlw	0
  4382  0F5F  0570               	andwf	___flge@ff1,w
  4383  0F60  00F8               	movwf	??___flge
  4384  0F61  3000               	movlw	0
  4385  0F62  0571               	andwf	___flge@ff1+1,w
  4386  0F63  00F9               	movwf	??___flge+1
  4387  0F64  3080               	movlw	128
  4388  0F65  0572               	andwf	___flge@ff1+2,w
  4389  0F66  00FA               	movwf	??___flge+2
  4390  0F67  307F               	movlw	127
  4391  0F68  0573               	andwf	___flge@ff1+3,w
  4392  0F69  00FB               	movwf	??___flge+3
  4393  0F6A  087B               	movf	??___flge+3,w
  4394  0F6B  047A               	iorwf	??___flge+2,w
  4395  0F6C  0479               	iorwf	??___flge+1,w
  4396  0F6D  0478               	iorwf	??___flge,w
  4397  0F6E  1D03               	skipz
  4398  0F6F  2F71               	goto	u2211
  4399  0F70  2F72               	goto	u2210
  4400  0F71                     u2211:
  4401  0F71  2F7A               	goto	l520
  4402  0F72                     u2210:
  4403  0F72                     l2216:
  4404  0F72  3000               	movlw	0
  4405  0F73  00F3               	movwf	___flge@ff1+3
  4406  0F74  3000               	movlw	0
  4407  0F75  00F2               	movwf	___flge@ff1+2
  4408  0F76  3000               	movlw	0
  4409  0F77  00F1               	movwf	___flge@ff1+1
  4410  0F78  3000               	movlw	0
  4411  0F79  00F0               	movwf	___flge@ff1
  4412  0F7A                     l520:
  4413  0F7A  3000               	movlw	0
  4414  0F7B  0574               	andwf	___flge@ff2,w
  4415  0F7C  00F8               	movwf	??___flge
  4416  0F7D  3000               	movlw	0
  4417  0F7E  0575               	andwf	___flge@ff2+1,w
  4418  0F7F  00F9               	movwf	??___flge+1
  4419  0F80  3080               	movlw	128
  4420  0F81  0576               	andwf	___flge@ff2+2,w
  4421  0F82  00FA               	movwf	??___flge+2
  4422  0F83  307F               	movlw	127
  4423  0F84  0577               	andwf	___flge@ff2+3,w
  4424  0F85  00FB               	movwf	??___flge+3
  4425  0F86  087B               	movf	??___flge+3,w
  4426  0F87  047A               	iorwf	??___flge+2,w
  4427  0F88  0479               	iorwf	??___flge+1,w
  4428  0F89  0478               	iorwf	??___flge,w
  4429  0F8A  1D03               	skipz
  4430  0F8B  2F8D               	goto	u2221
  4431  0F8C  2F8E               	goto	u2220
  4432  0F8D                     u2221:
  4433  0F8D  2F96               	goto	l2220
  4434  0F8E                     u2220:
  4435  0F8E                     l2218:
  4436  0F8E  3000               	movlw	0
  4437  0F8F  00F7               	movwf	___flge@ff2+3
  4438  0F90  3000               	movlw	0
  4439  0F91  00F6               	movwf	___flge@ff2+2
  4440  0F92  3000               	movlw	0
  4441  0F93  00F5               	movwf	___flge@ff2+1
  4442  0F94  3000               	movlw	0
  4443  0F95  00F4               	movwf	___flge@ff2
  4444  0F96                     l2220:
  4445  0F96  1FF3               	btfss	___flge@ff1+3,7
  4446  0F97  2F99               	goto	u2231
  4447  0F98  2F9A               	goto	u2230
  4448  0F99                     u2231:
  4449  0F99  2FBE               	goto	l2224
  4450  0F9A                     u2230:
  4451  0F9A                     l2222:
  4452  0F9A  3000               	movlw	0
  4453  0F9B  00F8               	movwf	??___flge
  4454  0F9C  3000               	movlw	0
  4455  0F9D  00F9               	movwf	??___flge+1
  4456  0F9E  3000               	movlw	0
  4457  0F9F  00FA               	movwf	??___flge+2
  4458  0FA0  3080               	movlw	128
  4459  0FA1  00FB               	movwf	??___flge+3
  4460  0FA2  0870               	movf	___flge@ff1,w
  4461  0FA3  02F8               	subwf	??___flge,f
  4462  0FA4  0871               	movf	___flge@ff1+1,w
  4463  0FA5  1C03               	skipc
  4464  0FA6  0F71               	incfsz	___flge@ff1+1,w
  4465  0FA7  2FA9               	goto	u2241
  4466  0FA8  2FAA               	goto	u2242
  4467  0FA9                     u2241:
  4468  0FA9  02F9               	subwf	??___flge+1,f
  4469  0FAA                     u2242:
  4470  0FAA  0872               	movf	___flge@ff1+2,w
  4471  0FAB  1C03               	skipc
  4472  0FAC  0F72               	incfsz	___flge@ff1+2,w
  4473  0FAD  2FAF               	goto	u2243
  4474  0FAE  2FB0               	goto	u2244
  4475  0FAF                     u2243:
  4476  0FAF  02FA               	subwf	??___flge+2,f
  4477  0FB0                     u2244:
  4478  0FB0  0873               	movf	___flge@ff1+3,w
  4479  0FB1  1C03               	skipc
  4480  0FB2  0F73               	incfsz	___flge@ff1+3,w
  4481  0FB3  2FB5               	goto	u2245
  4482  0FB4  2FB6               	goto	u2246
  4483  0FB5                     u2245:
  4484  0FB5  02FB               	subwf	??___flge+3,f
  4485  0FB6                     u2246:
  4486  0FB6  087B               	movf	??___flge+3,w
  4487  0FB7  00F3               	movwf	___flge@ff1+3
  4488  0FB8  087A               	movf	??___flge+2,w
  4489  0FB9  00F2               	movwf	___flge@ff1+2
  4490  0FBA  0879               	movf	??___flge+1,w
  4491  0FBB  00F1               	movwf	___flge@ff1+1
  4492  0FBC  0878               	movf	??___flge,w
  4493  0FBD  00F0               	movwf	___flge@ff1
  4494  0FBE                     l2224:
  4495  0FBE  1FF7               	btfss	___flge@ff2+3,7
  4496  0FBF  2FC1               	goto	u2251
  4497  0FC0  2FC2               	goto	u2250
  4498  0FC1                     u2251:
  4499  0FC1  2FE6               	goto	l523
  4500  0FC2                     u2250:
  4501  0FC2                     l2226:
  4502  0FC2  3000               	movlw	0
  4503  0FC3  00F8               	movwf	??___flge
  4504  0FC4  3000               	movlw	0
  4505  0FC5  00F9               	movwf	??___flge+1
  4506  0FC6  3000               	movlw	0
  4507  0FC7  00FA               	movwf	??___flge+2
  4508  0FC8  3080               	movlw	128
  4509  0FC9  00FB               	movwf	??___flge+3
  4510  0FCA  0874               	movf	___flge@ff2,w
  4511  0FCB  02F8               	subwf	??___flge,f
  4512  0FCC  0875               	movf	___flge@ff2+1,w
  4513  0FCD  1C03               	skipc
  4514  0FCE  0F75               	incfsz	___flge@ff2+1,w
  4515  0FCF  2FD1               	goto	u2261
  4516  0FD0  2FD2               	goto	u2262
  4517  0FD1                     u2261:
  4518  0FD1  02F9               	subwf	??___flge+1,f
  4519  0FD2                     u2262:
  4520  0FD2  0876               	movf	___flge@ff2+2,w
  4521  0FD3  1C03               	skipc
  4522  0FD4  0F76               	incfsz	___flge@ff2+2,w
  4523  0FD5  2FD7               	goto	u2263
  4524  0FD6  2FD8               	goto	u2264
  4525  0FD7                     u2263:
  4526  0FD7  02FA               	subwf	??___flge+2,f
  4527  0FD8                     u2264:
  4528  0FD8  0877               	movf	___flge@ff2+3,w
  4529  0FD9  1C03               	skipc
  4530  0FDA  0F77               	incfsz	___flge@ff2+3,w
  4531  0FDB  2FDD               	goto	u2265
  4532  0FDC  2FDE               	goto	u2266
  4533  0FDD                     u2265:
  4534  0FDD  02FB               	subwf	??___flge+3,f
  4535  0FDE                     u2266:
  4536  0FDE  087B               	movf	??___flge+3,w
  4537  0FDF  00F7               	movwf	___flge@ff2+3
  4538  0FE0  087A               	movf	??___flge+2,w
  4539  0FE1  00F6               	movwf	___flge@ff2+2
  4540  0FE2  0879               	movf	??___flge+1,w
  4541  0FE3  00F5               	movwf	___flge@ff2+1
  4542  0FE4  0878               	movf	??___flge,w
  4543  0FE5  00F4               	movwf	___flge@ff2
  4544  0FE6                     l523:
  4545  0FE6  3080               	movlw	128
  4546  0FE7  06F3               	xorwf	___flge@ff1+3,f
  4547  0FE8  3080               	movlw	128
  4548  0FE9  06F7               	xorwf	___flge@ff2+3,f
  4549  0FEA  0877               	movf	___flge@ff2+3,w
  4550  0FEB  0273               	subwf	___flge@ff1+3,w
  4551  0FEC  1D03               	skipz
  4552  0FED  2FF8               	goto	u2275
  4553  0FEE  0876               	movf	___flge@ff2+2,w
  4554  0FEF  0272               	subwf	___flge@ff1+2,w
  4555  0FF0  1D03               	skipz
  4556  0FF1  2FF8               	goto	u2275
  4557  0FF2  0875               	movf	___flge@ff2+1,w
  4558  0FF3  0271               	subwf	___flge@ff1+1,w
  4559  0FF4  1D03               	skipz
  4560  0FF5  2FF8               	goto	u2275
  4561  0FF6  0874               	movf	___flge@ff2,w
  4562  0FF7  0270               	subwf	___flge@ff1,w
  4563  0FF8                     u2275:
  4564  0FF8  1803               	skipnc
  4565  0FF9  2FFB               	goto	u2271
  4566  0FFA  2FFC               	goto	u2270
  4567  0FFB                     u2271:
  4568  0FFB  2FFE               	goto	l2230
  4569  0FFC                     u2270:
  4570  0FFC                     l2228:
  4571  0FFC  1003               	clrc
  4572  0FFD  2FFF               	goto	l524
  4573  0FFE                     l2230:
  4574  0FFE  1403               	setc
  4575  0FFF                     l524:
  4576  0FFF  0008               	return
  4577  1000                     __end_of___flge:
  4578                           
  4579                           	psect	text12
  4580  0D1B                     __ptext12:	
  4581 ;; *************** function _LCD_string *****************
  4582 ;; Defined at:
  4583 ;;		line 46 in file "./LCD.h"
  4584 ;; Parameters:    Size  Location     Type
  4585 ;;  str             2    3[COMMON] PTR unsigned char 
  4586 ;;		 -> RAM(512), STR_5(2), STR_4(2), STR_3(2), 
  4587 ;;		 -> STR_2(15), STR_1(13), 
  4588 ;; Auto vars:     Size  Location     Type
  4589 ;;  i               2    5[COMMON] int 
  4590 ;; Return value:  Size  Location     Type
  4591 ;;                  1    wreg      void 
  4592 ;; Registers used:
  4593 ;;		wreg, fsr0l, fsr0h, status,2, status,0, btemp+1, pclath, cstack
  4594 ;; Tracked objects:
  4595 ;;		On entry : 0/0
  4596 ;;		On exit  : 0/0
  4597 ;;		Unchanged: 0/0
  4598 ;; Data sizes:     COMMON   BANK0   BANK1   BANK3   BANK2
  4599 ;;      Params:         2       0       0       0       0
  4600 ;;      Locals:         2       0       0       0       0
  4601 ;;      Temps:          0       0       0       0       0
  4602 ;;      Totals:         4       0       0       0       0
  4603 ;;Total ram usage:        4 bytes
  4604 ;; Hardware stack levels used: 1
  4605 ;; Hardware stack levels required when called: 1
  4606 ;; This function calls:
  4607 ;;		_LCD_Data
  4608 ;; This function is called by:
  4609 ;;		_main
  4610 ;; This function uses a non-reentrant model
  4611 ;;
  4612                           
  4613  0D1B                     _LCD_string:	
  4614                           ;psect for function _LCD_string
  4615                           
  4616  0D1B                     l2004:	
  4617                           ;incstack = 0
  4618                           ; Regs used in _LCD_string: [wreg-fsr0h+status,2+status,0+btemp+1+pclath+cstack]
  4619                           
  4620                           
  4621                           ;./LCD.h: 46: void LCD_string (unsigned char *str);./LCD.h: 47: {;./LCD.h: 48: int i;;./
      +                          LCD.h: 49: for(i=0;str[i]!='\0';i++)
  4622  0D1B  01F5               	clrf	LCD_string@i
  4623  0D1C  01F6               	clrf	LCD_string@i+1
  4624  0D1D  2D36               	goto	l2010
  4625  0D1E                     l2006:
  4626                           
  4627                           ;./LCD.h: 50:   LCD_Data(str[i]);
  4628  0D1E  0875               	movf	LCD_string@i,w
  4629  0D1F  0773               	addwf	LCD_string@str,w
  4630  0D20  0084               	movwf	4
  4631  0D21  0876               	movf	LCD_string@i+1,w
  4632  0D22  1803               	skipnc
  4633  0D23  0A76               	incf	LCD_string@i+1,w
  4634  0D24  0774               	addwf	LCD_string@str+1,w
  4635  0D25  00FF               	movwf	btemp+1
  4636  0D26  120A  118A  2003  120A  158A  	fcall	stringtab
  4637  0D2B  120A  158A  24C8  120A  158A  	fcall	_LCD_Data
  4638  0D30                     l2008:
  4639  0D30  3001               	movlw	1
  4640  0D31  07F5               	addwf	LCD_string@i,f
  4641  0D32  1803               	skipnc
  4642  0D33  0AF6               	incf	LCD_string@i+1,f
  4643  0D34  3000               	movlw	0
  4644  0D35  07F6               	addwf	LCD_string@i+1,f
  4645  0D36                     l2010:
  4646  0D36  0875               	movf	LCD_string@i,w
  4647  0D37  0773               	addwf	LCD_string@str,w
  4648  0D38  0084               	movwf	4
  4649  0D39  0876               	movf	LCD_string@i+1,w
  4650  0D3A  1803               	skipnc
  4651  0D3B  0A76               	incf	LCD_string@i+1,w
  4652  0D3C  0774               	addwf	LCD_string@str+1,w
  4653  0D3D  1283               	bcf	3,5	;RP0=0, select bank0
  4654  0D3E  1303               	bcf	3,6	;RP1=0, select bank0
  4655  0D3F  00FF               	movwf	btemp+1
  4656  0D40  120A  118A  2003  120A  158A  	fcall	stringtab
  4657  0D45  3A00               	xorlw	0
  4658  0D46  1D03               	skipz
  4659  0D47  2D49               	goto	u1891
  4660  0D48  2D4A               	goto	u1890
  4661  0D49                     u1891:
  4662  0D49  2D1E               	goto	l2006
  4663  0D4A                     u1890:
  4664  0D4A                     l164:
  4665  0D4A  0008               	return
  4666  0D4B                     __end_of_LCD_string:
  4667                           
  4668                           	psect	text13
  4669  0CC8                     __ptext13:	
  4670 ;; *************** function _LCD_Data *****************
  4671 ;; Defined at:
  4672 ;;		line 16 in file "./LCD.h"
  4673 ;; Parameters:    Size  Location     Type
  4674 ;;  data            1    wreg     unsigned char 
  4675 ;; Auto vars:     Size  Location     Type
  4676 ;;  data            1    2[COMMON] unsigned char 
  4677 ;; Return value:  Size  Location     Type
  4678 ;;                  1    wreg      void 
  4679 ;; Registers used:
  4680 ;;		wreg
  4681 ;; Tracked objects:
  4682 ;;		On entry : 0/0
  4683 ;;		On exit  : 0/0
  4684 ;;		Unchanged: 0/0
  4685 ;; Data sizes:     COMMON   BANK0   BANK1   BANK3   BANK2
  4686 ;;      Params:         0       0       0       0       0
  4687 ;;      Locals:         1       0       0       0       0
  4688 ;;      Temps:          2       0       0       0       0
  4689 ;;      Totals:         3       0       0       0       0
  4690 ;;Total ram usage:        3 bytes
  4691 ;; Hardware stack levels used: 1
  4692 ;; This function calls:
  4693 ;;		Nothing
  4694 ;; This function is called by:
  4695 ;;		_LCD_string
  4696 ;; This function uses a non-reentrant model
  4697 ;;
  4698                           
  4699  0CC8                     _LCD_Data:	
  4700                           ;psect for function _LCD_Data
  4701                           
  4702                           
  4703                           ;incstack = 0
  4704                           ; Regs used in _LCD_Data: [wreg]
  4705                           ;LCD_Data@data stored from wreg
  4706  0CC8  00F2               	movwf	LCD_Data@data
  4707  0CC9                     l1652:
  4708                           
  4709                           ;./LCD.h: 16: void LCD_Data(unsigned char data);./LCD.h: 17: {;./LCD.h: 18: PORTB = data
      +                          ;
  4710  0CC9  0872               	movf	LCD_Data@data,w
  4711  0CCA  1283               	bcf	3,5	;RP0=0, select bank0
  4712  0CCB  1303               	bcf	3,6	;RP1=0, select bank0
  4713  0CCC  0086               	movwf	6	;volatile
  4714  0CCD                     l1654:
  4715                           
  4716                           ;./LCD.h: 19: RC2 = 1 ;
  4717  0CCD  1507               	bsf	7,2	;volatile
  4718  0CCE                     l1656:
  4719                           
  4720                           ;./LCD.h: 20: RC3 = 0 ;
  4721  0CCE  1187               	bcf	7,3	;volatile
  4722  0CCF                     l1658:
  4723                           
  4724                           ;./LCD.h: 21: RD0 = 1;
  4725  0CCF  1408               	bsf	8,0	;volatile
  4726                           
  4727                           ;./LCD.h: 22: _delay((unsigned long)((5)*(4000000/4000.0)));
  4728  0CD0  3007               	movlw	7
  4729  0CD1  00F1               	movwf	??_LCD_Data+1
  4730  0CD2  307D               	movlw	125
  4731  0CD3  00F0               	movwf	??_LCD_Data
  4732  0CD4                     u2457:
  4733  0CD4  0BF0               	decfsz	??_LCD_Data,f
  4734  0CD5  2CD4               	goto	u2457
  4735  0CD6  0BF1               	decfsz	??_LCD_Data+1,f
  4736  0CD7  2CD4               	goto	u2457
  4737  0CD8                     l1660:
  4738                           
  4739                           ;./LCD.h: 23: RD0 = 0;
  4740  0CD8  1283               	bcf	3,5	;RP0=0, select bank0
  4741  0CD9  1303               	bcf	3,6	;RP1=0, select bank0
  4742  0CDA  1008               	bcf	8,0	;volatile
  4743  0CDB                     l152:
  4744  0CDB  0008               	return
  4745  0CDC                     __end_of_LCD_Data:
  4746                           
  4747                           	psect	text14
  4748  0CDC                     __ptext14:	
  4749 ;; *************** function _LCD_init *****************
  4750 ;; Defined at:
  4751 ;;		line 37 in file "./LCD.h"
  4752 ;; Parameters:    Size  Location     Type
  4753 ;;		None
  4754 ;; Auto vars:     Size  Location     Type
  4755 ;;		None
  4756 ;; Return value:  Size  Location     Type
  4757 ;;                  1    wreg      void 
  4758 ;; Registers used:
  4759 ;;		wreg, status,2, status,0, pclath, cstack
  4760 ;; Tracked objects:
  4761 ;;		On entry : 0/0
  4762 ;;		On exit  : 0/0
  4763 ;;		Unchanged: 0/0
  4764 ;; Data sizes:     COMMON   BANK0   BANK1   BANK3   BANK2
  4765 ;;      Params:         0       0       0       0       0
  4766 ;;      Locals:         0       0       0       0       0
  4767 ;;      Temps:          0       0       0       0       0
  4768 ;;      Totals:         0       0       0       0       0
  4769 ;;Total ram usage:        0 bytes
  4770 ;; Hardware stack levels used: 1
  4771 ;; Hardware stack levels required when called: 1
  4772 ;; This function calls:
  4773 ;;		_LCD_Command
  4774 ;; This function is called by:
  4775 ;;		_main
  4776 ;; This function uses a non-reentrant model
  4777 ;;
  4778                           
  4779  0CDC                     _LCD_init:	
  4780                           ;psect for function _LCD_init
  4781                           
  4782  0CDC                     l2002:	
  4783                           ;incstack = 0
  4784                           ; Regs used in _LCD_init: [wreg+status,2+status,0+pclath+cstack]
  4785                           
  4786                           
  4787                           ;./LCD.h: 39: LCD_Command(0x38);
  4788  0CDC  3038               	movlw	56
  4789  0CDD  120A  158A  24B4  120A  158A  	fcall	_LCD_Command
  4790                           
  4791                           ;./LCD.h: 40: LCD_Command(0x06);
  4792  0CE2  3006               	movlw	6
  4793  0CE3  120A  158A  24B4  120A  158A  	fcall	_LCD_Command
  4794                           
  4795                           ;./LCD.h: 41: LCD_Command(0x0C);
  4796  0CE8  300C               	movlw	12
  4797  0CE9  120A  158A  24B4  120A  158A  	fcall	_LCD_Command
  4798                           
  4799                           ;./LCD.h: 42: LCD_Command(0x01);
  4800  0CEE  3001               	movlw	1
  4801  0CEF  120A  158A  24B4  120A  158A  	fcall	_LCD_Command
  4802  0CF4                     l158:
  4803  0CF4  0008               	return
  4804  0CF5                     __end_of_LCD_init:
  4805                           
  4806                           	psect	text15
  4807  0C78                     __ptext15:	
  4808 ;; *************** function _LCD_Clear *****************
  4809 ;; Defined at:
  4810 ;;		line 81 in file "./LCD.h"
  4811 ;; Parameters:    Size  Location     Type
  4812 ;;		None
  4813 ;; Auto vars:     Size  Location     Type
  4814 ;;		None
  4815 ;; Return value:  Size  Location     Type
  4816 ;;                  1    wreg      void 
  4817 ;; Registers used:
  4818 ;;		wreg, status,2, status,0, pclath, cstack
  4819 ;; Tracked objects:
  4820 ;;		On entry : 0/0
  4821 ;;		On exit  : 0/0
  4822 ;;		Unchanged: 0/0
  4823 ;; Data sizes:     COMMON   BANK0   BANK1   BANK3   BANK2
  4824 ;;      Params:         0       0       0       0       0
  4825 ;;      Locals:         0       0       0       0       0
  4826 ;;      Temps:          0       0       0       0       0
  4827 ;;      Totals:         0       0       0       0       0
  4828 ;;Total ram usage:        0 bytes
  4829 ;; Hardware stack levels used: 1
  4830 ;; Hardware stack levels required when called: 1
  4831 ;; This function calls:
  4832 ;;		_LCD_Command
  4833 ;; This function is called by:
  4834 ;;		_main
  4835 ;; This function uses a non-reentrant model
  4836 ;;
  4837                           
  4838  0C78                     _LCD_Clear:	
  4839                           ;psect for function _LCD_Clear
  4840                           
  4841  0C78                     l2032:	
  4842                           ;incstack = 0
  4843                           ; Regs used in _LCD_Clear: [wreg+status,2+status,0+pclath+cstack]
  4844                           
  4845                           
  4846                           ;./LCD.h: 83: LCD_Command(0x01);
  4847  0C78  3001               	movlw	1
  4848  0C79  120A  158A  24B4  120A  158A  	fcall	_LCD_Command
  4849  0C7E                     l176:
  4850  0C7E  0008               	return
  4851  0C7F                     __end_of_LCD_Clear:
  4852                           
  4853                           	psect	text16
  4854  0CB4                     __ptext16:	
  4855 ;; *************** function _LCD_Command *****************
  4856 ;; Defined at:
  4857 ;;		line 27 in file "./LCD.h"
  4858 ;; Parameters:    Size  Location     Type
  4859 ;;  cmd             1    wreg     unsigned char 
  4860 ;; Auto vars:     Size  Location     Type
  4861 ;;  cmd             1    2[COMMON] unsigned char 
  4862 ;; Return value:  Size  Location     Type
  4863 ;;                  1    wreg      void 
  4864 ;; Registers used:
  4865 ;;		wreg
  4866 ;; Tracked objects:
  4867 ;;		On entry : 0/0
  4868 ;;		On exit  : 0/0
  4869 ;;		Unchanged: 0/0
  4870 ;; Data sizes:     COMMON   BANK0   BANK1   BANK3   BANK2
  4871 ;;      Params:         0       0       0       0       0
  4872 ;;      Locals:         1       0       0       0       0
  4873 ;;      Temps:          2       0       0       0       0
  4874 ;;      Totals:         3       0       0       0       0
  4875 ;;Total ram usage:        3 bytes
  4876 ;; Hardware stack levels used: 1
  4877 ;; This function calls:
  4878 ;;		Nothing
  4879 ;; This function is called by:
  4880 ;;		_LCD_init
  4881 ;;		_LCD_Clear
  4882 ;;		_main
  4883 ;; This function uses a non-reentrant model
  4884 ;;
  4885                           
  4886  0CB4                     _LCD_Command:	
  4887                           ;psect for function _LCD_Command
  4888                           
  4889                           
  4890                           ;incstack = 0
  4891                           ; Regs used in _LCD_Command: [wreg]
  4892                           ;LCD_Command@cmd stored from wreg
  4893  0CB4  00F2               	movwf	LCD_Command@cmd
  4894  0CB5                     l1662:
  4895                           
  4896                           ;./LCD.h: 27: void LCD_Command(unsigned char cmd);./LCD.h: 28: {;./LCD.h: 29: PORTB = cm
      +                          d;
  4897  0CB5  0872               	movf	LCD_Command@cmd,w
  4898  0CB6  1283               	bcf	3,5	;RP0=0, select bank0
  4899  0CB7  1303               	bcf	3,6	;RP1=0, select bank0
  4900  0CB8  0086               	movwf	6	;volatile
  4901  0CB9                     l1664:
  4902                           
  4903                           ;./LCD.h: 30: RC2 = 0 ;
  4904  0CB9  1107               	bcf	7,2	;volatile
  4905  0CBA                     l1666:
  4906                           
  4907                           ;./LCD.h: 31: RC3 = 0;
  4908  0CBA  1187               	bcf	7,3	;volatile
  4909  0CBB                     l1668:
  4910                           
  4911                           ;./LCD.h: 32: RD0 = 1 ;
  4912  0CBB  1408               	bsf	8,0	;volatile
  4913                           
  4914                           ;./LCD.h: 33: _delay((unsigned long)((5)*(4000000/4000.0)));
  4915  0CBC  3007               	movlw	7
  4916  0CBD  00F1               	movwf	??_LCD_Command+1
  4917  0CBE  307D               	movlw	125
  4918  0CBF  00F0               	movwf	??_LCD_Command
  4919  0CC0                     u2467:
  4920  0CC0  0BF0               	decfsz	??_LCD_Command,f
  4921  0CC1  2CC0               	goto	u2467
  4922  0CC2  0BF1               	decfsz	??_LCD_Command+1,f
  4923  0CC3  2CC0               	goto	u2467
  4924  0CC4                     l1670:
  4925                           
  4926                           ;./LCD.h: 34: RD0 = 0;
  4927  0CC4  1283               	bcf	3,5	;RP0=0, select bank0
  4928  0CC5  1303               	bcf	3,6	;RP1=0, select bank0
  4929  0CC6  1008               	bcf	8,0	;volatile
  4930  0CC7                     l155:
  4931  0CC7  0008               	return
  4932  0CC8                     __end_of_LCD_Command:
  4933                           
  4934                           	psect	text17
  4935  0CA0                     __ptext17:	
  4936 ;; *************** function _Initialize_Bluetooth *****************
  4937 ;; Defined at:
  4938 ;;		line 4 in file "./BT.h"
  4939 ;; Parameters:    Size  Location     Type
  4940 ;;		None
  4941 ;; Auto vars:     Size  Location     Type
  4942 ;;		None
  4943 ;; Return value:  Size  Location     Type
  4944 ;;                  1    wreg      void 
  4945 ;; Registers used:
  4946 ;;		wreg
  4947 ;; Tracked objects:
  4948 ;;		On entry : 0/0
  4949 ;;		On exit  : 0/0
  4950 ;;		Unchanged: 0/0
  4951 ;; Data sizes:     COMMON   BANK0   BANK1   BANK3   BANK2
  4952 ;;      Params:         0       0       0       0       0
  4953 ;;      Locals:         0       0       0       0       0
  4954 ;;      Temps:          0       0       0       0       0
  4955 ;;      Totals:         0       0       0       0       0
  4956 ;;Total ram usage:        0 bytes
  4957 ;; Hardware stack levels used: 1
  4958 ;; This function calls:
  4959 ;;		Nothing
  4960 ;; This function is called by:
  4961 ;;		_main
  4962 ;; This function uses a non-reentrant model
  4963 ;;
  4964                           
  4965  0CA0                     _Initialize_Bluetooth:	
  4966                           ;psect for function _Initialize_Bluetooth
  4967                           
  4968  0CA0                     l2034:	
  4969                           ;incstack = 0
  4970                           ; Regs used in _Initialize_Bluetooth: [wreg]
  4971                           
  4972                           
  4973                           ;./BT.h: 5:     TRISC6=1;
  4974  0CA0  1683               	bsf	3,5	;RP0=1, select bank1
  4975  0CA1  1303               	bcf	3,6	;RP1=0, select bank1
  4976  0CA2  1707               	bsf	7,6	;volatile
  4977                           
  4978                           ;./BT.h: 6:     TRISC7=1;
  4979  0CA3  1787               	bsf	7,7	;volatile
  4980                           
  4981                           ;./BT.h: 8:     BRGH=1;
  4982  0CA4  1518               	bsf	24,2	;volatile
  4983  0CA5                     l2036:
  4984                           
  4985                           ;./BT.h: 9:     SPBRG=25;
  4986  0CA5  3019               	movlw	25
  4987  0CA6  0099               	movwf	25	;volatile
  4988  0CA7                     l2038:
  4989                           
  4990                           ;./BT.h: 11:     SYNC=0;
  4991  0CA7  1218               	bcf	24,4	;volatile
  4992  0CA8                     l2040:
  4993                           
  4994                           ;./BT.h: 12:     SPEN=1;
  4995  0CA8  1283               	bcf	3,5	;RP0=0, select bank0
  4996  0CA9  1303               	bcf	3,6	;RP1=0, select bank0
  4997  0CAA  1798               	bsf	24,7	;volatile
  4998  0CAB                     l2042:
  4999                           
  5000                           ;./BT.h: 14:     RX9=0;
  5001  0CAB  1318               	bcf	24,6	;volatile
  5002  0CAC                     l2044:
  5003                           
  5004                           ;./BT.h: 15:     TX9=0;
  5005  0CAC  1683               	bsf	3,5	;RP0=1, select bank1
  5006  0CAD  1303               	bcf	3,6	;RP1=0, select bank1
  5007  0CAE  1318               	bcf	24,6	;volatile
  5008  0CAF                     l2046:
  5009                           
  5010                           ;./BT.h: 17:     TXEN=1;
  5011  0CAF  1698               	bsf	24,5	;volatile
  5012  0CB0                     l2048:
  5013                           
  5014                           ;./BT.h: 18:     CREN=1;
  5015  0CB0  1283               	bcf	3,5	;RP0=0, select bank0
  5016  0CB1  1303               	bcf	3,6	;RP1=0, select bank0
  5017  0CB2  1618               	bsf	24,4	;volatile
  5018  0CB3                     l179:
  5019  0CB3  0008               	return
  5020  0CB4                     __end_of_Initialize_Bluetooth:
  5021                           
  5022                           	psect	text18
  5023  0CF5                     __ptext18:	
  5024 ;; *************** function _BT_load_string *****************
  5025 ;; Defined at:
  5026 ;;		line 31 in file "./BT.h"
  5027 ;; Parameters:    Size  Location     Type
  5028 ;;  string          2    1[COMMON] PTR unsigned char 
  5029 ;;		 -> STR_14(26), STR_13(2), STR_12(19), STR_11(26), 
  5030 ;;		 -> STR_10(2), STR_9(26), STR_8(26), STR_7(2), 
  5031 ;;		 -> STR_6(26), RAM(512), 
  5032 ;; Auto vars:     Size  Location     Type
  5033 ;;		None
  5034 ;; Return value:  Size  Location     Type
  5035 ;;                  1    wreg      void 
  5036 ;; Registers used:
  5037 ;;		wreg, fsr0l, fsr0h, status,2, status,0, btemp+1, pclath, cstack
  5038 ;; Tracked objects:
  5039 ;;		On entry : 0/0
  5040 ;;		On exit  : 0/0
  5041 ;;		Unchanged: 0/0
  5042 ;; Data sizes:     COMMON   BANK0   BANK1   BANK3   BANK2
  5043 ;;      Params:         2       0       0       0       0
  5044 ;;      Locals:         0       0       0       0       0
  5045 ;;      Temps:          0       0       0       0       0
  5046 ;;      Totals:         2       0       0       0       0
  5047 ;;Total ram usage:        2 bytes
  5048 ;; Hardware stack levels used: 1
  5049 ;; Hardware stack levels required when called: 1
  5050 ;; This function calls:
  5051 ;;		_BT_load_char
  5052 ;; This function is called by:
  5053 ;;		_main
  5054 ;; This function uses a non-reentrant model
  5055 ;;
  5056                           
  5057  0CF5                     _BT_load_string:	
  5058                           ;psect for function _BT_load_string
  5059                           
  5060  0CF5                     l2050:	
  5061                           ;incstack = 0
  5062                           ; Regs used in _BT_load_string: [wreg-fsr0h+status,2+status,0+btemp+1+pclath+cstack]
  5063                           
  5064                           
  5065                           ;./BT.h: 32:     while(*string)
  5066  0CF5  2D0A               	goto	l2056
  5067  0CF6                     l2052:
  5068                           
  5069                           ;./BT.h: 33:     BT_load_char(*string++);
  5070  0CF6  0872               	movf	BT_load_string@string+1,w
  5071  0CF7  00FF               	movwf	btemp+1
  5072  0CF8  0871               	movf	BT_load_string@string,w
  5073  0CF9  0084               	movwf	4
  5074  0CFA  120A  118A  2003  120A  158A  	fcall	stringtab
  5075  0CFF  120A  158A  247F  120A  158A  	fcall	_BT_load_char
  5076  0D04                     l2054:
  5077  0D04  3001               	movlw	1
  5078  0D05  07F1               	addwf	BT_load_string@string,f
  5079  0D06  1803               	skipnc
  5080  0D07  0AF2               	incf	BT_load_string@string+1,f
  5081  0D08  3000               	movlw	0
  5082  0D09  07F2               	addwf	BT_load_string@string+1,f
  5083  0D0A                     l2056:
  5084                           
  5085                           ;./BT.h: 32:     while(*string)
  5086  0D0A  0872               	movf	BT_load_string@string+1,w
  5087  0D0B  1283               	bcf	3,5	;RP0=0, select bank0
  5088  0D0C  1303               	bcf	3,6	;RP1=0, select bank0
  5089  0D0D  00FF               	movwf	btemp+1
  5090  0D0E  0871               	movf	BT_load_string@string,w
  5091  0D0F  0084               	movwf	4
  5092  0D10  120A  118A  2003  120A  158A  	fcall	stringtab
  5093  0D15  3A00               	xorlw	0
  5094  0D16  1D03               	skipz
  5095  0D17  2D19               	goto	u1931
  5096  0D18  2D1A               	goto	u1930
  5097  0D19                     u1931:
  5098  0D19  2CF6               	goto	l2052
  5099  0D1A                     u1930:
  5100  0D1A                     l194:
  5101  0D1A  0008               	return
  5102  0D1B                     __end_of_BT_load_string:
  5103                           
  5104                           	psect	text19
  5105  0C7F                     __ptext19:	
  5106 ;; *************** function _BT_load_char *****************
  5107 ;; Defined at:
  5108 ;;		line 23 in file "./BT.h"
  5109 ;; Parameters:    Size  Location     Type
  5110 ;;  byte            1    wreg     unsigned char 
  5111 ;; Auto vars:     Size  Location     Type
  5112 ;;  byte            1    0[COMMON] unsigned char 
  5113 ;; Return value:  Size  Location     Type
  5114 ;;                  1    wreg      void 
  5115 ;; Registers used:
  5116 ;;		wreg
  5117 ;; Tracked objects:
  5118 ;;		On entry : 0/0
  5119 ;;		On exit  : 0/0
  5120 ;;		Unchanged: 0/0
  5121 ;; Data sizes:     COMMON   BANK0   BANK1   BANK3   BANK2
  5122 ;;      Params:         0       0       0       0       0
  5123 ;;      Locals:         1       0       0       0       0
  5124 ;;      Temps:          0       0       0       0       0
  5125 ;;      Totals:         1       0       0       0       0
  5126 ;;Total ram usage:        1 bytes
  5127 ;; Hardware stack levels used: 1
  5128 ;; This function calls:
  5129 ;;		Nothing
  5130 ;; This function is called by:
  5131 ;;		_BT_load_string
  5132 ;; This function uses a non-reentrant model
  5133 ;;
  5134                           
  5135  0C7F                     _BT_load_char:	
  5136                           ;psect for function _BT_load_char
  5137                           
  5138                           
  5139                           ;incstack = 0
  5140                           ; Regs used in _BT_load_char: [wreg]
  5141                           ;BT_load_char@byte stored from wreg
  5142  0C7F  00F0               	movwf	BT_load_char@byte
  5143  0C80                     l1672:
  5144                           
  5145                           ;./BT.h: 24:     TXREG = byte;
  5146  0C80  0870               	movf	BT_load_char@byte,w
  5147  0C81  1283               	bcf	3,5	;RP0=0, select bank0
  5148  0C82  1303               	bcf	3,6	;RP1=0, select bank0
  5149  0C83  0099               	movwf	25	;volatile
  5150  0C84                     l182:	
  5151                           ;./BT.h: 25:     while(!TXIF);
  5152                           
  5153  0C84  1E0C               	btfss	12,4	;volatile
  5154  0C85  2C87               	goto	u1191
  5155  0C86  2C88               	goto	u1190
  5156  0C87                     u1191:
  5157  0C87  2C84               	goto	l182
  5158  0C88                     u1190:
  5159  0C88                     l185:
  5160  0C88  1683               	bsf	3,5	;RP0=1, select bank1
  5161  0C89  1303               	bcf	3,6	;RP1=0, select bank1
  5162  0C8A  1C98               	btfss	24,1	;volatile
  5163  0C8B  2C8D               	goto	u1201
  5164  0C8C  2C8E               	goto	u1200
  5165  0C8D                     u1201:
  5166  0C8D  2C88               	goto	l185
  5167  0C8E                     u1200:
  5168  0C8E                     l188:
  5169  0C8E  0008               	return
  5170  0C8F                     __end_of_BT_load_char:
  5171  007E                     btemp	set	126	;btemp
  5172  007E                     wtemp0	set	126
  5173                           
  5174                           	psect	idloc
  5175                           
  5176                           ;Config register IDLOC0 @ 0x2000
  5177                           ;	unspecified, using default values
  5178  2000                     	org	8192
  5179  2000  3FFF               	dw	16383
  5180                           
  5181                           ;Config register IDLOC1 @ 0x2001
  5182                           ;	unspecified, using default values
  5183  2001                     	org	8193
  5184  2001  3FFF               	dw	16383
  5185                           
  5186                           ;Config register IDLOC2 @ 0x2002
  5187                           ;	unspecified, using default values
  5188  2002                     	org	8194
  5189  2002  3FFF               	dw	16383
  5190                           
  5191                           ;Config register IDLOC3 @ 0x2003
  5192                           ;	unspecified, using default values
  5193  2003                     	org	8195
  5194  2003  3FFF               	dw	16383
  5195                           
  5196                           	psect	config
  5197                           
  5198                           ;Config register CONFIG @ 0x2007
  5199                           ;	Oscillator Selection bits
  5200                           ;	FOSC = HS, HS oscillator
  5201                           ;	Watchdog Timer Enable bit
  5202                           ;	WDTE = OFF, WDT disabled
  5203                           ;	Power-up Timer Enable bit
  5204                           ;	PWRTE = OFF, PWRT disabled
  5205                           ;	Brown-out Reset Enable bit
  5206                           ;	BOREN = OFF, BOR disabled
  5207                           ;	Low-Voltage (Single-Supply) In-Circuit Serial Programming Enable bit
  5208                           ;	LVP = OFF, RB3 is digital I/O, HV on MCLR must be used for programming
  5209                           ;	Data EEPROM Memory Code Protection bit
  5210                           ;	CPD = OFF, Data EEPROM code protection off
  5211                           ;	Flash Program Memory Write Enable bits
  5212                           ;	WRT = OFF, Write protection off; all program memory may be written to by EECON control
  5213                           ;	In-Circuit Debugger Mode bit
  5214                           ;	DEBUG = 0x1, unprogrammed default
  5215                           ;	Flash Program Memory Code Protection bit
  5216                           ;	CP = OFF, Code protection off
  5217  2007                     	org	8199
  5218  2007  3F3A               	dw	16186

Data Sizes:
    Strings     127
    Constant    0
    Data        4
    BSS         18
    Persistent  0
    Stack       0

Auto Spaces:
    Space          Size  Autos    Used
    COMMON           14     14      14
    BANK0            80     53      75
    BANK1            80      0       0
    BANK3            96      0       0
    BANK2            96      0       0

Pointer List with Targets:

    BT_load_string@string	PTR unsigned char  size(2) Largest target is 512
		 -> STR_14(CODE[26]), STR_13(CODE[2]), STR_12(CODE[19]), STR_11(CODE[26]), 
		 -> STR_10(CODE[2]), STR_9(CODE[26]), STR_8(CODE[26]), STR_7(CODE[2]), 
		 -> STR_6(CODE[26]), RAM(DATA[512]), 

    sp__itoa	PTR unsigned char  size(1) Largest target is 12
		 -> itoa@buffer(BANK0[12]), 

    LCD_string@str	PTR unsigned char  size(2) Largest target is 512
		 -> RAM(DATA[512]), STR_5(CODE[2]), STR_4(CODE[2]), STR_3(CODE[2]), 
		 -> STR_2(CODE[15]), STR_1(CODE[13]), 


Critical Paths under _main in COMMON

    _updateWifiCounter->___awdiv
    _itoa->___awdiv
    _dist3->___xxtofl
    _dist2->___xxtofl
    _dist1->___xxtofl
    ___fldiv->___xxtofl
    _LCD_string->_LCD_Data
    _LCD_init->_LCD_Command
    _LCD_Clear->_LCD_Command
    _BT_load_string->_BT_load_char

Critical Paths under _main in BANK0

    _main->_dist1
    _main->_dist2
    _main->_dist3
    _dist3->___fldiv
    _dist2->___fldiv
    _dist1->___fldiv

Critical Paths under _main in BANK1

    None.

Critical Paths under _main in BANK3

    None.

Critical Paths under _main in BANK2

    None.

Call Graph Tables:

 ---------------------------------------------------------------------------------
 (Depth) Function   	        Calls       Base Space   Used Autos Params    Refs
 ---------------------------------------------------------------------------------
 (0) _main                                                18    18      0   14684
                                             35 BANK0     18    18      0
                     _BT_load_string
               _Initialize_Bluetooth
                          _LCD_Clear
                        _LCD_Command
                           _LCD_init
                         _LCD_string
                             ___flge
                       _broadcast_BT
                              _dist1
                              _dist2
                              _dist3
                               _itoa
                  _updateWifiCounter
 ---------------------------------------------------------------------------------
 (1) _updateWifiCounter                                    6     6      0    2360
                                              0 BANK0      6     6      0
                            ___awdiv
 ---------------------------------------------------------------------------------
 (1) _itoa                                                 7     5      2    2742
                                              9 COMMON     3     1      2
                                              0 BANK0      4     4      0
                            ___awdiv
                            ___awmod
 ---------------------------------------------------------------------------------
 (2) ___awmod                                              7     3      4     448
                                              0 COMMON     7     3      4
 ---------------------------------------------------------------------------------
 (2) ___awdiv                                              9     5      4    1820
                                              0 COMMON     9     5      4
 ---------------------------------------------------------------------------------
 (1) _dist3                                                9     5      4    2151
                                             26 BANK0      9     5      4
                            ___fldiv
                           ___xxtofl
 ---------------------------------------------------------------------------------
 (1) _dist2                                                9     5      4    2151
                                             26 BANK0      9     5      4
                            ___fldiv
                           ___xxtofl
 ---------------------------------------------------------------------------------
 (1) _dist1                                                9     5      4    2151
                                             26 BANK0      9     5      4
                            ___fldiv
                           ___xxtofl
 ---------------------------------------------------------------------------------
 (2) ___xxtofl                                            14    10      4     550
                                              0 COMMON    14    10      4
 ---------------------------------------------------------------------------------
 (2) ___fldiv                                             26    18      8    1577
                                              0 BANK0     26    18      8
                           ___xxtofl (ARG)
 ---------------------------------------------------------------------------------
 (1) _broadcast_BT                                         3     3      0       0
                                              0 COMMON     3     3      0
 ---------------------------------------------------------------------------------
 (1) ___flge                                              12     4      8    1094
                                              0 COMMON    12     4      8
 ---------------------------------------------------------------------------------
 (1) _LCD_string                                           4     2      2     720
                                              3 COMMON     4     2      2
                           _LCD_Data
 ---------------------------------------------------------------------------------
 (2) _LCD_Data                                             3     3      0      22
                                              0 COMMON     3     3      0
 ---------------------------------------------------------------------------------
 (1) _LCD_init                                             0     0      0      22
                        _LCD_Command
 ---------------------------------------------------------------------------------
 (1) _LCD_Clear                                            0     0      0      22
                        _LCD_Command
 ---------------------------------------------------------------------------------
 (2) _LCD_Command                                          3     3      0      22
                                              0 COMMON     3     3      0
 ---------------------------------------------------------------------------------
 (1) _Initialize_Bluetooth                                 0     0      0       0
 ---------------------------------------------------------------------------------
 (1) _BT_load_string                                       2     0      2     979
                                              1 COMMON     2     0      2
                       _BT_load_char
 ---------------------------------------------------------------------------------
 (2) _BT_load_char                                         1     1      0      22
                                              0 COMMON     1     1      0
 ---------------------------------------------------------------------------------
 Estimated maximum stack depth 2
 ---------------------------------------------------------------------------------

 Call Graph Graphs:

 _main (ROOT)
   _BT_load_string
     _BT_load_char
   _Initialize_Bluetooth
   _LCD_Clear
     _LCD_Command
   _LCD_Command
   _LCD_init
     _LCD_Command
   _LCD_string
     _LCD_Data
   ___flge
   _broadcast_BT
   _dist1
     ___fldiv
       ___xxtofl (ARG)
     ___xxtofl
   _dist2
     ___fldiv
     ___xxtofl
   _dist3
     ___fldiv
     ___xxtofl
   _itoa
     ___awdiv
     ___awmod
   _updateWifiCounter
     ___awdiv

 Address spaces:
Name               Size   Autos  Total    Cost      Usage
BANK3               60      0       0       9        0.0%
BITBANK3            60      0       0       8        0.0%
SFR3                 0      0       0       4        0.0%
BITSFR3              0      0       0       4        0.0%
BANK2               60      0       0      11        0.0%
BITBANK2            60      0       0      10        0.0%
SFR2                 0      0       0       5        0.0%
BITSFR2              0      0       0       5        0.0%
BANK1               50      0       0       7        0.0%
BITBANK1            50      0       0       6        0.0%
SFR1                 0      0       0       2        0.0%
BITSFR1              0      0       0       2        0.0%
BANK0               50     35      4B       5       93.8%
BITBANK0            50      0       0       4        0.0%
SFR0                 0      0       0       1        0.0%
BITSFR0              0      0       0       1        0.0%
COMMON               E      E       E       1      100.0%
BITCOMMON            E      0       0       0        0.0%
CODE                 0      0       0       0        0.0%
DATA                 0      0      59      12        0.0%
ABS                  0      0      59       3        0.0%
NULL                 0      0       0       0        0.0%
STACK                0      0       0       2        0.0%
EEDATA             100      0       0       0        0.0%


Microchip Technology PIC Macro Assembler V2.36 build 20220127204148 
Symbol Table                                                                                   Mon Dec 05 14:00:36 2022

                ___fldiv@aexp 0039                  ___fldiv@bexp 0038                             pc 0002  
                ___fldiv@sign 0031                  ?_LCD_Command 0070                  ___awdiv@sign 0076  
                          fsr 0004     __end_of_updateWifiCounter 0314                           l130 0D63  
                         l131 0D9B                           l140 0DEC                           l125 0D5A  
                         l134 0DAB                           l127 0D5E                           l143 0DFC  
                         l223 07D7                           l152 0CDB                           l128 0D5F  
                         l136 0DAF                           l137 0DB0                           l145 0E00  
                         l146 0E01                           l155 0CC7                           l139 0DB4  
                         l171 0EE0                           l164 0D4A                           l148 0E05  
                         l260 0313                           l149 0E3D                           l173 0EF6  
                         l182 0C84                           l158 0CF4                           l176 0C7E  
                         l520 0F7A                           l512 0E96                           l185 0C88  
                         l194 0D1A                           l179 0CB3                           l523 0FE6  
                         l188 0C8E                           l524 0FFF                           l197 0C9F  
                         l711 0462                           l717 04D4                           l719 04E4  
                         l499 0F5D                           l781 0153                           l695 0370  
                         l792 011D                           l697 04F0                           l793 0129  
                         l785 0101                           l779 00BC                           _RA0 0028  
                         _RA1 0029                           _RA2 002A                           _RA3 002B  
                         _RA4 002C                           _RA5 002D                           _RC2 003A  
                         _RD0 0040                           _RC3 003B                           _RD1 0041  
                         _RC4 003C                           _RD2 0042                           _RC5 003D  
                         _RD3 0043                           _RD4 0044                           _RD5 0045  
                         _RD6 0046                           _RD7 0047                           _RX9 00C6  
                         _TX9 04C6                           fsr0 0004                           indf 0000  
                ___awmod@sign 0076                   ?_LCD_string 0073                          l2002 0CDC  
                        l2010 0D36                          l2004 0D1B                          l2020 0EAB  
                        l2012 0E97                          l2100 01D3                          l2006 0D1E  
                        l2022 0EC9                          l2014 0EA1                          l2110 01E7  
                        l2102 01D9                          l2040 0CA8                          l2032 0C78  
                        l2008 0D30                          l2024 0EDA                          l2016 0EA2  
                        l2200 02E8                          l2120 0200                          l2104 01DF  
                        l2112 01EB                          l2050 0CF5                          l2042 0CAB  
                        l2034 0CA0                          l2026 0EE6                          l2018 0EA6  
                        l2210 030E                          l2202 02FB                          l2130 0221  
                        l2122 0201                          l2114 01F2                          l2106 01E0  
                        l2052 0CF6                          l2044 0CAC                          l2036 0CA5  
                        l2220 0F96                          l2028 0EF4                          l2212 030F  
                        l2204 0301                          l2140 0242                          l2132 0227  
                        l2124 0207                          l2116 01F4                          l2108 01E6  
                        l2060 0154                          l2300 055D                          l2054 0D04  
                        l2046 0CAF                          l2038 0CA7                          l2230 0FFE  
                        l2222 0F9A                          l2214 0F5E                          l2206 0307  
                        l2150 0256                          l2142 0248                          l2134 0228  
                        l2126 0208                          l2118 01FA                          l2070 016B  
                        l2062 015C                          l2310 0588                          l2302 0566  
                        l2056 0D0A                          l2048 0CB0                          l2224 0FBE  
                        l2216 0F72                          l2208 0308                          l2160 027C  
                        l2152 0269                          l2144 024E                          l2136 022E  
                        l2128 021B                          l2080 0191                          l2072 0171  
                        l2064 015E                          l2400 0769                          l2320 059D  
                        l2312 058B                          l2304 056C                          l2240 04F6  
                        l2226 0FC2                          l2218 0F8E                          l2058 0C8F  
                        l2170 0292                          l2154 026F                          l2146 024F  
                        l2138 022F                          l2162 027D                          l2090 01B2  
                        l2082 0192                          l2074 0172                          l2066 0164  
                        l2410 0799                          l2402 0771                          l2330 05F1  
                        l2322 05AC                          l2314 058C                          l2306 0575  
                        l2250 04FB                          l2242 04F7                          l2234 04F1  
                        l2228 0FFC                          l1700 0F2A                          l2180 02B3  
                        l2172 0293                          l2164 0284                          l2156 0275  
                        l2148 0255                          l2092 01B8                          l2084 0198  
                        l2076 0185                          l2068 016A                          l2420 07C3  
                        l2412 07A7                          l2404 077F                          l2340 0635  
                        l2332 0600                          l2324 05C5                          l2316 058D  
                        l2308 0583                          l2260 0500                          l2252 04FC  
                        l2244 04F8                          l2236 04F4                          l1702 0F3B  
                        l1710 0F4F                          l2190 02D4                          l2182 02B9  
                        l2174 0299                          l2166 0286                          l2158 0276  
                        l2094 01B9                          l2086 0199                          l2078 018B  
                        l2422 07C8                          l2414 07AC                          l2406 078B  
                        l2350 0662                          l2342 0641                          l2334 0619  
                        l2326 05D3                          l2318 0592                          l2270 0509  
                        l2262 0503                          l2254 04FD                          l2246 04F9  
                        l2238 04F5                          l1800 0388                          l1712 0F54  
                        l1704 0F41                          l1720 0E3F                          l2192 02DA  
                        l2184 02BA                          l2176 029A                          l2168 028C  
                        l2096 01BF                          l2088 01AC                          l2416 07B5  
                        l2408 0794                          l2352 066B                          l2344 064A  
                        l2336 061F                          l2360 068C                          l2328 05EE  
                        l2280 0512                          l2272 050A                          l2264 0504  
                        l2256 04FE                          l2248 04FA                          l1810 039F  
                        l1714 0F59                          l1706 0F42                          l1730 0E53  
                        l1722 0E43                          l2194 02E0                          l2186 02C0  
                        l2178 02AD                          l2098 01C0                          l2418 07BA  
                        l2370 06D8                          l2362 06A7                          l2354 0670  
                        l2346 064F                          l2338 0627                          l2290 0539  
                        l2282 0517                          l2274 050B                          l2266 0505  
                        l2258 04FF                          l1660 0CD8                          l1652 0CC9  
                        l1820 03CB                          l1812 03B1                          l1804 0391  
                        l1900 00A0                          l1708 0F49                          l1740 0E6B  
                        l1732 0E59                          l1724 0E48                          l2196 02E1  
                        l2188 02C1                          l2380 0708                          l2372 06E0  
                        l2364 06AA                          l2356 0679                          l2348 065D  
                        l2292 053F                          l2284 051D                          l2276 050C  
                        l2268 0508                          l1670 0CC4                          l1662 0CB5  
                        l1654 0CCD                          l1822 03D0                          l1830 03F0  
                        l1814 03B9                          l1806 0396                          l1910 00CD  
                        l1902 00A4                          l1750 0E8D                          l1742 0E75  
                        l1734 0E5C                          l1726 0E4A                          l1718 0E3E  
                        l2198 02E7                          l2390 0732                          l2382 0716  
                        l2374 06EE                          l2366 06B9                          l2358 067E  
                        l2294 0548                          l2286 0526                          l2278 050D  
                        l1672 0C80                          l1664 0CB9                          l1656 0CCE  
                        l1840 041B                          l1832 0402                          l1824 03E2  
                        l1816 03C1                          l1760 0321                          l1920 00F8  
                        l1912 00D2                          l1904 00B4                          l1680 0F01  
                        l1752 0E92                          l1744 0E7B                          l1736 0E63  
                        l1728 0E4E                          l2392 0737                          l2384 071B  
                        l2376 06FA                          l2368 06D2                          l2296 054E  
                        l2288 0534                          l1666 0CBA                          l1658 0CCF  
                        l1850 0433                          l1842 0423                          l1834 0403  
                        l1826 03E6                          l1818 03C9                          l1770 0338  
                        l1762 0325                          l1930 012B                          l1922 0108  
                        l1914 00DF                          l1906 00C4                          l1690 0F12  
                        l1682 0F03                          l1674 0EF7                          l1746 0E82  
                        l1738 0E67                          l2386 0724                          l2378 0703  
                        l2394 0745                          l2298 0557                          l1668 0CBB  
                        l1860 044B                          l1852 043C                          l1844 0425  
                        l1836 0411                          l1828 03E7                          l1780 034E  
                        l1772 0339                          l1764 0326                          l1756 0314  
                        l1932 0141                          l1924 0113                          l1916 00E6  
                        l1692 0F18                          l1684 0F07                          l1676 0EF8  
                        l1748 0E88                          l2396 0760                          l2388 0729  
                        l1870 047A                          l1862 045F                          l1846 042E  
                        l1854 0442                          l1838 0415                          l1790 0365  
                        l1782 0352                          l1766 032B                          l1774 033B  
                        l1758 031B                          l1934 0146                          l1926 0117  
                        l1918 00EA                          l1950 0D57                          l1942 0D4B  
                        l1694 0F1B                          l1686 0F0C                          l1678 0EFC  
                        l2398 0763                          l1880 04B8                          l1872 047E  
                        l1856 0446                          l1848 0432                          l1792 0366  
                        l1784 0353                          l1776 0343                          l1768 0330  
                        l1936 014A                          l1928 0121                          l1952 0D64  
                        l1944 0D4B                          l1696 0F22                          l1688 0F10  
                        l1890 04DE                          l1882 04C7                          l1874 0497  
                        l1866 0467                          l1858 0447                          l1786 0358  
                        l1794 0368                          l1778 0348                          l1938 014B  
                        l1954 0D91                          l1946 0D4F                          l1970 0DA8  
                        l1962 0D9C                          l1698 0F26                          l1892 04E0  
                        l1884 04CB                          l1868 046C                          l1876 049D  
                        l1796 0378                          l1788 035D                          l1956 0D92  
                        l1948 0D50                          l1972 0DB5                          l1964 0D9C  
                        l1886 04D3                          l1878 04AA                          l1798 0384  
                        l1958 0D93                          l1974 0DE2                          l1966 0DA0  
                        l1990 0DF9                          l1982 0DED                          l1888 04DA  
                        l1976 0DE3                          l1968 0DA1                          l1992 0E06  
                        l1984 0DED                          l1898 009B                          l1978 0DE4  
                        l1994 0E33                          l1986 0DF1                          l1996 0E34  
                        l1988 0DF2                          l1998 0E35                          STR_1 0083  
                        STR_2 0074                          STR_3 0090                          STR_4 0090  
                        STR_5 0090                          STR_6 002D                          STR_7 002B  
                        STR_8 0013                          STR_9 0047                          _BRGH 04C2  
                        _CREN 00C4                          u1200 0C8E                          u2000 01BF  
                        u1201 0C8D                          u2001 01BE                          u1210 0EFC  
                        u2010 01DF                          u1211 0EFB                          u2011 01DE  
                        u1300 0F54                          u1220 0F07                          u2100 0275  
                        u2020 01E6                          u1301 0F53                          u1221 0F06  
                        u2101 0274                          u2021 01E5                          u1230 0F18  
                        u1310 0E43                          u2110 027C                          u2030 01F2  
                        u1231 0F17                          u1311 0E42                          u2111 027B  
                        u2031 01F1                          u1400 0325                          u1320 0E4E  
                        u2200 030E                          u2120 0284                          u2040 0200  
                        u1401 0324                          u1321 0E4D                          u2201 030D  
                        u2121 0283                          u2041 01FF                          u2210 0F72  
                        u1410 032B                          u1250 0F2A                          u1330 0E59  
                        u2130 0292                          u2050 0207                          u2211 0F71  
                        u1411 032A                          u1251 0F29                          u1331 0E58  
                        u2131 0291                          u2051 0206                          u2220 0F8E  
                        u1420 0330                          u2140 0299                          u2060 0227  
                        u2300 0619                          u2221 0F8D                          u1421 032F  
                        u1245 0F1C                          u2141 0298                          u2061 0226  
                        u2301 0618                          u1190 0C88                          u2230 0F9A  
                        u1510 03E6                          u1430 0352                          u1270 0F3B  
                        u1350 0E6B                          u2150 02B9                          u2070 022E  
                        u2310 06A7                          u1191 0C87                          u2231 0F99  
                        u1511 03E5                          u1431 0351                          u1271 0F3A  
                        u1351 0E6A                          u2151 02B8                          u2071 022D  
                        u2311 06A6                          u1600 044B                          u1440 0358  
                        u1360 0E75                          u2160 02C0                          u2080 024E  
                        u2320 06D2                          u2241 0FA9                          u1601 044A  
                        u1505 03DB                          u1441 0357                          u1265 0F2B  
                        u1361 0E74                          u1345 0E5D                          u2161 02BF  
                        u2081 024D                          u2321 06D1                          u2250 0FC2  
                        u2242 0FAA                          u1610 045F                          u1530 0402  
                        u1450 035D                          u1290 0F4F                          u2170 02E0  
                        u2090 0255                          u2330 0760                          u2251 0FC1  
                        u2243 0FAF                          u1611 045E                          u1531 0401  
                        u1451 035C                          u1291 0F4E                          u1275 0F37  
                        u2171 02DF                          u2091 0254                          u2331 075F  
                        u2244 0FB0                          u1620 0466                          u1540 041B  
                        u1460 0378                          u1700 00A4                          u1380 0E88  
                        u2180 02E7                          u2261 0FD1                          u2245 0FB5  
                        u1621 0465                          u1541 041A                          u1525 03E9  
                        u1461 0377                          u1701 00A3                          u1285 0F43  
                        u1381 0E87                          u1365 0E71                          u2181 02E6  
                        u2270 0FFC                          u2262 0FD2                          u2246 0FB6  
                        u1630 046C                          u1550 0423                          u1470 0396  
                        u1710 00C4                          u1390 0E8D                          u2190 0307  
                        u2271 0FFB                          u2263 0FD7                          u1631 046B  
                        u1551 0422                          u1535 03FE                          u1471 0395  
                        u1711 00C3                          u1391 0E8C                          u1375 0E7C  
                        u2191 0306                          u2407 07D0                          u2264 0FD8  
                        u1640 047E                          u1480 03D0                          u1800 0136  
                        u2280 05C5                          u2265 0FDD                          u1641 047D  
                        u1481 03CF                          u2417 0DF6                          u2281 05C4  
                        u2266 0FDE                          u1650 048D                          u1570 0432  
                        u1810 0146                          u1730 00E5                          u2290 05EE  
                        u2275 0FF8                          u1571 0431                          u1811 0145  
                        u1731 00E4                          u2427 0DA5                          u2291 05ED  
                        u2347 052E                          u1660 04AA                          u1820 014A  
                        u1900 0EA6                          u1661 04A9                          u1565 0427  
                        u1821 0149                          u1805 0131                          u1725 00D7  
                        u2437 0D54                          u1901 0EA5                          u2357 057D  
                        u1670 04C7                          u1590 0446                          u1750 0107  
                        u1830 0D5E                          u1910 0EE0                          u2447 0C99  
                        u1671 04C6                          u1655 0488                          u1591 0445  
                        u1495 03D2                          u1751 0106                          u1831 0D5D  
                        u1911 0EDF                          u2367 0598                          u1680 04DE  
                        u1840 0D63                          u1920 0EE6                          u2457 0CD4  
                        u1681 04DD                          u1665 04A6                          u1585 0435  
                        u1745 00F9                          u1841 0D62                          u1921 0EE5  
                        u2377 05CD                          u1930 0D1A                          u1770 0117  
                        u1690 00A0                          u1850 0DAF                          u1931 0D19  
                        u2467 0CC0                          u1675 04C3                          u1771 0116  
                        u1691 009F                          u1851 0DAE                          u2387 0686  
                        u1780 011D                          u1860 0DB4                          u1940 015C  
                        u1781 011C                          u1765 010C                          u1861 0DB3  
                        u1941 015B                          u2397 073F                          u1790 0121  
                        u1870 0E00                          u1950 016A                          u1791 0120  
                        u1871 0DFF                          u1951 0169                          u1880 0E05  
                        u1960 0171                          u1881 0E04                          u1961 0170  
                        u1890 0D4A                          u1970 0191                          u1891 0D49  
                        u1971 0190                          u1980 0198                          u1981 0197  
                        u1990 01B8                          u1991 01B7                          _RCIF 0065  
                        _OERR 00C1                          _TMR1 000E                          _SPEN 00C7  
                        _TRMT 04C1                          _TXEN 04C5                          _TXIF 0064  
                        _SYNC 04C4                ??_broadcast_BT 0070                          _main 04F1  
                        _itoa 0E97                          btemp 007E                          start 0000  
             ___fldiv@new_exp 0032              __end_of_LCD_Data 0CDC                  LCD_Data@data 0072  
            __end_of_LCD_init 0CF5                         ?_main 0070               __end_of___fldiv 04F1  
                       ?_itoa 0079               __end_of___awdiv 0F5E                         STR_10 002B  
                       STR_11 0013                         STR_12 0061                         STR_13 002B  
                       STR_14 0013               __end_of___awmod 0E97               ___awdiv@divisor 0070  
             ___awdiv@counter 0075                         _RCREG 001A                         _SPBRG 0099  
                       _PORTB 0006                         _TRISB 0086                         _TXREG 0019  
                       _dist1 0D4B                         _dist2 0D9C                         _dist3 0DED  
                       itoa@c 0022                         pclath 000A                         status 0003  
                       wtemp0 007E               __initialization 07DB                  __end_of_main 07DB  
                __end_of_itoa 0EF7                        ??_main 0043                        ??_itoa 007B  
           __end_of_LCD_Clear 0C7F                   LCD_string@i 0075                 main@distance1 0046  
               main@distance2 004A                 main@distance3 004E                        ?_dist1 003A  
                      ?_dist2 003A                        ?_dist3 003A              ___awdiv@dividend 0072  
              _BT_load_string 0CF5                        _TMR1CS 0081                        _TMR1ON 0080  
                      _TRISA0 0428                        _TRISA1 0429                        _TRISA2 042A  
                      _TRISA3 042B                        _TRISA4 042C                        _TRISA5 042D  
                      _TRISC2 043A                        _TRISD0 0440                        _TRISC3 043B  
                      _TRISD1 0441                        _TRISD2 0442                        _TRISC4 043C  
                      _TRISD3 0443                        _TRISC5 043D                        _TRISC6 043E  
                      _TRISD4 0444                        _TRISC7 043F                        _TRISD5 0445  
                      _TRISD6 0446                        _TRISD7 0447              __end_of___xxtofl 0154  
                      ___flge 0F5E                     ??___fldiv 0028                     ??___awdiv 0074  
                   ??___awmod 0074                        _count1 0055                        _count2 0057  
                      _count3 0059              ___awdiv@quotient 0077               ___awmod@divisor 0070  
             ___awmod@counter 0075                        main@c1 0054                        main@c2 0053  
                      main@c3 0052          __end_of_broadcast_BT 0CA0        __end_of_BT_load_string 0D1B  
                  ___flge@ff1 0070                    ___flge@ff2 0074                  ___xxtofl@arg 007A  
                ___xxtofl@exp 0079                  ___xxtofl@val 0070                     ?_LCD_Data 0070  
     __end_of__initialization 07FC                     ?_LCD_init 0070                __pcstackCOMMON 0070  
              dist1@distance1 003F                  __pidataBANK0 0C74                 __end_of_dist1 0D9C  
               __end_of_dist2 0DED                 __end_of_dist3 0E3E     updateWifiCounter@temp_166 0022  
   updateWifiCounter@temp_167 0024                dist2@distance2 003F                  ??_LCD_string 0075  
              dist3@distance3 003F                       ??_dist1 003E                       ??_dist2 003E  
                     ??_dist3 003E               ?_BT_load_string 0071                    __pbssBANK0 0055  
                  ??_LCD_Data 0070                    ??_LCD_init 0073                 ?_BT_load_char 0070  
                  __pmaintext 04F1                       ?___flge 0070            __end_of_LCD_string 0D4B  
                     _T1CKPS0 0084                       _T1CKPS1 0085  __end_of_Initialize_Bluetooth 0CB4  
                   ?___xxtofl 0070                    __stringtab 0003                ??_BT_load_char 0070  
                     ___fldiv 0314                       ___awdiv 0EF7                       ___awmod 0E3E  
                     __ptext1 0154                       __ptext2 0E97                       __ptext3 0E3E  
                     __ptext4 0EF7                       __ptext5 0DED                       __ptext6 0D9C  
                     __ptext7 0D4B                       __ptext8 009A                       __ptext9 0314  
                     _door_CM 0069                    ??___xxtofl 0074              ___awmod@dividend 0072  
                   _LCD_Clear 0C78                       clrloop0 0093          end_of_initialization 07FC  
              LCD_Command@cmd 0072                  _broadcast_BT 0C8F                  itoa@original 0020  
               ___xxtofl@sign 0078                    ?_LCD_Clear 0070              BT_load_char@byte 0070  
                 ___fldiv@grs 0034                   ___fldiv@rem 002D          _Initialize_Bluetooth 0CA0  
               ??_LCD_Command 0070                __end_of___flge 1000          __end_of_BT_load_char 0C8F  
            ??_BT_load_string 0073           start_initialization 07DB         ?_Initialize_Bluetooth 0070  
                    ??___flge 0078                   __pdataBANK0 0067                    itoa@buffer 005B  
                   ___fldiv@a 0020                     ___fldiv@b 0024           __end_of_LCD_Command 0CC8  
                   ___latbits 0002                 __pcstackBANK0 0020                   ??_LCD_Clear 0073  
               LCD_string@str 0073                      ?___fldiv 0020                      ?___awdiv 0070  
                    ?___awmod 0070                     __pstrings 0003                      _LCD_Data 0CC8  
      ??_Initialize_Bluetooth 0070                      _LCD_init 0CDC                     clear_ram0 0092  
                 _LCD_Command 0CB4                   __stringbase 0012                  _BT_load_char 0C7F  
                   itoa@value 0079            __end_of__stringtab 0013                      ___xxtofl 009A  
                    __ptext10 0C8F                      __ptext11 0F5E                      __ptext12 0D1B  
                    __ptext13 0CC8                      __ptext14 0CDC                      __ptext15 0C78  
                    __ptext16 0CB4                      __ptext17 0CA0                      __ptext18 0CF5  
                    __ptext19 0C7F         updateWifiCounter@temp 0020          BT_load_string@string 0071  
                  _LCD_string 0D1B                     stringcode 000D             _updateWifiCounter 0154  
                 _wifiCounter 0067                      stringdir 000D                      stringtab 0003  
          ?_updateWifiCounter 0070           ??_updateWifiCounter 0079                 ?_broadcast_BT 0070  
