

Microchip MPLAB XC8 Assembler V2.36 build 20220127204148 
                                                                                               Wed Dec 07 18:59:53 2022

Microchip MPLAB XC8 C Compiler v2.36 (Free license) build 20220127204148 Og1 
     1                           	processor	16F877A
     2                           	pagewidth 120
     3                           	opt	flic
     4                           	psect	idataBANK0,global,class=CODE,delta=2,noexec
     5                           	psect	strings,global,class=STRING,delta=2,noexec
     6                           	psect	cinit,global,class=CODE,merge=1,delta=2
     7                           	psect	bssBANK0,global,class=BANK0,space=1,delta=1,noexec
     8                           	psect	dataBANK0,global,class=BANK0,space=1,delta=1,noexec
     9                           	psect	cstackCOMMON,global,class=COMMON,space=1,delta=1,noexec
    10                           	psect	cstackBANK0,global,class=BANK0,space=1,delta=1,noexec
    11                           	psect	maintext,global,class=CODE,split=1,delta=2
    12                           	psect	text1,local,class=CODE,merge=1,delta=2
    13                           	psect	text2,local,class=CODE,merge=1,delta=2,group=1
    14                           	psect	text3,local,class=CODE,merge=1,delta=2,group=1
    15                           	psect	text4,local,class=CODE,merge=1,delta=2
    16                           	psect	text5,local,class=CODE,merge=1,delta=2
    17                           	psect	text6,local,class=CODE,merge=1,delta=2
    18                           	psect	text7,local,class=CODE,merge=1,delta=2,group=1
    19                           	psect	text8,local,class=CODE,merge=1,delta=2,group=1
    20                           	psect	text9,local,class=CODE,merge=1,delta=2,group=1
    21                           	psect	text10,local,class=CODE,merge=1,delta=2
    22                           	psect	text11,local,class=CODE,merge=1,delta=2
    23                           	psect	text12,local,class=CODE,merge=1,delta=2
    24                           	psect	text13,local,class=CODE,merge=1,delta=2
    25                           	psect	text14,local,class=CODE,merge=1,delta=2
    26                           	psect	text15,local,class=CODE,merge=1,delta=2
    27                           	psect	text16,local,class=CODE,merge=1,delta=2
    28                           	psect	idloc,global,abs,ovrld,class=IDLOC,space=5,delta=2,noexec
    29                           	psect	config,global,abs,ovrld,class=CONFIG,space=4,delta=2,noexec
    30                           	dabs	1,0x7E,2
    31  0000                     
    32                           ; Version 2.40
    33                           ; Generated 17/11/2021 GMT
    34                           ; 
    35                           ; Copyright © 2021, Microchip Technology Inc. and its subsidiaries ("Microchip")
    36                           ; All rights reserved.
    37                           ; 
    38                           ; This software is developed by Microchip Technology Inc. and its subsidiaries ("Microch
      +                          ip").
    39                           ; 
    40                           ; Redistribution and use in source and binary forms, with or without modification, are
    41                           ; permitted provided that the following conditions are met:
    42                           ; 
    43                           ;     1. Redistributions of source code must retain the above copyright notice, this lis
      +                          t of
    44                           ;        conditions and the following disclaimer.
    45                           ; 
    46                           ;     2. Redistributions in binary form must reproduce the above copyright notice, this 
      +                          list
    47                           ;        of conditions and the following disclaimer in the documentation and/or other
    48                           ;        materials provided with the distribution. Publication is not required when
    49                           ;        this file is used in an embedded application.
    50                           ; 
    51                           ;     3. Microchip's name may not be used to endorse or promote products derived from th
      +                          is
    52                           ;        software without specific prior written permission.
    53                           ; 
    54                           ; THIS SOFTWARE IS PROVIDED BY MICROCHIP "AS IS" AND ANY EXPRESS OR IMPLIED WARRANTIES,
    55                           ; INCLUDING, BUT NOT LIMITED TO, THE IMPLIED WARRANTIES OF MERCHANTABILITY AND FITNESS F
      +                          OR
    56                           ; PURPOSE ARE DISCLAIMED.  IN NO EVENT SHALL MICROCHIP BE LIABLE FOR ANY DIRECT, INDIREC
      +                          T,
    57                           ; INCIDENTAL, SPECIAL, EXEMPLARY, OR CONSEQUENTIAL DAMAGES (INCLUDING BUT NOT LIMITED TO
    58                           ; PROCUREMENT OF SUBSTITUTE GOODS OR SERVICES; LOSS OF USE, DATA OR PROFITS; OR BUSINESS
    59                           ; INTERRUPTION) HOWSOEVER CAUSED AND ON ANY THEORY OF LIABILITY, WHETHER IN CONTRACT, ST
      +                          RICT
    60                           ; LIABILITY, OR TORT (INCLUDING NEGLIGENCE OR OTHERWISE) ARISING IN ANY WAY OUT OF THE U
      +                          SE OF
    61                           ; THIS SOFTWARE, EVEN IF ADVISED OF THE POSSIBILITY OF SUCH DAMAGE.
    62                           ; 
    63                           ; 
    64                           ; Code-generator required, PIC16F877A Definitions
    65                           ; 
    66                           ; SFR Addresses
    67  0000                     	;# 
    68  0001                     	;# 
    69  0002                     	;# 
    70  0003                     	;# 
    71  0004                     	;# 
    72  0005                     	;# 
    73  0006                     	;# 
    74  0007                     	;# 
    75  0008                     	;# 
    76  0009                     	;# 
    77  000A                     	;# 
    78  000B                     	;# 
    79  000C                     	;# 
    80  000D                     	;# 
    81  000E                     	;# 
    82  000E                     	;# 
    83  000F                     	;# 
    84  0010                     	;# 
    85  0011                     	;# 
    86  0012                     	;# 
    87  0013                     	;# 
    88  0014                     	;# 
    89  0015                     	;# 
    90  0015                     	;# 
    91  0016                     	;# 
    92  0017                     	;# 
    93  0018                     	;# 
    94  0019                     	;# 
    95  001A                     	;# 
    96  001B                     	;# 
    97  001B                     	;# 
    98  001C                     	;# 
    99  001D                     	;# 
   100  001E                     	;# 
   101  001F                     	;# 
   102  0081                     	;# 
   103  0085                     	;# 
   104  0086                     	;# 
   105  0087                     	;# 
   106  0088                     	;# 
   107  0089                     	;# 
   108  008C                     	;# 
   109  008D                     	;# 
   110  008E                     	;# 
   111  0091                     	;# 
   112  0092                     	;# 
   113  0093                     	;# 
   114  0094                     	;# 
   115  0098                     	;# 
   116  0099                     	;# 
   117  009C                     	;# 
   118  009D                     	;# 
   119  009E                     	;# 
   120  009F                     	;# 
   121  010C                     	;# 
   122  010D                     	;# 
   123  010E                     	;# 
   124  010F                     	;# 
   125  018C                     	;# 
   126  018D                     	;# 
   127  0000                     	;# 
   128  0001                     	;# 
   129  0002                     	;# 
   130  0003                     	;# 
   131  0004                     	;# 
   132  0005                     	;# 
   133  0006                     	;# 
   134  0007                     	;# 
   135  0008                     	;# 
   136  0009                     	;# 
   137  000A                     	;# 
   138  000B                     	;# 
   139  000C                     	;# 
   140  000D                     	;# 
   141  000E                     	;# 
   142  000E                     	;# 
   143  000F                     	;# 
   144  0010                     	;# 
   145  0011                     	;# 
   146  0012                     	;# 
   147  0013                     	;# 
   148  0014                     	;# 
   149  0015                     	;# 
   150  0015                     	;# 
   151  0016                     	;# 
   152  0017                     	;# 
   153  0018                     	;# 
   154  0019                     	;# 
   155  001A                     	;# 
   156  001B                     	;# 
   157  001B                     	;# 
   158  001C                     	;# 
   159  001D                     	;# 
   160  001E                     	;# 
   161  001F                     	;# 
   162  0081                     	;# 
   163  0085                     	;# 
   164  0086                     	;# 
   165  0087                     	;# 
   166  0088                     	;# 
   167  0089                     	;# 
   168  008C                     	;# 
   169  008D                     	;# 
   170  008E                     	;# 
   171  0091                     	;# 
   172  0092                     	;# 
   173  0093                     	;# 
   174  0094                     	;# 
   175  0098                     	;# 
   176  0099                     	;# 
   177  009C                     	;# 
   178  009D                     	;# 
   179  009E                     	;# 
   180  009F                     	;# 
   181  010C                     	;# 
   182  010D                     	;# 
   183  010E                     	;# 
   184  010F                     	;# 
   185  018C                     	;# 
   186  018D                     	;# 
   187                           
   188                           	psect	idataBANK0
   189  0004                     __pidataBANK0:
   190                           
   191                           ;initializer for _wifiCounter
   192  0004  3401               	retlw	1
   193  0005  3400               	retlw	0
   194                           
   195                           ;initializer for _door_CM
   196  0006  343C               	retlw	60
   197  0007  3400               	retlw	0
   198  000E                     _TMR1	set	14
   199  001A                     _RCREG	set	26
   200  0019                     _TXREG	set	25
   201  0006                     _PORTB	set	6
   202  0043                     _RD3	set	67
   203  0042                     _RD2	set	66
   204  0041                     _RD1	set	65
   205  0081                     _TMR1CS	set	129
   206  0065                     _RCIF	set	101
   207  00C1                     _OERR	set	193
   208  0064                     _TXIF	set	100
   209  00C4                     _CREN	set	196
   210  00C6                     _RX9	set	198
   211  00C7                     _SPEN	set	199
   212  0040                     _RD0	set	64
   213  003B                     _RC3	set	59
   214  003A                     _RC2	set	58
   215  003C                     _RC4	set	60
   216  003D                     _RC5	set	61
   217  0044                     _RD4	set	68
   218  0045                     _RD5	set	69
   219  0085                     _T1CKPS1	set	133
   220  0084                     _T1CKPS0	set	132
   221  0080                     _TMR1ON	set	128
   222  0046                     _RD6	set	70
   223  0047                     _RD7	set	71
   224  0086                     _TRISB	set	134
   225  0099                     _SPBRG	set	153
   226  044A                     _TRISE2	set	1098
   227  0449                     _TRISE1	set	1097
   228  0448                     _TRISE0	set	1096
   229  042D                     _TRISA5	set	1069
   230  042C                     _TRISA4	set	1068
   231  042B                     _TRISA3	set	1067
   232  042A                     _TRISA2	set	1066
   233  0429                     _TRISA1	set	1065
   234  0428                     _TRISA0	set	1064
   235  043C                     _TRISC4	set	1084
   236  043D                     _TRISC5	set	1085
   237  0444                     _TRISD4	set	1092
   238  0445                     _TRISD5	set	1093
   239  0446                     _TRISD6	set	1094
   240  0447                     _TRISD7	set	1095
   241  0443                     _TRISD3	set	1091
   242  0442                     _TRISD2	set	1090
   243  0441                     _TRISD1	set	1089
   244  0440                     _TRISD0	set	1088
   245  043B                     _TRISC3	set	1083
   246  043A                     _TRISC2	set	1082
   247  04C1                     _TRMT	set	1217
   248  04C5                     _TXEN	set	1221
   249  04C6                     _TX9	set	1222
   250  04C4                     _SYNC	set	1220
   251  04C2                     _BRGH	set	1218
   252  043F                     _TRISC7	set	1087
   253  043E                     _TRISC6	set	1086
   254                           
   255                           	psect	strings
   256  0800                     __pstrings:
   257  0800                     stringtab:
   258  0800                     __stringtab:
   259                           
   260                           ;	String table - string pointers are 1 byte each
   261  0800  1BFF               	btfsc	btemp+1,7
   262  0801  280A               	ljmp	stringcode
   263  0802  1383               	bcf	3,7
   264  0803  187F               	btfsc	btemp+1,0
   265  0804  1783               	bsf	3,7
   266  0805  0800               	movf	0,w
   267  0806  0A84               	incf	4,f
   268  0807  1903               	skipnz
   269  0808  0AFF               	incf	btemp+1,f
   270  0809  0008               	return
   271  080A                     stringcode:
   272  080A                     stringdir:
   273  080A  3008               	movlw	high stringdir
   274  080B  008A               	movwf	10
   275  080C  0804               	movf	4,w
   276  080D  0A84               	incf	4,f
   277  080E  0782               	addwf	2,f
   278  080F                     __stringbase:
   279  080F  3400               	retlw	0
   280  0810                     __end_of__stringtab:
   281  0810                     STR_1:
   282  0810  3435               	retlw	53	;'5'
   283  0811  342D               	retlw	45	;'-'
   284  0812  3437               	retlw	55	;'7'
   285  0813  3420               	retlw	32	;' '
   286  0814  3437               	retlw	55	;'7'
   287  0815  342D               	retlw	45	;'-'
   288  0816  3439               	retlw	57	;'9'
   289  0817  3420               	retlw	32	;' '
   290  0818  346F               	retlw	111	;'o'
   291  0819  3476               	retlw	118	;'v'
   292  081A  3465               	retlw	101	;'e'
   293  081B  3472               	retlw	114	;'r'
   294  081C  3420               	retlw	32	;' '
   295  081D  3439               	retlw	57	;'9'
   296  081E  3400               	retlw	0
   297  081F                     STR_2:
   298  081F  3430               	retlw	48	;'0'
   299  0820  3400               	retlw	0
   300  081F                     
   301                           	psect	cinit
   302  07D8                     start_initialization:	
   303                           ; #config settings
   304                           
   305  07D8                     __initialization:
   306                           
   307                           ; Initialize objects allocated to BANK0
   308  07D8  120A  118A  2004  120A  118A  	fcall	__pidataBANK0	;fetch initializer
   309  07DD  00E7               	movwf	__pdataBANK0& (0+127)
   310  07DE  120A  118A  2005  120A  118A  	fcall	__pidataBANK0+1	;fetch initializer
   311  07E3  00E8               	movwf	(__pdataBANK0+1)& (0+127)
   312  07E4  120A  118A  2006  120A  118A  	fcall	__pidataBANK0+2	;fetch initializer
   313  07E9  00E9               	movwf	(__pdataBANK0+2)& (0+127)
   314  07EA  120A  118A  2007  120A  118A  	fcall	__pidataBANK0+3	;fetch initializer
   315  07EF  00EA               	movwf	(__pdataBANK0+3)& (0+127)
   316                           
   317                           ; Clear objects allocated to BANK0
   318  07F0  01DB               	clrf	__pbssBANK0& (0+127)
   319  07F1  01DC               	clrf	(__pbssBANK0+1)& (0+127)
   320  07F2  01DD               	clrf	(__pbssBANK0+2)& (0+127)
   321  07F3  01DE               	clrf	(__pbssBANK0+3)& (0+127)
   322  07F4  01DF               	clrf	(__pbssBANK0+4)& (0+127)
   323  07F5  01E0               	clrf	(__pbssBANK0+5)& (0+127)
   324  07F6  01E1               	clrf	(__pbssBANK0+6)& (0+127)
   325  07F7  01E2               	clrf	(__pbssBANK0+7)& (0+127)
   326  07F8  01E3               	clrf	(__pbssBANK0+8)& (0+127)
   327  07F9  01E4               	clrf	(__pbssBANK0+9)& (0+127)
   328  07FA  01E5               	clrf	(__pbssBANK0+10)& (0+127)
   329  07FB  01E6               	clrf	(__pbssBANK0+11)& (0+127)
   330  07FC                     end_of_initialization:	
   331                           ;End of C runtime variable initialization code
   332                           
   333  07FC                     __end_of__initialization:
   334  07FC  0183               	clrf	3
   335  07FD  120A  118A  2D9D   	ljmp	_main	;jump to C main() function
   336                           
   337                           	psect	bssBANK0
   338  005B                     __pbssBANK0:
   339  005B                     itoa@buffer:
   340  005B                     	ds	12
   341                           
   342                           	psect	dataBANK0
   343  0067                     __pdataBANK0:
   344  0067                     _wifiCounter:
   345  0067                     	ds	2
   346  0069                     _door_CM:
   347  0069                     	ds	2
   348                           
   349                           	psect	cstackCOMMON
   350  0070                     __pcstackCOMMON:
   351  0070                     ?___flge:
   352  0070                     ?_LCD_Data:	
   353                           ; 1 bit 
   354                           
   355  0070                     ??_LCD_Data:	
   356                           ; 1 bytes @ 0x0
   357                           
   358  0070                     ?_LCD_Command:	
   359                           ; 1 bytes @ 0x0
   360                           
   361  0070                     ??_LCD_Command:	
   362                           ; 1 bytes @ 0x0
   363                           
   364  0070                     ?_LCD_init:	
   365                           ; 1 bytes @ 0x0
   366                           
   367  0070                     ?_LCD_Clear:	
   368                           ; 1 bytes @ 0x0
   369                           
   370  0070                     ?_Initialize_Bluetooth:	
   371                           ; 1 bytes @ 0x0
   372                           
   373  0070                     ??_Initialize_Bluetooth:	
   374                           ; 1 bytes @ 0x0
   375                           
   376  0070                     ?_BT_load_char:	
   377                           ; 1 bytes @ 0x0
   378                           
   379  0070                     ??_BT_load_char:	
   380                           ; 1 bytes @ 0x0
   381                           
   382  0070                     ?_main:	
   383                           ; 1 bytes @ 0x0
   384                           
   385  0070                     ?___awdiv:	
   386                           ; 1 bytes @ 0x0
   387                           
   388  0070                     ?___awmod:	
   389                           ; 2 bytes @ 0x0
   390                           
   391  0070                     ?___xxtofl:	
   392                           ; 2 bytes @ 0x0
   393                           
   394  0070                     BT_load_char@byte:	
   395                           ; 4 bytes @ 0x0
   396                           
   397  0070                     ___awdiv@divisor:	
   398                           ; 1 bytes @ 0x0
   399                           
   400  0070                     ___awmod@divisor:	
   401                           ; 2 bytes @ 0x0
   402                           
   403  0070                     ___flge@ff1:	
   404                           ; 2 bytes @ 0x0
   405                           
   406  0070                     ___xxtofl@val:	
   407                           ; 4 bytes @ 0x0
   408                           
   409                           
   410                           ; 4 bytes @ 0x0
   411  0070                     	ds	2
   412  0072                     LCD_Data@data:
   413  0072                     LCD_Command@cmd:	
   414                           ; 1 bytes @ 0x2
   415                           
   416  0072                     ___awdiv@dividend:	
   417                           ; 1 bytes @ 0x2
   418                           
   419  0072                     ___awmod@dividend:	
   420                           ; 2 bytes @ 0x2
   421                           
   422                           
   423                           ; 2 bytes @ 0x2
   424  0072                     	ds	1
   425  0073                     ??_LCD_init:
   426  0073                     ?_LCD_string:	
   427                           ; 1 bytes @ 0x3
   428                           
   429  0073                     ??_LCD_Clear:	
   430                           ; 1 bytes @ 0x3
   431                           
   432  0073                     LCD_string@str:	
   433                           ; 1 bytes @ 0x3
   434                           
   435                           
   436                           ; 2 bytes @ 0x3
   437  0073                     	ds	1
   438  0074                     ??___awdiv:
   439  0074                     ??___awmod:	
   440                           ; 1 bytes @ 0x4
   441                           
   442  0074                     ??___xxtofl:	
   443                           ; 1 bytes @ 0x4
   444                           
   445  0074                     ___flge@ff2:	
   446                           ; 1 bytes @ 0x4
   447                           
   448                           
   449                           ; 4 bytes @ 0x4
   450  0074                     	ds	1
   451  0075                     ??_LCD_string:
   452  0075                     ___awdiv@counter:	
   453                           ; 1 bytes @ 0x5
   454                           
   455  0075                     ___awmod@counter:	
   456                           ; 1 bytes @ 0x5
   457                           
   458  0075                     LCD_string@i:	
   459                           ; 1 bytes @ 0x5
   460                           
   461                           
   462                           ; 2 bytes @ 0x5
   463  0075                     	ds	1
   464  0076                     ___awdiv@sign:
   465  0076                     ___awmod@sign:	
   466                           ; 1 bytes @ 0x6
   467                           
   468                           
   469                           ; 1 bytes @ 0x6
   470  0076                     	ds	1
   471  0077                     ___awdiv@quotient:
   472                           
   473                           ; 2 bytes @ 0x7
   474  0077                     	ds	1
   475  0078                     ??___flge:
   476  0078                     ___xxtofl@sign:	
   477                           ; 1 bytes @ 0x8
   478                           
   479                           
   480                           ; 1 bytes @ 0x8
   481  0078                     	ds	1
   482  0079                     ?_itoa:
   483  0079                     ___xxtofl@exp:	
   484                           ; 1 bytes @ 0x9
   485                           
   486  0079                     itoa@value:	
   487                           ; 1 bytes @ 0x9
   488                           
   489                           
   490                           ; 2 bytes @ 0x9
   491  0079                     	ds	1
   492  007A                     ___xxtofl@arg:
   493                           
   494                           ; 4 bytes @ 0xA
   495  007A                     	ds	1
   496  007B                     ??_itoa:
   497                           
   498                           ; 1 bytes @ 0xB
   499  007B                     	ds	3
   500                           
   501                           	psect	cstackBANK0
   502  0020                     __pcstackBANK0:
   503  0020                     ?___fldiv:
   504  0020                     itoa@original:	
   505                           ; 4 bytes @ 0x0
   506                           
   507  0020                     ___fldiv@a:	
   508                           ; 2 bytes @ 0x0
   509                           
   510                           
   511                           ; 4 bytes @ 0x0
   512  0020                     	ds	2
   513  0022                     itoa@c:
   514                           
   515                           ; 2 bytes @ 0x2
   516  0022                     	ds	2
   517  0024                     ___fldiv@b:
   518                           
   519                           ; 4 bytes @ 0x4
   520  0024                     	ds	4
   521  0028                     ??___fldiv:
   522                           
   523                           ; 1 bytes @ 0x8
   524  0028                     	ds	5
   525  002D                     ___fldiv@rem:
   526                           
   527                           ; 4 bytes @ 0xD
   528  002D                     	ds	4
   529  0031                     ___fldiv@sign:
   530                           
   531                           ; 1 bytes @ 0x11
   532  0031                     	ds	1
   533  0032                     ___fldiv@new_exp:
   534                           
   535                           ; 2 bytes @ 0x12
   536  0032                     	ds	2
   537  0034                     ___fldiv@grs:
   538                           
   539                           ; 4 bytes @ 0x14
   540  0034                     	ds	4
   541  0038                     ___fldiv@bexp:
   542                           
   543                           ; 1 bytes @ 0x18
   544  0038                     	ds	1
   545  0039                     ___fldiv@aexp:
   546                           
   547                           ; 1 bytes @ 0x19
   548  0039                     	ds	1
   549  003A                     ?_dist1:
   550  003A                     ?_dist2:	
   551                           ; 4 bytes @ 0x1A
   552                           
   553  003A                     ?_dist3:	
   554                           ; 4 bytes @ 0x1A
   555                           
   556                           
   557                           ; 4 bytes @ 0x1A
   558  003A                     	ds	4
   559  003E                     ??_dist1:
   560  003E                     ??_dist2:	
   561                           ; 1 bytes @ 0x1E
   562                           
   563  003E                     ??_dist3:	
   564                           ; 1 bytes @ 0x1E
   565                           
   566                           
   567                           ; 1 bytes @ 0x1E
   568  003E                     	ds	1
   569  003F                     dist1@distance1:
   570  003F                     dist2@distance2:	
   571                           ; 4 bytes @ 0x1F
   572                           
   573  003F                     dist3@distance3:	
   574                           ; 4 bytes @ 0x1F
   575                           
   576                           
   577                           ; 4 bytes @ 0x1F
   578  003F                     	ds	4
   579  0043                     ??_main:
   580                           
   581                           ; 1 bytes @ 0x23
   582  0043                     	ds	3
   583  0046                     main@c3:
   584                           
   585                           ; 1 bytes @ 0x26
   586  0046                     	ds	1
   587  0047                     main@c2:
   588                           
   589                           ; 1 bytes @ 0x27
   590  0047                     	ds	1
   591  0048                     main@c1:
   592                           
   593                           ; 1 bytes @ 0x28
   594  0048                     	ds	1
   595  0049                     main@distance1:
   596                           
   597                           ; 4 bytes @ 0x29
   598  0049                     	ds	4
   599  004D                     main@distance2:
   600                           
   601                           ; 4 bytes @ 0x2D
   602  004D                     	ds	4
   603  0051                     main@distance3:
   604                           
   605                           ; 4 bytes @ 0x31
   606  0051                     	ds	4
   607  0055                     main@count3:
   608                           
   609                           ; 2 bytes @ 0x35
   610  0055                     	ds	2
   611  0057                     main@count2:
   612                           
   613                           ; 2 bytes @ 0x37
   614  0057                     	ds	2
   615  0059                     main@count1:
   616                           
   617                           ; 2 bytes @ 0x39
   618  0059                     	ds	2
   619                           
   620                           	psect	maintext
   621  059D                     __pmaintext:	
   622 ;;
   623 ;;Main: autosize = 0, tempsize = 3, incstack = 0, save=0
   624 ;;
   625 ;; *************** function _main *****************
   626 ;; Defined at:
   627 ;;		line 29 in file "mainBT.c"
   628 ;; Parameters:    Size  Location     Type
   629 ;;		None
   630 ;; Auto vars:     Size  Location     Type
   631 ;;  distance3       4   49[BANK0 ] float 
   632 ;;  distance2       4   45[BANK0 ] float 
   633 ;;  distance1       4   41[BANK0 ] float 
   634 ;;  count1          2   57[BANK0 ] int 
   635 ;;  count2          2   55[BANK0 ] int 
   636 ;;  count3          2   53[BANK0 ] int 
   637 ;;  c1              1   40[BANK0 ] unsigned char 
   638 ;;  c2              1   39[BANK0 ] unsigned char 
   639 ;;  c3              1   38[BANK0 ] unsigned char 
   640 ;; Return value:  Size  Location     Type
   641 ;;                  1    wreg      void 
   642 ;; Registers used:
   643 ;;		wreg, fsr0l, fsr0h, status,2, status,0, btemp+1, pclath, cstack
   644 ;; Tracked objects:
   645 ;;		On entry : B00/0
   646 ;;		On exit  : 0/0
   647 ;;		Unchanged: 0/0
   648 ;; Data sizes:     COMMON   BANK0   BANK1   BANK3   BANK2
   649 ;;      Params:         0       0       0       0       0
   650 ;;      Locals:         0      21       0       0       0
   651 ;;      Temps:          0       3       0       0       0
   652 ;;      Totals:         0      24       0       0       0
   653 ;;Total ram usage:       24 bytes
   654 ;; Hardware stack levels required when called: 2
   655 ;; This function calls:
   656 ;;		_BT_load_char
   657 ;;		_Initialize_Bluetooth
   658 ;;		_LCD_Clear
   659 ;;		_LCD_Command
   660 ;;		_LCD_init
   661 ;;		_LCD_string
   662 ;;		___flge
   663 ;;		_dist1
   664 ;;		_dist2
   665 ;;		_dist3
   666 ;;		_itoa
   667 ;; This function is called by:
   668 ;;		Startup code after reset
   669 ;; This function uses a non-reentrant model
   670 ;;
   671                           
   672  059D                     _main:	
   673                           ;psect for function _main
   674                           
   675  059D                     l1834:	
   676                           ;incstack = 0
   677                           ; Regs used in _main: [wreg-fsr0h+status,2+status,0+btemp+1+pclath+cstack]
   678                           
   679                           
   680                           ;mainBT.c: 30:   TRISB = 0;
   681  059D  1683               	bsf	3,5	;RP0=1, select bank1
   682  059E  1303               	bcf	3,6	;RP1=0, select bank1
   683  059F  0186               	clrf	6	;volatile
   684  05A0                     l1836:
   685                           
   686                           ;mainBT.c: 31:   TRISC2 = 0;
   687  05A0  1107               	bcf	7,2	;volatile
   688  05A1                     l1838:
   689                           
   690                           ;mainBT.c: 32:   TRISC3 = 0;
   691  05A1  1187               	bcf	7,3	;volatile
   692  05A2                     l1840:
   693                           
   694                           ;mainBT.c: 33:   TRISD0 = 0;
   695  05A2  1008               	bcf	8,0	;volatile
   696  05A3                     l1842:
   697                           
   698                           ;mainBT.c: 35:   TRISD1 = 0;
   699  05A3  1088               	bcf	8,1	;volatile
   700  05A4                     l1844:
   701                           
   702                           ;mainBT.c: 36:   TRISD2 = 0;
   703  05A4  1108               	bcf	8,2	;volatile
   704  05A5                     l1846:
   705                           
   706                           ;mainBT.c: 37:   TRISD3 = 0;
   707  05A5  1188               	bcf	8,3	;volatile
   708  05A6                     l1848:
   709                           
   710                           ;mainBT.c: 39:   TRISD7 = 0;
   711  05A6  1388               	bcf	8,7	;volatile
   712  05A7                     l1850:
   713                           
   714                           ;mainBT.c: 40:   TRISD6 = 1;
   715  05A7  1708               	bsf	8,6	;volatile
   716  05A8                     l1852:
   717                           
   718                           ;mainBT.c: 41:   TRISD5 = 0;
   719  05A8  1288               	bcf	8,5	;volatile
   720  05A9                     l1854:
   721                           
   722                           ;mainBT.c: 42:   TRISD4 = 1;
   723  05A9  1608               	bsf	8,4	;volatile
   724  05AA                     l1856:
   725                           
   726                           ;mainBT.c: 43:   TRISC5 = 0;
   727  05AA  1287               	bcf	7,5	;volatile
   728  05AB                     l1858:
   729                           
   730                           ;mainBT.c: 44:   TRISC4 = 1;
   731  05AB  1607               	bsf	7,4	;volatile
   732  05AC                     l1860:
   733                           
   734                           ;mainBT.c: 46:   T1CKPS0 = 0;
   735  05AC  1283               	bcf	3,5	;RP0=0, select bank0
   736  05AD  1303               	bcf	3,6	;RP1=0, select bank0
   737  05AE  1210               	bcf	16,4	;volatile
   738  05AF                     l1862:
   739                           
   740                           ;mainBT.c: 47:   T1CKPS1 = 0;
   741  05AF  1290               	bcf	16,5	;volatile
   742  05B0                     l1864:
   743                           
   744                           ;mainBT.c: 49:   TMR1CS = 0;
   745  05B0  1090               	bcf	16,1	;volatile
   746  05B1                     l1866:
   747                           
   748                           ;mainBT.c: 51:   TRISA0 = 0;
   749  05B1  1683               	bsf	3,5	;RP0=1, select bank1
   750  05B2  1303               	bcf	3,6	;RP1=0, select bank1
   751  05B3  1005               	bcf	5,0	;volatile
   752  05B4                     l1868:
   753                           
   754                           ;mainBT.c: 52:   TRISA1 = 0;
   755  05B4  1085               	bcf	5,1	;volatile
   756  05B5                     l1870:
   757                           
   758                           ;mainBT.c: 53:   TRISA2 = 0;
   759  05B5  1105               	bcf	5,2	;volatile
   760  05B6                     l1872:
   761                           
   762                           ;mainBT.c: 54:   TRISA3 = 0;
   763  05B6  1185               	bcf	5,3	;volatile
   764  05B7                     l1874:
   765                           
   766                           ;mainBT.c: 55:   TRISA4 = 0;
   767  05B7  1205               	bcf	5,4	;volatile
   768  05B8                     l1876:
   769                           
   770                           ;mainBT.c: 56:   TRISA5 = 0;
   771  05B8  1285               	bcf	5,5	;volatile
   772  05B9                     l1878:
   773                           
   774                           ;mainBT.c: 57:   TRISE0 = 0;
   775  05B9  1009               	bcf	9,0	;volatile
   776  05BA                     l1880:
   777                           
   778                           ;mainBT.c: 58:   TRISE1 = 0;
   779  05BA  1089               	bcf	9,1	;volatile
   780  05BB                     l1882:
   781                           
   782                           ;mainBT.c: 59:   TRISE2 = 0;
   783  05BB  1109               	bcf	9,2	;volatile
   784                           
   785                           ;mainBT.c: 61:   float distance1;;mainBT.c: 62:   float distance2;;mainBT.c: 63:   float
      +                           distance3;;mainBT.c: 65:   int count3 = 0;
   786  05BC  1283               	bcf	3,5	;RP0=0, select bank0
   787  05BD  1303               	bcf	3,6	;RP1=0, select bank0
   788  05BE  01D5               	clrf	main@count3
   789  05BF  01D6               	clrf	main@count3+1
   790                           
   791                           ;mainBT.c: 66:   int count2 = 0;
   792  05C0  01D7               	clrf	main@count2
   793  05C1  01D8               	clrf	main@count2+1
   794                           
   795                           ;mainBT.c: 67:   int count1 = 0;
   796  05C2  01D9               	clrf	main@count1
   797  05C3  01DA               	clrf	main@count1+1
   798  05C4                     l1884:
   799                           
   800                           ;mainBT.c: 68:   unsigned char c3;;mainBT.c: 69:   unsigned char c2;;mainBT.c: 70:   uns
      +                          igned char c1;;mainBT.c: 72:   Initialize_Bluetooth();
   801  05C4  120A  158A  27C4  120A  118A  	fcall	_Initialize_Bluetooth
   802  05C9                     l1886:
   803                           
   804                           ;mainBT.c: 74:   LCD_init();
   805  05C9  120A  118A  2008  120A  118A  	fcall	_LCD_init
   806  05CE                     l1888:
   807                           
   808                           ;mainBT.c: 75:   LCD_Clear();
   809  05CE  120A  158A  27AD  120A  118A  	fcall	_LCD_Clear
   810  05D3                     l1890:
   811                           
   812                           ;mainBT.c: 76:   LCD_Command(0x80);
   813  05D3  3080               	movlw	128
   814  05D4  120A  158A  27D8  120A  118A  	fcall	_LCD_Command
   815  05D9                     l1892:
   816                           
   817                           ;mainBT.c: 77:   LCD_string("5-7 7-9 over 9");
   818  05D9  3001               	movlw	(low ((STR_1-__stringbase)| (0+32768)))& (0+255)
   819  05DA  00F3               	movwf	LCD_string@str
   820  05DB  3080               	movlw	128
   821  05DC  00F4               	movwf	LCD_string@str+1
   822  05DD  120A  118A  2021  120A  118A  	fcall	_LCD_string
   823  05E2                     l1894:
   824                           
   825                           ;mainBT.c: 78:   LCD_Command(0xC0);
   826  05E2  30C0               	movlw	192
   827  05E3  120A  158A  27D8  120A  118A  	fcall	_LCD_Command
   828  05E8                     l1896:
   829                           
   830                           ;mainBT.c: 79:   LCD_string("0");
   831  05E8  3010               	movlw	(low ((STR_2-__stringbase)| (0+32768)))& (0+255)
   832  05E9  00F3               	movwf	LCD_string@str
   833  05EA  3080               	movlw	128
   834  05EB  00F4               	movwf	LCD_string@str+1
   835  05EC  120A  118A  2021  120A  118A  	fcall	_LCD_string
   836  05F1                     l1898:
   837                           
   838                           ;mainBT.c: 80:   LCD_Command(0xC5);
   839  05F1  30C5               	movlw	197
   840  05F2  120A  158A  27D8  120A  118A  	fcall	_LCD_Command
   841  05F7                     l1900:
   842                           
   843                           ;mainBT.c: 81:   LCD_string("0");
   844  05F7  3010               	movlw	(low ((STR_2-__stringbase)| (0+32768)))& (0+255)
   845  05F8  00F3               	movwf	LCD_string@str
   846  05F9  3080               	movlw	128
   847  05FA  00F4               	movwf	LCD_string@str+1
   848  05FB  120A  118A  2021  120A  118A  	fcall	_LCD_string
   849  0600                     l1902:
   850                           
   851                           ;mainBT.c: 82:   LCD_Command(0xCC);
   852  0600  30CC               	movlw	204
   853  0601  120A  158A  27D8  120A  118A  	fcall	_LCD_Command
   854  0606                     l1904:
   855                           
   856                           ;mainBT.c: 83:   LCD_string("0");
   857  0606  3010               	movlw	(low ((STR_2-__stringbase)| (0+32768)))& (0+255)
   858  0607  00F3               	movwf	LCD_string@str
   859  0608  3080               	movlw	128
   860  0609  00F4               	movwf	LCD_string@str+1
   861  060A  120A  118A  2021  120A  118A  	fcall	_LCD_string
   862  060F                     l1906:
   863                           
   864                           ;mainBT.c: 84:   _delay((unsigned long)((500)*(4000000/4000.0)));
   865  060F  3003               	movlw	3
   866  0610  1283               	bcf	3,5	;RP0=0, select bank0
   867  0611  1303               	bcf	3,6	;RP1=0, select bank0
   868  0612  00C5               	movwf	??_main+2
   869  0613  308A               	movlw	138
   870  0614  00C4               	movwf	??_main+1
   871  0615  3055               	movlw	85
   872  0616  00C3               	movwf	??_main
   873  0617                     u1807:
   874  0617  0BC3               	decfsz	??_main,f
   875  0618  2E17               	goto	u1807
   876  0619  0BC4               	decfsz	??_main+1,f
   877  061A  2E17               	goto	u1807
   878  061B  0BC5               	decfsz	??_main+2,f
   879  061C  2E17               	goto	u1807
   880  061D                     l1908:
   881                           
   882                           ;mainBT.c: 88:     RD1=0;
   883  061D  1283               	bcf	3,5	;RP0=0, select bank0
   884  061E  1303               	bcf	3,6	;RP1=0, select bank0
   885  061F  1088               	bcf	8,1	;volatile
   886  0620                     l1910:
   887                           
   888                           ;mainBT.c: 89:     RD2=0;
   889  0620  1108               	bcf	8,2	;volatile
   890  0621                     l1912:
   891                           
   892                           ;mainBT.c: 90:     RD3=0;
   893  0621  1188               	bcf	8,3	;volatile
   894  0622                     l1914:
   895                           
   896                           ;mainBT.c: 92:     _delay((unsigned long)((50)*(4000000/4000.0)));
   897  0622  3041               	movlw	65
   898  0623  1283               	bcf	3,5	;RP0=0, select bank0
   899  0624  1303               	bcf	3,6	;RP1=0, select bank0
   900  0625  00C4               	movwf	??_main+1
   901  0626  30ED               	movlw	237
   902  0627  00C3               	movwf	??_main
   903  0628                     u1817:
   904  0628  0BC3               	decfsz	??_main,f
   905  0629  2E28               	goto	u1817
   906  062A  0BC4               	decfsz	??_main+1,f
   907  062B  2E28               	goto	u1817
   908  062C  2E2D               	nop2
   909  062D                     l1916:
   910                           
   911                           ;mainBT.c: 93:     distance3 = dist3();
   912  062D  120A  118A  20F3  120A  118A  	fcall	_dist3
   913  0632  1283               	bcf	3,5	;RP0=0, select bank0
   914  0633  1303               	bcf	3,6	;RP1=0, select bank0
   915  0634  083D               	movf	?_dist3+3,w
   916  0635  00D4               	movwf	main@distance3+3
   917  0636  083C               	movf	?_dist3+2,w
   918  0637  00D3               	movwf	main@distance3+2
   919  0638  083B               	movf	?_dist3+1,w
   920  0639  00D2               	movwf	main@distance3+1
   921  063A  083A               	movf	?_dist3,w
   922  063B  00D1               	movwf	main@distance3
   923  063C                     l1918:
   924                           
   925                           ;mainBT.c: 94:     if(distance3 > door_CM){_delay((unsigned long)((500)*(4000000/4000.0)
      +                          ));}
   926  063C  3042               	movlw	66
   927  063D  00F3               	movwf	___flge@ff1+3
   928  063E  3070               	movlw	112
   929  063F  00F2               	movwf	___flge@ff1+2
   930  0640  3000               	movlw	0
   931  0641  00F1               	movwf	___flge@ff1+1
   932  0642  3000               	movlw	0
   933  0643  00F0               	movwf	___flge@ff1
   934  0644  0854               	movf	main@distance3+3,w
   935  0645  00F7               	movwf	___flge@ff2+3
   936  0646  0853               	movf	main@distance3+2,w
   937  0647  00F6               	movwf	___flge@ff2+2
   938  0648  0852               	movf	main@distance3+1,w
   939  0649  00F5               	movwf	___flge@ff2+1
   940  064A  0851               	movf	main@distance3,w
   941  064B  00F4               	movwf	___flge@ff2
   942  064C  120A  118A  2264  120A  118A  	fcall	___flge
   943  0651  1803               	btfsc	3,0
   944  0652  2E54               	goto	u1741
   945  0653  2E55               	goto	u1740
   946  0654                     u1741:
   947  0654  2E63               	goto	l1922
   948  0655                     u1740:
   949  0655                     l1920:
   950  0655  3003               	movlw	3
   951  0656  1283               	bcf	3,5	;RP0=0, select bank0
   952  0657  1303               	bcf	3,6	;RP1=0, select bank0
   953  0658  00C5               	movwf	??_main+2
   954  0659  308A               	movlw	138
   955  065A  00C4               	movwf	??_main+1
   956  065B  3055               	movlw	85
   957  065C  00C3               	movwf	??_main
   958  065D                     u1827:
   959  065D  0BC3               	decfsz	??_main,f
   960  065E  2E5D               	goto	u1827
   961  065F  0BC4               	decfsz	??_main+1,f
   962  0660  2E5D               	goto	u1827
   963  0661  0BC5               	decfsz	??_main+2,f
   964  0662  2E5D               	goto	u1827
   965  0663                     l1922:
   966                           
   967                           ;mainBT.c: 95:     if(distance3 < door_CM){
   968  0663  1283               	bcf	3,5	;RP0=0, select bank0
   969  0664  1303               	bcf	3,6	;RP1=0, select bank0
   970  0665  0854               	movf	main@distance3+3,w
   971  0666  00F3               	movwf	___flge@ff1+3
   972  0667  0853               	movf	main@distance3+2,w
   973  0668  00F2               	movwf	___flge@ff1+2
   974  0669  0852               	movf	main@distance3+1,w
   975  066A  00F1               	movwf	___flge@ff1+1
   976  066B  0851               	movf	main@distance3,w
   977  066C  00F0               	movwf	___flge@ff1
   978  066D  3042               	movlw	66
   979  066E  00F7               	movwf	___flge@ff2+3
   980  066F  3070               	movlw	112
   981  0670  00F6               	movwf	___flge@ff2+2
   982  0671  3000               	movlw	0
   983  0672  00F5               	movwf	___flge@ff2+1
   984  0673  3000               	movlw	0
   985  0674  00F4               	movwf	___flge@ff2
   986  0675  120A  118A  2264  120A  118A  	fcall	___flge
   987  067A  1803               	btfsc	3,0
   988  067B  2E7D               	goto	u1751
   989  067C  2E7E               	goto	u1750
   990  067D                     u1751:
   991  067D  2E1D               	goto	l1908
   992  067E                     u1750:
   993  067E                     l1924:
   994                           
   995                           ;mainBT.c: 96:       RD1=1;
   996  067E  1283               	bcf	3,5	;RP0=0, select bank0
   997  067F  1303               	bcf	3,6	;RP1=0, select bank0
   998  0680  1488               	bsf	8,1	;volatile
   999  0681                     l1926:
  1000                           
  1001                           ;mainBT.c: 97:       distance2=dist2();
  1002  0681  120A  118A  20A2  120A  118A  	fcall	_dist2
  1003  0686  1283               	bcf	3,5	;RP0=0, select bank0
  1004  0687  1303               	bcf	3,6	;RP1=0, select bank0
  1005  0688  083D               	movf	?_dist2+3,w
  1006  0689  00D0               	movwf	main@distance2+3
  1007  068A  083C               	movf	?_dist2+2,w
  1008  068B  00CF               	movwf	main@distance2+2
  1009  068C  083B               	movf	?_dist2+1,w
  1010  068D  00CE               	movwf	main@distance2+1
  1011  068E  083A               	movf	?_dist2,w
  1012  068F  00CD               	movwf	main@distance2
  1013  0690                     l1928:
  1014                           
  1015                           ;mainBT.c: 98:       if(distance2 > door_CM){
  1016  0690  3042               	movlw	66
  1017  0691  00F3               	movwf	___flge@ff1+3
  1018  0692  3070               	movlw	112
  1019  0693  00F2               	movwf	___flge@ff1+2
  1020  0694  3000               	movlw	0
  1021  0695  00F1               	movwf	___flge@ff1+1
  1022  0696  3000               	movlw	0
  1023  0697  00F0               	movwf	___flge@ff1
  1024  0698  0850               	movf	main@distance2+3,w
  1025  0699  00F7               	movwf	___flge@ff2+3
  1026  069A  084F               	movf	main@distance2+2,w
  1027  069B  00F6               	movwf	___flge@ff2+2
  1028  069C  084E               	movf	main@distance2+1,w
  1029  069D  00F5               	movwf	___flge@ff2+1
  1030  069E  084D               	movf	main@distance2,w
  1031  069F  00F4               	movwf	___flge@ff2
  1032  06A0  120A  118A  2264  120A  118A  	fcall	___flge
  1033  06A5  1803               	btfsc	3,0
  1034  06A6  2EA8               	goto	u1761
  1035  06A7  2EA9               	goto	u1760
  1036  06A8                     u1761:
  1037  06A8  2EEB               	goto	l1942
  1038  06A9                     u1760:
  1039  06A9                     l1930:
  1040                           
  1041                           ;mainBT.c: 99:         count3 = count3 + 1;
  1042  06A9  1283               	bcf	3,5	;RP0=0, select bank0
  1043  06AA  1303               	bcf	3,6	;RP1=0, select bank0
  1044  06AB  0855               	movf	main@count3,w
  1045  06AC  3E01               	addlw	1
  1046  06AD  00D5               	movwf	main@count3
  1047  06AE  0856               	movf	main@count3+1,w
  1048  06AF  1803               	skipnc
  1049  06B0  3E01               	addlw	1
  1050  06B1  3E00               	addlw	0
  1051  06B2  00D6               	movwf	main@count3+1
  1052  06B3                     l1932:
  1053                           
  1054                           ;mainBT.c: 100:         c3=itoa(count3);
  1055  06B3  0856               	movf	main@count3+1,w
  1056  06B4  00FA               	movwf	itoa@value+1
  1057  06B5  0855               	movf	main@count3,w
  1058  06B6  00F9               	movwf	itoa@value
  1059  06B7  120A  118A  219D  120A  118A  	fcall	_itoa
  1060  06BC  1283               	bcf	3,5	;RP0=0, select bank0
  1061  06BD  1303               	bcf	3,6	;RP1=0, select bank0
  1062  06BE  00C3               	movwf	??_main
  1063  06BF  0843               	movf	??_main,w
  1064  06C0  00C6               	movwf	main@c3
  1065  06C1                     l1934:
  1066                           
  1067                           ;mainBT.c: 101:         LCD_Command(0xC0);
  1068  06C1  30C0               	movlw	192
  1069  06C2  120A  158A  27D8  120A  118A  	fcall	_LCD_Command
  1070  06C7                     l1936:
  1071                           
  1072                           ;mainBT.c: 102:         LCD_string(c3);
  1073  06C7  1283               	bcf	3,5	;RP0=0, select bank0
  1074  06C8  1303               	bcf	3,6	;RP1=0, select bank0
  1075  06C9  0846               	movf	main@c3,w
  1076  06CA  00C3               	movwf	??_main
  1077  06CB  01C4               	clrf	??_main+1
  1078  06CC  0843               	movf	??_main,w
  1079  06CD  00F3               	movwf	LCD_string@str
  1080  06CE  0844               	movf	??_main+1,w
  1081  06CF  00F4               	movwf	LCD_string@str+1
  1082  06D0  120A  118A  2021  120A  118A  	fcall	_LCD_string
  1083  06D5                     l1938:
  1084                           
  1085                           ;mainBT.c: 103:         BT_load_char(count3);
  1086  06D5  1283               	bcf	3,5	;RP0=0, select bank0
  1087  06D6  1303               	bcf	3,6	;RP1=0, select bank0
  1088  06D7  0855               	movf	main@count3,w
  1089  06D8  120A  158A  27B4  120A  118A  	fcall	_BT_load_char
  1090  06DD                     l1940:
  1091                           
  1092                           ;mainBT.c: 104:         _delay((unsigned long)((1500)*(4000000/4000.0)));
  1093  06DD  3008               	movlw	8
  1094  06DE  1283               	bcf	3,5	;RP0=0, select bank0
  1095  06DF  1303               	bcf	3,6	;RP1=0, select bank0
  1096  06E0  00C5               	movwf	??_main+2
  1097  06E1  309D               	movlw	157
  1098  06E2  00C4               	movwf	??_main+1
  1099  06E3  3005               	movlw	5
  1100  06E4  00C3               	movwf	??_main
  1101  06E5                     u1837:
  1102  06E5  0BC3               	decfsz	??_main,f
  1103  06E6  2EE5               	goto	u1837
  1104  06E7  0BC4               	decfsz	??_main+1,f
  1105  06E8  2EE5               	goto	u1837
  1106  06E9  0BC5               	decfsz	??_main+2,f
  1107  06EA  2EE5               	goto	u1837
  1108  06EB                     l1942:
  1109                           
  1110                           ;mainBT.c: 106:       if(distance2 < door_CM){
  1111  06EB  1283               	bcf	3,5	;RP0=0, select bank0
  1112  06EC  1303               	bcf	3,6	;RP1=0, select bank0
  1113  06ED  0850               	movf	main@distance2+3,w
  1114  06EE  00F3               	movwf	___flge@ff1+3
  1115  06EF  084F               	movf	main@distance2+2,w
  1116  06F0  00F2               	movwf	___flge@ff1+2
  1117  06F1  084E               	movf	main@distance2+1,w
  1118  06F2  00F1               	movwf	___flge@ff1+1
  1119  06F3  084D               	movf	main@distance2,w
  1120  06F4  00F0               	movwf	___flge@ff1
  1121  06F5  3042               	movlw	66
  1122  06F6  00F7               	movwf	___flge@ff2+3
  1123  06F7  3070               	movlw	112
  1124  06F8  00F6               	movwf	___flge@ff2+2
  1125  06F9  3000               	movlw	0
  1126  06FA  00F5               	movwf	___flge@ff2+1
  1127  06FB  3000               	movlw	0
  1128  06FC  00F4               	movwf	___flge@ff2
  1129  06FD  120A  118A  2264  120A  118A  	fcall	___flge
  1130  0702  1803               	btfsc	3,0
  1131  0703  2F05               	goto	u1771
  1132  0704  2F06               	goto	u1770
  1133  0705                     u1771:
  1134  0705  2E1D               	goto	l1908
  1135  0706                     u1770:
  1136  0706                     l1944:
  1137                           
  1138                           ;mainBT.c: 107:           RD2=1;
  1139  0706  1283               	bcf	3,5	;RP0=0, select bank0
  1140  0707  1303               	bcf	3,6	;RP1=0, select bank0
  1141  0708  1508               	bsf	8,2	;volatile
  1142  0709                     l1946:
  1143                           
  1144                           ;mainBT.c: 108:           distance1= dist1();
  1145  0709  120A  118A  2051  120A  118A  	fcall	_dist1
  1146  070E  1283               	bcf	3,5	;RP0=0, select bank0
  1147  070F  1303               	bcf	3,6	;RP1=0, select bank0
  1148  0710  083D               	movf	?_dist1+3,w
  1149  0711  00CC               	movwf	main@distance1+3
  1150  0712  083C               	movf	?_dist1+2,w
  1151  0713  00CB               	movwf	main@distance1+2
  1152  0714  083B               	movf	?_dist1+1,w
  1153  0715  00CA               	movwf	main@distance1+1
  1154  0716  083A               	movf	?_dist1,w
  1155  0717  00C9               	movwf	main@distance1
  1156  0718                     l1948:
  1157                           
  1158                           ;mainBT.c: 109:           if(distance1 > door_CM){
  1159  0718  3042               	movlw	66
  1160  0719  00F3               	movwf	___flge@ff1+3
  1161  071A  3070               	movlw	112
  1162  071B  00F2               	movwf	___flge@ff1+2
  1163  071C  3000               	movlw	0
  1164  071D  00F1               	movwf	___flge@ff1+1
  1165  071E  3000               	movlw	0
  1166  071F  00F0               	movwf	___flge@ff1
  1167  0720  084C               	movf	main@distance1+3,w
  1168  0721  00F7               	movwf	___flge@ff2+3
  1169  0722  084B               	movf	main@distance1+2,w
  1170  0723  00F6               	movwf	___flge@ff2+2
  1171  0724  084A               	movf	main@distance1+1,w
  1172  0725  00F5               	movwf	___flge@ff2+1
  1173  0726  0849               	movf	main@distance1,w
  1174  0727  00F4               	movwf	___flge@ff2
  1175  0728  120A  118A  2264  120A  118A  	fcall	___flge
  1176  072D  1803               	btfsc	3,0
  1177  072E  2F30               	goto	u1781
  1178  072F  2F31               	goto	u1780
  1179  0730                     u1781:
  1180  0730  2F74               	goto	l1962
  1181  0731                     u1780:
  1182  0731                     l1950:
  1183                           
  1184                           ;mainBT.c: 110:             count2 = count2 + 1;
  1185  0731  1283               	bcf	3,5	;RP0=0, select bank0
  1186  0732  1303               	bcf	3,6	;RP1=0, select bank0
  1187  0733  0857               	movf	main@count2,w
  1188  0734  3E01               	addlw	1
  1189  0735  00D7               	movwf	main@count2
  1190  0736  0858               	movf	main@count2+1,w
  1191  0737  1803               	skipnc
  1192  0738  3E01               	addlw	1
  1193  0739  3E00               	addlw	0
  1194  073A  00D8               	movwf	main@count2+1
  1195  073B                     l1952:
  1196                           
  1197                           ;mainBT.c: 111:             c2=itoa(count2);
  1198  073B  0858               	movf	main@count2+1,w
  1199  073C  00FA               	movwf	itoa@value+1
  1200  073D  0857               	movf	main@count2,w
  1201  073E  00F9               	movwf	itoa@value
  1202  073F  120A  118A  219D  120A  118A  	fcall	_itoa
  1203  0744  1283               	bcf	3,5	;RP0=0, select bank0
  1204  0745  1303               	bcf	3,6	;RP1=0, select bank0
  1205  0746  00C3               	movwf	??_main
  1206  0747  0843               	movf	??_main,w
  1207  0748  00C7               	movwf	main@c2
  1208  0749                     l1954:
  1209                           
  1210                           ;mainBT.c: 112:             LCD_Command(0xC5);
  1211  0749  30C5               	movlw	197
  1212  074A  120A  158A  27D8  120A  118A  	fcall	_LCD_Command
  1213  074F                     l1956:
  1214                           
  1215                           ;mainBT.c: 113:             LCD_string(c2);
  1216  074F  1283               	bcf	3,5	;RP0=0, select bank0
  1217  0750  1303               	bcf	3,6	;RP1=0, select bank0
  1218  0751  0847               	movf	main@c2,w
  1219  0752  00C3               	movwf	??_main
  1220  0753  01C4               	clrf	??_main+1
  1221  0754  0843               	movf	??_main,w
  1222  0755  00F3               	movwf	LCD_string@str
  1223  0756  0844               	movf	??_main+1,w
  1224  0757  00F4               	movwf	LCD_string@str+1
  1225  0758  120A  118A  2021  120A  118A  	fcall	_LCD_string
  1226  075D                     l1958:
  1227                           
  1228                           ;mainBT.c: 114:             BT_load_char(50+count2);
  1229  075D  1283               	bcf	3,5	;RP0=0, select bank0
  1230  075E  1303               	bcf	3,6	;RP1=0, select bank0
  1231  075F  0857               	movf	main@count2,w
  1232  0760  3E32               	addlw	50
  1233  0761  120A  158A  27B4  120A  118A  	fcall	_BT_load_char
  1234  0766                     l1960:
  1235                           
  1236                           ;mainBT.c: 115:             _delay((unsigned long)((1500)*(4000000/4000.0)));
  1237  0766  3008               	movlw	8
  1238  0767  1283               	bcf	3,5	;RP0=0, select bank0
  1239  0768  1303               	bcf	3,6	;RP1=0, select bank0
  1240  0769  00C5               	movwf	??_main+2
  1241  076A  309D               	movlw	157
  1242  076B  00C4               	movwf	??_main+1
  1243  076C  3005               	movlw	5
  1244  076D  00C3               	movwf	??_main
  1245  076E                     u1847:
  1246  076E  0BC3               	decfsz	??_main,f
  1247  076F  2F6E               	goto	u1847
  1248  0770  0BC4               	decfsz	??_main+1,f
  1249  0771  2F6E               	goto	u1847
  1250  0772  0BC5               	decfsz	??_main+2,f
  1251  0773  2F6E               	goto	u1847
  1252  0774                     l1962:
  1253                           
  1254                           ;mainBT.c: 117:           if(distance1 < door_CM){
  1255  0774  1283               	bcf	3,5	;RP0=0, select bank0
  1256  0775  1303               	bcf	3,6	;RP1=0, select bank0
  1257  0776  084C               	movf	main@distance1+3,w
  1258  0777  00F3               	movwf	___flge@ff1+3
  1259  0778  084B               	movf	main@distance1+2,w
  1260  0779  00F2               	movwf	___flge@ff1+2
  1261  077A  084A               	movf	main@distance1+1,w
  1262  077B  00F1               	movwf	___flge@ff1+1
  1263  077C  0849               	movf	main@distance1,w
  1264  077D  00F0               	movwf	___flge@ff1
  1265  077E  3042               	movlw	66
  1266  077F  00F7               	movwf	___flge@ff2+3
  1267  0780  3070               	movlw	112
  1268  0781  00F6               	movwf	___flge@ff2+2
  1269  0782  3000               	movlw	0
  1270  0783  00F5               	movwf	___flge@ff2+1
  1271  0784  3000               	movlw	0
  1272  0785  00F4               	movwf	___flge@ff2
  1273  0786  120A  118A  2264  120A  118A  	fcall	___flge
  1274  078B  1803               	btfsc	3,0
  1275  078C  2F8E               	goto	u1791
  1276  078D  2F8F               	goto	u1790
  1277  078E                     u1791:
  1278  078E  2FD4               	goto	l209
  1279  078F                     u1790:
  1280  078F                     l1964:
  1281                           
  1282                           ;mainBT.c: 118:             RD3=1;
  1283  078F  1283               	bcf	3,5	;RP0=0, select bank0
  1284  0790  1303               	bcf	3,6	;RP1=0, select bank0
  1285  0791  1588               	bsf	8,3	;volatile
  1286  0792                     l1966:
  1287                           
  1288                           ;mainBT.c: 119:             count1 = count1 + 1;
  1289  0792  0859               	movf	main@count1,w
  1290  0793  3E01               	addlw	1
  1291  0794  00D9               	movwf	main@count1
  1292  0795  085A               	movf	main@count1+1,w
  1293  0796  1803               	skipnc
  1294  0797  3E01               	addlw	1
  1295  0798  3E00               	addlw	0
  1296  0799  00DA               	movwf	main@count1+1
  1297  079A                     l1968:
  1298                           
  1299                           ;mainBT.c: 120:             c1=itoa(count1);
  1300  079A  085A               	movf	main@count1+1,w
  1301  079B  00FA               	movwf	itoa@value+1
  1302  079C  0859               	movf	main@count1,w
  1303  079D  00F9               	movwf	itoa@value
  1304  079E  120A  118A  219D  120A  118A  	fcall	_itoa
  1305  07A3  1283               	bcf	3,5	;RP0=0, select bank0
  1306  07A4  1303               	bcf	3,6	;RP1=0, select bank0
  1307  07A5  00C3               	movwf	??_main
  1308  07A6  0843               	movf	??_main,w
  1309  07A7  00C8               	movwf	main@c1
  1310  07A8                     l1970:
  1311                           
  1312                           ;mainBT.c: 121:             LCD_Command(0xCC);
  1313  07A8  30CC               	movlw	204
  1314  07A9  120A  158A  27D8  120A  118A  	fcall	_LCD_Command
  1315  07AE                     l1972:
  1316                           
  1317                           ;mainBT.c: 122:             LCD_string(c1);
  1318  07AE  1283               	bcf	3,5	;RP0=0, select bank0
  1319  07AF  1303               	bcf	3,6	;RP1=0, select bank0
  1320  07B0  0848               	movf	main@c1,w
  1321  07B1  00C3               	movwf	??_main
  1322  07B2  01C4               	clrf	??_main+1
  1323  07B3  0843               	movf	??_main,w
  1324  07B4  00F3               	movwf	LCD_string@str
  1325  07B5  0844               	movf	??_main+1,w
  1326  07B6  00F4               	movwf	LCD_string@str+1
  1327  07B7  120A  118A  2021  120A  118A  	fcall	_LCD_string
  1328  07BC                     l1974:
  1329                           
  1330                           ;mainBT.c: 123:             BT_load_char(100+count1);
  1331  07BC  1283               	bcf	3,5	;RP0=0, select bank0
  1332  07BD  1303               	bcf	3,6	;RP1=0, select bank0
  1333  07BE  0859               	movf	main@count1,w
  1334  07BF  3E64               	addlw	100
  1335  07C0  120A  158A  27B4  120A  118A  	fcall	_BT_load_char
  1336  07C5                     l1976:
  1337                           
  1338                           ;mainBT.c: 124:             _delay((unsigned long)((1500)*(4000000/4000.0)));
  1339  07C5  3008               	movlw	8
  1340  07C6  1283               	bcf	3,5	;RP0=0, select bank0
  1341  07C7  1303               	bcf	3,6	;RP1=0, select bank0
  1342  07C8  00C5               	movwf	??_main+2
  1343  07C9  309D               	movlw	157
  1344  07CA  00C4               	movwf	??_main+1
  1345  07CB  3005               	movlw	5
  1346  07CC  00C3               	movwf	??_main
  1347  07CD                     u1857:
  1348  07CD  0BC3               	decfsz	??_main,f
  1349  07CE  2FCD               	goto	u1857
  1350  07CF  0BC4               	decfsz	??_main+1,f
  1351  07D0  2FCD               	goto	u1857
  1352  07D1  0BC5               	decfsz	??_main+2,f
  1353  07D2  2FCD               	goto	u1857
  1354  07D3  2E1D               	goto	l1908
  1355  07D4                     l209:	
  1356                           ;mainBT.c: 127:     }
  1357                           
  1358  07D4  2E1D               	goto	l1908
  1359  07D5  120A  118A  2800   	ljmp	start
  1360  07D8                     __end_of_main:
  1361                           
  1362                           	psect	text1
  1363  019D                     __ptext1:	
  1364 ;; *************** function _itoa *****************
  1365 ;; Defined at:
  1366 ;;		line 54 in file "./LCD.h"
  1367 ;; Parameters:    Size  Location     Type
  1368 ;;  value           2    9[COMMON] int 
  1369 ;; Auto vars:     Size  Location     Type
  1370 ;;  c               2    2[BANK0 ] int 
  1371 ;;  original        2    0[BANK0 ] int 
  1372 ;; Return value:  Size  Location     Type
  1373 ;;                  1    wreg      PTR unsigned char 
  1374 ;; Registers used:
  1375 ;;		wreg, fsr0l, fsr0h, status,2, status,0, pclath, cstack
  1376 ;; Tracked objects:
  1377 ;;		On entry : 0/0
  1378 ;;		On exit  : 0/0
  1379 ;;		Unchanged: 0/0
  1380 ;; Data sizes:     COMMON   BANK0   BANK1   BANK3   BANK2
  1381 ;;      Params:         2       0       0       0       0
  1382 ;;      Locals:         0       4       0       0       0
  1383 ;;      Temps:          1       0       0       0       0
  1384 ;;      Totals:         3       4       0       0       0
  1385 ;;Total ram usage:        7 bytes
  1386 ;; Hardware stack levels used: 1
  1387 ;; Hardware stack levels required when called: 1
  1388 ;; This function calls:
  1389 ;;		___awdiv
  1390 ;;		___awmod
  1391 ;; This function is called by:
  1392 ;;		_main
  1393 ;; This function uses a non-reentrant model
  1394 ;;
  1395                           
  1396  019D                     _itoa:	
  1397                           ;psect for function _itoa
  1398                           
  1399  019D                     l1766:	
  1400                           ;incstack = 0
  1401                           ; Regs used in _itoa: [wreg-fsr0h+status,2+status,0+pclath+cstack]
  1402                           
  1403                           
  1404                           ;./LCD.h: 55:      static char buffer[12];;./LCD.h: 56:      int original = value;
  1405  019D  087A               	movf	itoa@value+1,w
  1406  019E  1283               	bcf	3,5	;RP0=0, select bank0
  1407  019F  1303               	bcf	3,6	;RP1=0, select bank0
  1408  01A0  00A1               	movwf	itoa@original+1
  1409  01A1  0879               	movf	itoa@value,w
  1410  01A2  00A0               	movwf	itoa@original
  1411                           
  1412                           ;./LCD.h: 57:      int c = sizeof(buffer)-1;
  1413  01A3  300B               	movlw	11
  1414  01A4  00A2               	movwf	itoa@c
  1415  01A5  3000               	movlw	0
  1416  01A6  00A3               	movwf	itoa@c+1
  1417  01A7                     l1768:
  1418                           
  1419                           ;./LCD.h: 58:      buffer[c] = 0;
  1420  01A7  01E6               	clrf	itoa@buffer+11
  1421  01A8                     l1770:
  1422                           
  1423                           ;./LCD.h: 59:      if (value < 0)
  1424  01A8  1FFA               	btfss	itoa@value+1,7
  1425  01A9  29AB               	goto	u1611
  1426  01AA  29AC               	goto	u1610
  1427  01AB                     u1611:
  1428  01AB  29B1               	goto	l1774
  1429  01AC                     u1610:
  1430  01AC                     l1772:
  1431                           
  1432                           ;./LCD.h: 60:          value = -value;
  1433  01AC  09F9               	comf	itoa@value,f
  1434  01AD  09FA               	comf	itoa@value+1,f
  1435  01AE  0AF9               	incf	itoa@value,f
  1436  01AF  1903               	skipnz
  1437  01B0  0AFA               	incf	itoa@value+1,f
  1438  01B1                     l1774:
  1439                           
  1440                           ;./LCD.h: 63:      {;./LCD.h: 64:          buffer[--c] = (value % 10) + '0';
  1441  01B1  300A               	movlw	10
  1442  01B2  00F0               	movwf	___awmod@divisor
  1443  01B3  3000               	movlw	0
  1444  01B4  00F1               	movwf	___awmod@divisor+1
  1445  01B5  087A               	movf	itoa@value+1,w
  1446  01B6  00F3               	movwf	___awmod@dividend+1
  1447  01B7  0879               	movf	itoa@value,w
  1448  01B8  00F2               	movwf	___awmod@dividend
  1449  01B9  120A  118A  2144  120A  118A  	fcall	___awmod
  1450  01BE  0870               	movf	?___awmod,w
  1451  01BF  3E30               	addlw	48
  1452  01C0  00FB               	movwf	??_itoa
  1453  01C1  30FF               	movlw	255
  1454  01C2  1283               	bcf	3,5	;RP0=0, select bank0
  1455  01C3  1303               	bcf	3,6	;RP1=0, select bank0
  1456  01C4  07A2               	addwf	itoa@c,f
  1457  01C5  1803               	skipnc
  1458  01C6  0AA3               	incf	itoa@c+1,f
  1459  01C7  30FF               	movlw	255
  1460  01C8  07A3               	addwf	itoa@c+1,f
  1461  01C9  0822               	movf	itoa@c,w
  1462  01CA  3E5B               	addlw	(low (itoa@buffer| 0))& (0+255)
  1463  01CB  0084               	movwf	4
  1464  01CC  087B               	movf	??_itoa,w
  1465  01CD  1383               	bcf	3,7	;select IRP bank0
  1466  01CE  0080               	movwf	0
  1467  01CF                     l1776:
  1468                           
  1469                           ;./LCD.h: 65:          value /= 10;
  1470  01CF  300A               	movlw	10
  1471  01D0  00F0               	movwf	___awdiv@divisor
  1472  01D1  3000               	movlw	0
  1473  01D2  00F1               	movwf	___awdiv@divisor+1
  1474  01D3  087A               	movf	itoa@value+1,w
  1475  01D4  00F3               	movwf	___awdiv@dividend+1
  1476  01D5  0879               	movf	itoa@value,w
  1477  01D6  00F2               	movwf	___awdiv@dividend
  1478  01D7  120A  118A  21FD  120A  118A  	fcall	___awdiv
  1479  01DC  0871               	movf	?___awdiv+1,w
  1480  01DD  00FA               	movwf	itoa@value+1
  1481  01DE  0870               	movf	?___awdiv,w
  1482  01DF  00F9               	movwf	itoa@value
  1483  01E0                     l1778:
  1484                           
  1485                           ;./LCD.h: 66:      } while (value);
  1486  01E0  0879               	movf	itoa@value,w
  1487  01E1  047A               	iorwf	itoa@value+1,w
  1488  01E2  1D03               	btfss	3,2
  1489  01E3  29E5               	goto	u1621
  1490  01E4  29E6               	goto	u1620
  1491  01E5                     u1621:
  1492  01E5  29B1               	goto	l1774
  1493  01E6                     u1620:
  1494  01E6                     l163:
  1495                           
  1496                           ;./LCD.h: 68:      if (original < 0)
  1497  01E6  1283               	bcf	3,5	;RP0=0, select bank0
  1498  01E7  1303               	bcf	3,6	;RP1=0, select bank0
  1499  01E8  1FA1               	btfss	itoa@original+1,7
  1500  01E9  29EB               	goto	u1631
  1501  01EA  29EC               	goto	u1630
  1502  01EB                     u1631:
  1503  01EB  29FA               	goto	l1782
  1504  01EC                     u1630:
  1505  01EC                     l1780:
  1506                           
  1507                           ;./LCD.h: 69:          buffer[--c] = '-';
  1508  01EC  302D               	movlw	45
  1509  01ED  00FB               	movwf	??_itoa
  1510  01EE  30FF               	movlw	255
  1511  01EF  07A2               	addwf	itoa@c,f
  1512  01F0  1803               	skipnc
  1513  01F1  0AA3               	incf	itoa@c+1,f
  1514  01F2  30FF               	movlw	255
  1515  01F3  07A3               	addwf	itoa@c+1,f
  1516  01F4  0822               	movf	itoa@c,w
  1517  01F5  3E5B               	addlw	(low (itoa@buffer| 0))& (0+255)
  1518  01F6  0084               	movwf	4
  1519  01F7  087B               	movf	??_itoa,w
  1520  01F8  1383               	bcf	3,7	;select IRP bank0
  1521  01F9  0080               	movwf	0
  1522  01FA                     l1782:
  1523                           
  1524                           ;./LCD.h: 71:      return &buffer[c];
  1525  01FA  0822               	movf	itoa@c,w
  1526  01FB  3E5B               	addlw	(low (itoa@buffer| 0))& (0+255)
  1527  01FC                     l165:
  1528  01FC  0008               	return
  1529  01FD                     __end_of_itoa:
  1530                           
  1531                           	psect	text2
  1532  0144                     __ptext2:	
  1533 ;; *************** function ___awmod *****************
  1534 ;; Defined at:
  1535 ;;		line 5 in file "C:\Program Files\Microchip\xc8\v2.36\pic\sources\c90\common\awmod.c"
  1536 ;; Parameters:    Size  Location     Type
  1537 ;;  divisor         2    0[COMMON] int 
  1538 ;;  dividend        2    2[COMMON] int 
  1539 ;; Auto vars:     Size  Location     Type
  1540 ;;  sign            1    6[COMMON] unsigned char 
  1541 ;;  counter         1    5[COMMON] unsigned char 
  1542 ;; Return value:  Size  Location     Type
  1543 ;;                  2    0[COMMON] int 
  1544 ;; Registers used:
  1545 ;;		wreg, status,2, status,0
  1546 ;; Tracked objects:
  1547 ;;		On entry : 0/0
  1548 ;;		On exit  : 0/0
  1549 ;;		Unchanged: 0/0
  1550 ;; Data sizes:     COMMON   BANK0   BANK1   BANK3   BANK2
  1551 ;;      Params:         4       0       0       0       0
  1552 ;;      Locals:         2       0       0       0       0
  1553 ;;      Temps:          1       0       0       0       0
  1554 ;;      Totals:         7       0       0       0       0
  1555 ;;Total ram usage:        7 bytes
  1556 ;; Hardware stack levels used: 1
  1557 ;; This function calls:
  1558 ;;		Nothing
  1559 ;; This function is called by:
  1560 ;;		_itoa
  1561 ;; This function uses a non-reentrant model
  1562 ;;
  1563                           
  1564  0144                     ___awmod:	
  1565                           ;psect for function ___awmod
  1566                           
  1567  0144                     l1472:	
  1568                           ;incstack = 0
  1569                           ; Regs used in ___awmod: [wreg+status,2+status,0]
  1570                           
  1571  0144  01F6               	clrf	___awmod@sign
  1572  0145                     l1474:
  1573  0145  1FF3               	btfss	___awmod@dividend+1,7
  1574  0146  2948               	goto	u1021
  1575  0147  2949               	goto	u1020
  1576  0148                     u1021:
  1577  0148  2950               	goto	l1480
  1578  0149                     u1020:
  1579  0149                     l1476:
  1580  0149  09F2               	comf	___awmod@dividend,f
  1581  014A  09F3               	comf	___awmod@dividend+1,f
  1582  014B  0AF2               	incf	___awmod@dividend,f
  1583  014C  1903               	skipnz
  1584  014D  0AF3               	incf	___awmod@dividend+1,f
  1585  014E                     l1478:
  1586  014E  01F6               	clrf	___awmod@sign
  1587  014F  0AF6               	incf	___awmod@sign,f
  1588  0150                     l1480:
  1589  0150  1FF1               	btfss	___awmod@divisor+1,7
  1590  0151  2953               	goto	u1031
  1591  0152  2954               	goto	u1030
  1592  0153                     u1031:
  1593  0153  2959               	goto	l1484
  1594  0154                     u1030:
  1595  0154                     l1482:
  1596  0154  09F0               	comf	___awmod@divisor,f
  1597  0155  09F1               	comf	___awmod@divisor+1,f
  1598  0156  0AF0               	incf	___awmod@divisor,f
  1599  0157  1903               	skipnz
  1600  0158  0AF1               	incf	___awmod@divisor+1,f
  1601  0159                     l1484:
  1602  0159  0870               	movf	___awmod@divisor,w
  1603  015A  0471               	iorwf	___awmod@divisor+1,w
  1604  015B  1903               	btfsc	3,2
  1605  015C  295E               	goto	u1041
  1606  015D  295F               	goto	u1040
  1607  015E                     u1041:
  1608  015E  298E               	goto	l1502
  1609  015F                     u1040:
  1610  015F                     l1486:
  1611  015F  01F5               	clrf	___awmod@counter
  1612  0160  0AF5               	incf	___awmod@counter,f
  1613  0161  296D               	goto	l1492
  1614  0162                     l1488:
  1615  0162  3001               	movlw	1
  1616  0163                     u1055:
  1617  0163  1003               	clrc
  1618  0164  0DF0               	rlf	___awmod@divisor,f
  1619  0165  0DF1               	rlf	___awmod@divisor+1,f
  1620  0166  3EFF               	addlw	-1
  1621  0167  1D03               	skipz
  1622  0168  2963               	goto	u1055
  1623  0169                     l1490:
  1624  0169  3001               	movlw	1
  1625  016A  00F4               	movwf	??___awmod
  1626  016B  0874               	movf	??___awmod,w
  1627  016C  07F5               	addwf	___awmod@counter,f
  1628  016D                     l1492:
  1629  016D  1FF1               	btfss	___awmod@divisor+1,7
  1630  016E  2970               	goto	u1061
  1631  016F  2971               	goto	u1060
  1632  0170                     u1061:
  1633  0170  2962               	goto	l1488
  1634  0171                     u1060:
  1635  0171                     l1494:
  1636  0171  0871               	movf	___awmod@divisor+1,w
  1637  0172  0273               	subwf	___awmod@dividend+1,w
  1638  0173  1D03               	skipz
  1639  0174  2977               	goto	u1075
  1640  0175  0870               	movf	___awmod@divisor,w
  1641  0176  0272               	subwf	___awmod@dividend,w
  1642  0177                     u1075:
  1643  0177  1C03               	skipc
  1644  0178  297A               	goto	u1071
  1645  0179  297B               	goto	u1070
  1646  017A                     u1071:
  1647  017A  2981               	goto	l1498
  1648  017B                     u1070:
  1649  017B                     l1496:
  1650  017B  0870               	movf	___awmod@divisor,w
  1651  017C  02F2               	subwf	___awmod@dividend,f
  1652  017D  0871               	movf	___awmod@divisor+1,w
  1653  017E  1C03               	skipc
  1654  017F  03F3               	decf	___awmod@dividend+1,f
  1655  0180  02F3               	subwf	___awmod@dividend+1,f
  1656  0181                     l1498:
  1657  0181  3001               	movlw	1
  1658  0182                     u1085:
  1659  0182  1003               	clrc
  1660  0183  0CF1               	rrf	___awmod@divisor+1,f
  1661  0184  0CF0               	rrf	___awmod@divisor,f
  1662  0185  3EFF               	addlw	-1
  1663  0186  1D03               	skipz
  1664  0187  2982               	goto	u1085
  1665  0188                     l1500:
  1666  0188  3001               	movlw	1
  1667  0189  02F5               	subwf	___awmod@counter,f
  1668  018A  1D03               	btfss	3,2
  1669  018B  298D               	goto	u1091
  1670  018C  298E               	goto	u1090
  1671  018D                     u1091:
  1672  018D  2971               	goto	l1494
  1673  018E                     u1090:
  1674  018E                     l1502:
  1675  018E  0876               	movf	___awmod@sign,w
  1676  018F  1903               	btfsc	3,2
  1677  0190  2992               	goto	u1101
  1678  0191  2993               	goto	u1100
  1679  0192                     u1101:
  1680  0192  2998               	goto	l1506
  1681  0193                     u1100:
  1682  0193                     l1504:
  1683  0193  09F2               	comf	___awmod@dividend,f
  1684  0194  09F3               	comf	___awmod@dividend+1,f
  1685  0195  0AF2               	incf	___awmod@dividend,f
  1686  0196  1903               	skipnz
  1687  0197  0AF3               	incf	___awmod@dividend+1,f
  1688  0198                     l1506:
  1689  0198  0873               	movf	___awmod@dividend+1,w
  1690  0199  00F1               	movwf	?___awmod+1
  1691  019A  0872               	movf	___awmod@dividend,w
  1692  019B  00F0               	movwf	?___awmod
  1693  019C                     l468:
  1694  019C  0008               	return
  1695  019D                     __end_of___awmod:
  1696                           
  1697                           	psect	text3
  1698  01FD                     __ptext3:	
  1699 ;; *************** function ___awdiv *****************
  1700 ;; Defined at:
  1701 ;;		line 5 in file "C:\Program Files\Microchip\xc8\v2.36\pic\sources\c90\common\awdiv.c"
  1702 ;; Parameters:    Size  Location     Type
  1703 ;;  divisor         2    0[COMMON] int 
  1704 ;;  dividend        2    2[COMMON] int 
  1705 ;; Auto vars:     Size  Location     Type
  1706 ;;  quotient        2    7[COMMON] int 
  1707 ;;  sign            1    6[COMMON] unsigned char 
  1708 ;;  counter         1    5[COMMON] unsigned char 
  1709 ;; Return value:  Size  Location     Type
  1710 ;;                  2    0[COMMON] int 
  1711 ;; Registers used:
  1712 ;;		wreg, status,2, status,0
  1713 ;; Tracked objects:
  1714 ;;		On entry : 0/0
  1715 ;;		On exit  : 0/0
  1716 ;;		Unchanged: 0/0
  1717 ;; Data sizes:     COMMON   BANK0   BANK1   BANK3   BANK2
  1718 ;;      Params:         4       0       0       0       0
  1719 ;;      Locals:         4       0       0       0       0
  1720 ;;      Temps:          1       0       0       0       0
  1721 ;;      Totals:         9       0       0       0       0
  1722 ;;Total ram usage:        9 bytes
  1723 ;; Hardware stack levels used: 1
  1724 ;; This function calls:
  1725 ;;		Nothing
  1726 ;; This function is called by:
  1727 ;;		_itoa
  1728 ;; This function uses a non-reentrant model
  1729 ;;
  1730                           
  1731  01FD                     ___awdiv:	
  1732                           ;psect for function ___awdiv
  1733                           
  1734  01FD                     l1428:	
  1735                           ;incstack = 0
  1736                           ; Regs used in ___awdiv: [wreg+status,2+status,0]
  1737                           
  1738  01FD  01F6               	clrf	___awdiv@sign
  1739  01FE                     l1430:
  1740  01FE  1FF1               	btfss	___awdiv@divisor+1,7
  1741  01FF  2A01               	goto	u921
  1742  0200  2A02               	goto	u920
  1743  0201                     u921:
  1744  0201  2A09               	goto	l1436
  1745  0202                     u920:
  1746  0202                     l1432:
  1747  0202  09F0               	comf	___awdiv@divisor,f
  1748  0203  09F1               	comf	___awdiv@divisor+1,f
  1749  0204  0AF0               	incf	___awdiv@divisor,f
  1750  0205  1903               	skipnz
  1751  0206  0AF1               	incf	___awdiv@divisor+1,f
  1752  0207                     l1434:
  1753  0207  01F6               	clrf	___awdiv@sign
  1754  0208  0AF6               	incf	___awdiv@sign,f
  1755  0209                     l1436:
  1756  0209  1FF3               	btfss	___awdiv@dividend+1,7
  1757  020A  2A0C               	goto	u931
  1758  020B  2A0D               	goto	u930
  1759  020C                     u931:
  1760  020C  2A16               	goto	l1442
  1761  020D                     u930:
  1762  020D                     l1438:
  1763  020D  09F2               	comf	___awdiv@dividend,f
  1764  020E  09F3               	comf	___awdiv@dividend+1,f
  1765  020F  0AF2               	incf	___awdiv@dividend,f
  1766  0210  1903               	skipnz
  1767  0211  0AF3               	incf	___awdiv@dividend+1,f
  1768  0212                     l1440:
  1769  0212  3001               	movlw	1
  1770  0213  00F4               	movwf	??___awdiv
  1771  0214  0874               	movf	??___awdiv,w
  1772  0215  06F6               	xorwf	___awdiv@sign,f
  1773  0216                     l1442:
  1774  0216  01F7               	clrf	___awdiv@quotient
  1775  0217  01F8               	clrf	___awdiv@quotient+1
  1776  0218                     l1444:
  1777  0218  0870               	movf	___awdiv@divisor,w
  1778  0219  0471               	iorwf	___awdiv@divisor+1,w
  1779  021A  1903               	btfsc	3,2
  1780  021B  2A1D               	goto	u941
  1781  021C  2A1E               	goto	u940
  1782  021D                     u941:
  1783  021D  2A55               	goto	l1464
  1784  021E                     u940:
  1785  021E                     l1446:
  1786  021E  01F5               	clrf	___awdiv@counter
  1787  021F  0AF5               	incf	___awdiv@counter,f
  1788  0220  2A2C               	goto	l1452
  1789  0221                     l1448:
  1790  0221  3001               	movlw	1
  1791  0222                     u955:
  1792  0222  1003               	clrc
  1793  0223  0DF0               	rlf	___awdiv@divisor,f
  1794  0224  0DF1               	rlf	___awdiv@divisor+1,f
  1795  0225  3EFF               	addlw	-1
  1796  0226  1D03               	skipz
  1797  0227  2A22               	goto	u955
  1798  0228                     l1450:
  1799  0228  3001               	movlw	1
  1800  0229  00F4               	movwf	??___awdiv
  1801  022A  0874               	movf	??___awdiv,w
  1802  022B  07F5               	addwf	___awdiv@counter,f
  1803  022C                     l1452:
  1804  022C  1FF1               	btfss	___awdiv@divisor+1,7
  1805  022D  2A2F               	goto	u961
  1806  022E  2A30               	goto	u960
  1807  022F                     u961:
  1808  022F  2A21               	goto	l1448
  1809  0230                     u960:
  1810  0230                     l1454:
  1811  0230  3001               	movlw	1
  1812  0231                     u975:
  1813  0231  1003               	clrc
  1814  0232  0DF7               	rlf	___awdiv@quotient,f
  1815  0233  0DF8               	rlf	___awdiv@quotient+1,f
  1816  0234  3EFF               	addlw	-1
  1817  0235  1D03               	skipz
  1818  0236  2A31               	goto	u975
  1819  0237  0871               	movf	___awdiv@divisor+1,w
  1820  0238  0273               	subwf	___awdiv@dividend+1,w
  1821  0239  1D03               	skipz
  1822  023A  2A3D               	goto	u985
  1823  023B  0870               	movf	___awdiv@divisor,w
  1824  023C  0272               	subwf	___awdiv@dividend,w
  1825  023D                     u985:
  1826  023D  1C03               	skipc
  1827  023E  2A40               	goto	u981
  1828  023F  2A41               	goto	u980
  1829  0240                     u981:
  1830  0240  2A48               	goto	l1460
  1831  0241                     u980:
  1832  0241                     l1456:
  1833  0241  0870               	movf	___awdiv@divisor,w
  1834  0242  02F2               	subwf	___awdiv@dividend,f
  1835  0243  0871               	movf	___awdiv@divisor+1,w
  1836  0244  1C03               	skipc
  1837  0245  03F3               	decf	___awdiv@dividend+1,f
  1838  0246  02F3               	subwf	___awdiv@dividend+1,f
  1839  0247                     l1458:
  1840  0247  1477               	bsf	___awdiv@quotient,0
  1841  0248                     l1460:
  1842  0248  3001               	movlw	1
  1843  0249                     u995:
  1844  0249  1003               	clrc
  1845  024A  0CF1               	rrf	___awdiv@divisor+1,f
  1846  024B  0CF0               	rrf	___awdiv@divisor,f
  1847  024C  3EFF               	addlw	-1
  1848  024D  1D03               	skipz
  1849  024E  2A49               	goto	u995
  1850  024F                     l1462:
  1851  024F  3001               	movlw	1
  1852  0250  02F5               	subwf	___awdiv@counter,f
  1853  0251  1D03               	btfss	3,2
  1854  0252  2A54               	goto	u1001
  1855  0253  2A55               	goto	u1000
  1856  0254                     u1001:
  1857  0254  2A30               	goto	l1454
  1858  0255                     u1000:
  1859  0255                     l1464:
  1860  0255  0876               	movf	___awdiv@sign,w
  1861  0256  1903               	btfsc	3,2
  1862  0257  2A59               	goto	u1011
  1863  0258  2A5A               	goto	u1010
  1864  0259                     u1011:
  1865  0259  2A5F               	goto	l1468
  1866  025A                     u1010:
  1867  025A                     l1466:
  1868  025A  09F7               	comf	___awdiv@quotient,f
  1869  025B  09F8               	comf	___awdiv@quotient+1,f
  1870  025C  0AF7               	incf	___awdiv@quotient,f
  1871  025D  1903               	skipnz
  1872  025E  0AF8               	incf	___awdiv@quotient+1,f
  1873  025F                     l1468:
  1874  025F  0878               	movf	___awdiv@quotient+1,w
  1875  0260  00F1               	movwf	?___awdiv+1
  1876  0261  0877               	movf	___awdiv@quotient,w
  1877  0262  00F0               	movwf	?___awdiv
  1878  0263                     l455:
  1879  0263  0008               	return
  1880  0264                     __end_of___awdiv:
  1881                           
  1882                           	psect	text4
  1883  00F3                     __ptext4:	
  1884 ;; *************** function _dist3 *****************
  1885 ;; Defined at:
  1886 ;;		line 47 in file "./sensor.h"
  1887 ;; Parameters:    Size  Location     Type
  1888 ;;		None
  1889 ;; Auto vars:     Size  Location     Type
  1890 ;;  distance3       4   31[BANK0 ] float 
  1891 ;; Return value:  Size  Location     Type
  1892 ;;                  4   26[BANK0 ] float 
  1893 ;; Registers used:
  1894 ;;		wreg, status,2, status,0, btemp+1, pclath, cstack
  1895 ;; Tracked objects:
  1896 ;;		On entry : 0/0
  1897 ;;		On exit  : 0/0
  1898 ;;		Unchanged: 0/0
  1899 ;; Data sizes:     COMMON   BANK0   BANK1   BANK3   BANK2
  1900 ;;      Params:         0       4       0       0       0
  1901 ;;      Locals:         0       4       0       0       0
  1902 ;;      Temps:          0       1       0       0       0
  1903 ;;      Totals:         0       9       0       0       0
  1904 ;;Total ram usage:        9 bytes
  1905 ;; Hardware stack levels used: 1
  1906 ;; Hardware stack levels required when called: 1
  1907 ;; This function calls:
  1908 ;;		___fldiv
  1909 ;;		___xxtofl
  1910 ;; This function is called by:
  1911 ;;		_main
  1912 ;; This function uses a non-reentrant model
  1913 ;;
  1914                           
  1915  00F3                     _dist3:	
  1916                           ;psect for function _dist3
  1917                           
  1918  00F3                     l1736:	
  1919                           ;incstack = 0
  1920                           ; Regs used in _dist3: [wreg+status,2+status,0+btemp+1+pclath+cstack]
  1921                           
  1922  00F3                     l1738:
  1923                           
  1924                           ;./sensor.h: 50:     TMR1 = 0;
  1925  00F3  1283               	bcf	3,5	;RP0=0, select bank0
  1926  00F4  1303               	bcf	3,6	;RP1=0, select bank0
  1927  00F5  018E               	clrf	14	;volatile
  1928  00F6  018F               	clrf	15	;volatile
  1929  00F7                     l1740:
  1930                           
  1931                           ;./sensor.h: 51:     RC5 = 1;
  1932  00F7  1687               	bsf	7,5	;volatile
  1933  00F8                     l1742:
  1934                           
  1935                           ;./sensor.h: 52:     _delay((unsigned long)((10)*(4000000/4000000.0)));
  1936  00F8  3002               	movlw	2
  1937  00F9  1283               	bcf	3,5	;RP0=0, select bank0
  1938  00FA  1303               	bcf	3,6	;RP1=0, select bank0
  1939  00FB  00BE               	movwf	??_dist3
  1940  00FC                     u1867:
  1941  00FC  0BBE               	decfsz	??_dist3,f
  1942  00FD  28FC               	goto	u1867
  1943  00FE  0000               	nop
  1944  00FF                     l1744:
  1945                           
  1946                           ;./sensor.h: 53:     RC5 = 0;
  1947  00FF  1283               	bcf	3,5	;RP0=0, select bank0
  1948  0100  1303               	bcf	3,6	;RP1=0, select bank0
  1949  0101  1287               	bcf	7,5	;volatile
  1950  0102                     l135:	
  1951                           ;./sensor.h: 54:     while(!RC4);
  1952                           
  1953  0102  1E07               	btfss	7,4	;volatile
  1954  0103  2905               	goto	u1581
  1955  0104  2906               	goto	u1580
  1956  0105                     u1581:
  1957  0105  2902               	goto	l135
  1958  0106                     u1580:
  1959  0106                     l137:
  1960                           
  1961                           ;./sensor.h: 55:     TMR1ON = 1;
  1962  0106  1410               	bsf	16,0	;volatile
  1963  0107                     l138:	
  1964                           ;./sensor.h: 56:     while(RC4);
  1965                           
  1966  0107  1A07               	btfsc	7,4	;volatile
  1967  0108  290A               	goto	u1591
  1968  0109  290B               	goto	u1590
  1969  010A                     u1591:
  1970  010A  2907               	goto	l138
  1971  010B                     u1590:
  1972  010B                     l140:
  1973                           
  1974                           ;./sensor.h: 57:     TMR1ON = 0;
  1975  010B  1010               	bcf	16,0	;volatile
  1976  010C                     l1746:
  1977                           
  1978                           ;./sensor.h: 58:     distance3 = TMR1/58.8;
  1979  010C  3042               	movlw	66
  1980  010D  00A3               	movwf	___fldiv@a+3
  1981  010E  306B               	movlw	107
  1982  010F  00A2               	movwf	___fldiv@a+2
  1983  0110  3033               	movlw	51
  1984  0111  00A1               	movwf	___fldiv@a+1
  1985  0112  3033               	movlw	51
  1986  0113  00A0               	movwf	___fldiv@a
  1987  0114  080E               	movf	14,w	;volatile
  1988  0115  00F0               	movwf	___xxtofl@val
  1989  0116  080F               	movf	15,w	;volatile
  1990  0117  00F1               	movwf	___xxtofl@val+1
  1991  0118  01F2               	clrf	___xxtofl@val+2
  1992  0119  01F3               	clrf	___xxtofl@val+3
  1993  011A  3000               	movlw	0
  1994  011B  120A  118A  2306  120A  118A  	fcall	___xxtofl
  1995  0120  0873               	movf	?___xxtofl+3,w
  1996  0121  1283               	bcf	3,5	;RP0=0, select bank0
  1997  0122  1303               	bcf	3,6	;RP1=0, select bank0
  1998  0123  00A7               	movwf	___fldiv@b+3
  1999  0124  0872               	movf	?___xxtofl+2,w
  2000  0125  00A6               	movwf	___fldiv@b+2
  2001  0126  0871               	movf	?___xxtofl+1,w
  2002  0127  00A5               	movwf	___fldiv@b+1
  2003  0128  0870               	movf	?___xxtofl,w
  2004  0129  00A4               	movwf	___fldiv@b
  2005  012A  120A  118A  23C0  120A  118A  	fcall	___fldiv
  2006  012F  1283               	bcf	3,5	;RP0=0, select bank0
  2007  0130  1303               	bcf	3,6	;RP1=0, select bank0
  2008  0131  0823               	movf	?___fldiv+3,w
  2009  0132  00C2               	movwf	dist3@distance3+3
  2010  0133  0822               	movf	?___fldiv+2,w
  2011  0134  00C1               	movwf	dist3@distance3+2
  2012  0135  0821               	movf	?___fldiv+1,w
  2013  0136  00C0               	movwf	dist3@distance3+1
  2014  0137  0820               	movf	?___fldiv,w
  2015  0138  00BF               	movwf	dist3@distance3
  2016  0139                     l1748:
  2017                           
  2018                           ;./sensor.h: 59:     T1CKPS0=0;
  2019  0139  1210               	bcf	16,4	;volatile
  2020  013A                     l1750:
  2021                           
  2022                           ;./sensor.h: 60:     T1CKPS1=0;
  2023  013A  1290               	bcf	16,5	;volatile
  2024  013B                     l1752:
  2025                           
  2026                           ;./sensor.h: 62:     return distance3;
  2027  013B  0842               	movf	dist3@distance3+3,w
  2028  013C  00BD               	movwf	?_dist3+3
  2029  013D  0841               	movf	dist3@distance3+2,w
  2030  013E  00BC               	movwf	?_dist3+2
  2031  013F  0840               	movf	dist3@distance3+1,w
  2032  0140  00BB               	movwf	?_dist3+1
  2033  0141  083F               	movf	dist3@distance3,w
  2034  0142  00BA               	movwf	?_dist3
  2035  0143                     l141:
  2036  0143  0008               	return
  2037  0144                     __end_of_dist3:
  2038                           
  2039                           	psect	text5
  2040  00A2                     __ptext5:	
  2041 ;; *************** function _dist2 *****************
  2042 ;; Defined at:
  2043 ;;		line 29 in file "./sensor.h"
  2044 ;; Parameters:    Size  Location     Type
  2045 ;;		None
  2046 ;; Auto vars:     Size  Location     Type
  2047 ;;  distance2       4   31[BANK0 ] float 
  2048 ;; Return value:  Size  Location     Type
  2049 ;;                  4   26[BANK0 ] float 
  2050 ;; Registers used:
  2051 ;;		wreg, status,2, status,0, btemp+1, pclath, cstack
  2052 ;; Tracked objects:
  2053 ;;		On entry : 0/0
  2054 ;;		On exit  : 0/0
  2055 ;;		Unchanged: 0/0
  2056 ;; Data sizes:     COMMON   BANK0   BANK1   BANK3   BANK2
  2057 ;;      Params:         0       4       0       0       0
  2058 ;;      Locals:         0       4       0       0       0
  2059 ;;      Temps:          0       1       0       0       0
  2060 ;;      Totals:         0       9       0       0       0
  2061 ;;Total ram usage:        9 bytes
  2062 ;; Hardware stack levels used: 1
  2063 ;; Hardware stack levels required when called: 1
  2064 ;; This function calls:
  2065 ;;		___fldiv
  2066 ;;		___xxtofl
  2067 ;; This function is called by:
  2068 ;;		_main
  2069 ;; This function uses a non-reentrant model
  2070 ;;
  2071                           
  2072  00A2                     _dist2:	
  2073                           ;psect for function _dist2
  2074                           
  2075  00A2                     l1716:	
  2076                           ;incstack = 0
  2077                           ; Regs used in _dist2: [wreg+status,2+status,0+btemp+1+pclath+cstack]
  2078                           
  2079  00A2                     l1718:
  2080                           
  2081                           ;./sensor.h: 32:     TMR1 = 0;
  2082  00A2  1283               	bcf	3,5	;RP0=0, select bank0
  2083  00A3  1303               	bcf	3,6	;RP1=0, select bank0
  2084  00A4  018E               	clrf	14	;volatile
  2085  00A5  018F               	clrf	15	;volatile
  2086  00A6                     l1720:
  2087                           
  2088                           ;./sensor.h: 33:     RD5 = 1;
  2089  00A6  1688               	bsf	8,5	;volatile
  2090  00A7                     l1722:
  2091                           
  2092                           ;./sensor.h: 34:     _delay((unsigned long)((10)*(4000000/4000000.0)));
  2093  00A7  3002               	movlw	2
  2094  00A8  1283               	bcf	3,5	;RP0=0, select bank0
  2095  00A9  1303               	bcf	3,6	;RP1=0, select bank0
  2096  00AA  00BE               	movwf	??_dist2
  2097  00AB                     u1877:
  2098  00AB  0BBE               	decfsz	??_dist2,f
  2099  00AC  28AB               	goto	u1877
  2100  00AD  0000               	nop
  2101  00AE                     l1724:
  2102                           
  2103                           ;./sensor.h: 35:     RD5 = 0;
  2104  00AE  1283               	bcf	3,5	;RP0=0, select bank0
  2105  00AF  1303               	bcf	3,6	;RP1=0, select bank0
  2106  00B0  1288               	bcf	8,5	;volatile
  2107  00B1                     l126:	
  2108                           ;./sensor.h: 36:     while(!RD4);
  2109                           
  2110  00B1  1E08               	btfss	8,4	;volatile
  2111  00B2  28B4               	goto	u1561
  2112  00B3  28B5               	goto	u1560
  2113  00B4                     u1561:
  2114  00B4  28B1               	goto	l126
  2115  00B5                     u1560:
  2116  00B5                     l128:
  2117                           
  2118                           ;./sensor.h: 37:     TMR1ON = 1;
  2119  00B5  1410               	bsf	16,0	;volatile
  2120  00B6                     l129:	
  2121                           ;./sensor.h: 38:     while(RD4);
  2122                           
  2123  00B6  1A08               	btfsc	8,4	;volatile
  2124  00B7  28B9               	goto	u1571
  2125  00B8  28BA               	goto	u1570
  2126  00B9                     u1571:
  2127  00B9  28B6               	goto	l129
  2128  00BA                     u1570:
  2129  00BA                     l131:
  2130                           
  2131                           ;./sensor.h: 39:     TMR1ON = 0;
  2132  00BA  1010               	bcf	16,0	;volatile
  2133  00BB                     l1726:
  2134                           
  2135                           ;./sensor.h: 40:     distance2 = TMR1/58.8;
  2136  00BB  3042               	movlw	66
  2137  00BC  00A3               	movwf	___fldiv@a+3
  2138  00BD  306B               	movlw	107
  2139  00BE  00A2               	movwf	___fldiv@a+2
  2140  00BF  3033               	movlw	51
  2141  00C0  00A1               	movwf	___fldiv@a+1
  2142  00C1  3033               	movlw	51
  2143  00C2  00A0               	movwf	___fldiv@a
  2144  00C3  080E               	movf	14,w	;volatile
  2145  00C4  00F0               	movwf	___xxtofl@val
  2146  00C5  080F               	movf	15,w	;volatile
  2147  00C6  00F1               	movwf	___xxtofl@val+1
  2148  00C7  01F2               	clrf	___xxtofl@val+2
  2149  00C8  01F3               	clrf	___xxtofl@val+3
  2150  00C9  3000               	movlw	0
  2151  00CA  120A  118A  2306  120A  118A  	fcall	___xxtofl
  2152  00CF  0873               	movf	?___xxtofl+3,w
  2153  00D0  1283               	bcf	3,5	;RP0=0, select bank0
  2154  00D1  1303               	bcf	3,6	;RP1=0, select bank0
  2155  00D2  00A7               	movwf	___fldiv@b+3
  2156  00D3  0872               	movf	?___xxtofl+2,w
  2157  00D4  00A6               	movwf	___fldiv@b+2
  2158  00D5  0871               	movf	?___xxtofl+1,w
  2159  00D6  00A5               	movwf	___fldiv@b+1
  2160  00D7  0870               	movf	?___xxtofl,w
  2161  00D8  00A4               	movwf	___fldiv@b
  2162  00D9  120A  118A  23C0  120A  118A  	fcall	___fldiv
  2163  00DE  1283               	bcf	3,5	;RP0=0, select bank0
  2164  00DF  1303               	bcf	3,6	;RP1=0, select bank0
  2165  00E0  0823               	movf	?___fldiv+3,w
  2166  00E1  00C2               	movwf	dist2@distance2+3
  2167  00E2  0822               	movf	?___fldiv+2,w
  2168  00E3  00C1               	movwf	dist2@distance2+2
  2169  00E4  0821               	movf	?___fldiv+1,w
  2170  00E5  00C0               	movwf	dist2@distance2+1
  2171  00E6  0820               	movf	?___fldiv,w
  2172  00E7  00BF               	movwf	dist2@distance2
  2173  00E8                     l1728:
  2174                           
  2175                           ;./sensor.h: 41:     T1CKPS0 = 0;
  2176  00E8  1210               	bcf	16,4	;volatile
  2177  00E9                     l1730:
  2178                           
  2179                           ;./sensor.h: 42:     T1CKPS1 = 0;
  2180  00E9  1290               	bcf	16,5	;volatile
  2181  00EA                     l1732:
  2182                           
  2183                           ;./sensor.h: 44:     return distance2;
  2184  00EA  0842               	movf	dist2@distance2+3,w
  2185  00EB  00BD               	movwf	?_dist2+3
  2186  00EC  0841               	movf	dist2@distance2+2,w
  2187  00ED  00BC               	movwf	?_dist2+2
  2188  00EE  0840               	movf	dist2@distance2+1,w
  2189  00EF  00BB               	movwf	?_dist2+1
  2190  00F0  083F               	movf	dist2@distance2,w
  2191  00F1  00BA               	movwf	?_dist2
  2192  00F2                     l132:
  2193  00F2  0008               	return
  2194  00F3                     __end_of_dist2:
  2195                           
  2196                           	psect	text6
  2197  0051                     __ptext6:	
  2198 ;; *************** function _dist1 *****************
  2199 ;; Defined at:
  2200 ;;		line 11 in file "./sensor.h"
  2201 ;; Parameters:    Size  Location     Type
  2202 ;;		None
  2203 ;; Auto vars:     Size  Location     Type
  2204 ;;  distance1       4   31[BANK0 ] float 
  2205 ;; Return value:  Size  Location     Type
  2206 ;;                  4   26[BANK0 ] float 
  2207 ;; Registers used:
  2208 ;;		wreg, status,2, status,0, btemp+1, pclath, cstack
  2209 ;; Tracked objects:
  2210 ;;		On entry : 0/0
  2211 ;;		On exit  : 0/0
  2212 ;;		Unchanged: 0/0
  2213 ;; Data sizes:     COMMON   BANK0   BANK1   BANK3   BANK2
  2214 ;;      Params:         0       4       0       0       0
  2215 ;;      Locals:         0       4       0       0       0
  2216 ;;      Temps:          0       1       0       0       0
  2217 ;;      Totals:         0       9       0       0       0
  2218 ;;Total ram usage:        9 bytes
  2219 ;; Hardware stack levels used: 1
  2220 ;; Hardware stack levels required when called: 1
  2221 ;; This function calls:
  2222 ;;		___fldiv
  2223 ;;		___xxtofl
  2224 ;; This function is called by:
  2225 ;;		_main
  2226 ;; This function uses a non-reentrant model
  2227 ;;
  2228                           
  2229  0051                     _dist1:	
  2230                           ;psect for function _dist1
  2231                           
  2232  0051                     l1696:	
  2233                           ;incstack = 0
  2234                           ; Regs used in _dist1: [wreg+status,2+status,0+btemp+1+pclath+cstack]
  2235                           
  2236  0051                     l1698:
  2237                           
  2238                           ;./sensor.h: 14:     TMR1 = 0;
  2239  0051  1283               	bcf	3,5	;RP0=0, select bank0
  2240  0052  1303               	bcf	3,6	;RP1=0, select bank0
  2241  0053  018E               	clrf	14	;volatile
  2242  0054  018F               	clrf	15	;volatile
  2243  0055                     l1700:
  2244                           
  2245                           ;./sensor.h: 15:     RD7 = 1;
  2246  0055  1788               	bsf	8,7	;volatile
  2247  0056                     l1702:
  2248                           
  2249                           ;./sensor.h: 16:     _delay((unsigned long)((10)*(4000000/4000000.0)));
  2250  0056  3002               	movlw	2
  2251  0057  1283               	bcf	3,5	;RP0=0, select bank0
  2252  0058  1303               	bcf	3,6	;RP1=0, select bank0
  2253  0059  00BE               	movwf	??_dist1
  2254  005A                     u1887:
  2255  005A  0BBE               	decfsz	??_dist1,f
  2256  005B  285A               	goto	u1887
  2257  005C  0000               	nop
  2258  005D                     l1704:
  2259                           
  2260                           ;./sensor.h: 17:     RD7 = 0;
  2261  005D  1283               	bcf	3,5	;RP0=0, select bank0
  2262  005E  1303               	bcf	3,6	;RP1=0, select bank0
  2263  005F  1388               	bcf	8,7	;volatile
  2264  0060                     l117:	
  2265                           ;./sensor.h: 18:     while(!RD6);
  2266                           
  2267  0060  1F08               	btfss	8,6	;volatile
  2268  0061  2863               	goto	u1541
  2269  0062  2864               	goto	u1540
  2270  0063                     u1541:
  2271  0063  2860               	goto	l117
  2272  0064                     u1540:
  2273  0064                     l119:
  2274                           
  2275                           ;./sensor.h: 19:     TMR1ON = 1;
  2276  0064  1410               	bsf	16,0	;volatile
  2277  0065                     l120:	
  2278                           ;./sensor.h: 20:     while(RD6);
  2279                           
  2280  0065  1B08               	btfsc	8,6	;volatile
  2281  0066  2868               	goto	u1551
  2282  0067  2869               	goto	u1550
  2283  0068                     u1551:
  2284  0068  2865               	goto	l120
  2285  0069                     u1550:
  2286  0069                     l122:
  2287                           
  2288                           ;./sensor.h: 21:     TMR1ON = 0;
  2289  0069  1010               	bcf	16,0	;volatile
  2290  006A                     l1706:
  2291                           
  2292                           ;./sensor.h: 22:     distance1 = TMR1/58.8;
  2293  006A  3042               	movlw	66
  2294  006B  00A3               	movwf	___fldiv@a+3
  2295  006C  306B               	movlw	107
  2296  006D  00A2               	movwf	___fldiv@a+2
  2297  006E  3033               	movlw	51
  2298  006F  00A1               	movwf	___fldiv@a+1
  2299  0070  3033               	movlw	51
  2300  0071  00A0               	movwf	___fldiv@a
  2301  0072  080E               	movf	14,w	;volatile
  2302  0073  00F0               	movwf	___xxtofl@val
  2303  0074  080F               	movf	15,w	;volatile
  2304  0075  00F1               	movwf	___xxtofl@val+1
  2305  0076  01F2               	clrf	___xxtofl@val+2
  2306  0077  01F3               	clrf	___xxtofl@val+3
  2307  0078  3000               	movlw	0
  2308  0079  120A  118A  2306  120A  118A  	fcall	___xxtofl
  2309  007E  0873               	movf	?___xxtofl+3,w
  2310  007F  1283               	bcf	3,5	;RP0=0, select bank0
  2311  0080  1303               	bcf	3,6	;RP1=0, select bank0
  2312  0081  00A7               	movwf	___fldiv@b+3
  2313  0082  0872               	movf	?___xxtofl+2,w
  2314  0083  00A6               	movwf	___fldiv@b+2
  2315  0084  0871               	movf	?___xxtofl+1,w
  2316  0085  00A5               	movwf	___fldiv@b+1
  2317  0086  0870               	movf	?___xxtofl,w
  2318  0087  00A4               	movwf	___fldiv@b
  2319  0088  120A  118A  23C0  120A  118A  	fcall	___fldiv
  2320  008D  1283               	bcf	3,5	;RP0=0, select bank0
  2321  008E  1303               	bcf	3,6	;RP1=0, select bank0
  2322  008F  0823               	movf	?___fldiv+3,w
  2323  0090  00C2               	movwf	dist1@distance1+3
  2324  0091  0822               	movf	?___fldiv+2,w
  2325  0092  00C1               	movwf	dist1@distance1+2
  2326  0093  0821               	movf	?___fldiv+1,w
  2327  0094  00C0               	movwf	dist1@distance1+1
  2328  0095  0820               	movf	?___fldiv,w
  2329  0096  00BF               	movwf	dist1@distance1
  2330  0097                     l1708:
  2331                           
  2332                           ;./sensor.h: 23:     T1CKPS0 = 0;
  2333  0097  1210               	bcf	16,4	;volatile
  2334  0098                     l1710:
  2335                           
  2336                           ;./sensor.h: 24:     T1CKPS1 = 0;
  2337  0098  1290               	bcf	16,5	;volatile
  2338  0099                     l1712:
  2339                           
  2340                           ;./sensor.h: 26:     return distance1;
  2341  0099  0842               	movf	dist1@distance1+3,w
  2342  009A  00BD               	movwf	?_dist1+3
  2343  009B  0841               	movf	dist1@distance1+2,w
  2344  009C  00BC               	movwf	?_dist1+2
  2345  009D  0840               	movf	dist1@distance1+1,w
  2346  009E  00BB               	movwf	?_dist1+1
  2347  009F  083F               	movf	dist1@distance1,w
  2348  00A0  00BA               	movwf	?_dist1
  2349  00A1                     l123:
  2350  00A1  0008               	return
  2351  00A2                     __end_of_dist1:
  2352                           
  2353                           	psect	text7
  2354  0306                     __ptext7:	
  2355 ;; *************** function ___xxtofl *****************
  2356 ;; Defined at:
  2357 ;;		line 10 in file "C:\Program Files\Microchip\xc8\v2.36\pic\sources\c90\common\xxtofl.c"
  2358 ;; Parameters:    Size  Location     Type
  2359 ;;  sign            1    wreg     unsigned char 
  2360 ;;  val             4    0[COMMON] long 
  2361 ;; Auto vars:     Size  Location     Type
  2362 ;;  sign            1    8[COMMON] unsigned char 
  2363 ;;  arg             4   10[COMMON] unsigned long 
  2364 ;;  exp             1    9[COMMON] unsigned char 
  2365 ;; Return value:  Size  Location     Type
  2366 ;;                  4    0[COMMON] unsigned char 
  2367 ;; Registers used:
  2368 ;;		wreg, status,2, status,0
  2369 ;; Tracked objects:
  2370 ;;		On entry : 0/0
  2371 ;;		On exit  : 0/0
  2372 ;;		Unchanged: 0/0
  2373 ;; Data sizes:     COMMON   BANK0   BANK1   BANK3   BANK2
  2374 ;;      Params:         4       0       0       0       0
  2375 ;;      Locals:         6       0       0       0       0
  2376 ;;      Temps:          4       0       0       0       0
  2377 ;;      Totals:        14       0       0       0       0
  2378 ;;Total ram usage:       14 bytes
  2379 ;; Hardware stack levels used: 1
  2380 ;; This function calls:
  2381 ;;		Nothing
  2382 ;; This function is called by:
  2383 ;;		_dist1
  2384 ;;		_dist2
  2385 ;;		_dist3
  2386 ;;		_main
  2387 ;; This function uses a non-reentrant model
  2388 ;;
  2389                           
  2390  0306                     ___xxtofl:	
  2391                           ;psect for function ___xxtofl
  2392                           
  2393                           
  2394                           ;incstack = 0
  2395                           ; Regs used in ___xxtofl: [wreg+status,2+status,0]
  2396                           ;___xxtofl@sign stored from wreg
  2397  0306  00F8               	movwf	___xxtofl@sign
  2398  0307                     l1652:
  2399  0307  0878               	movf	___xxtofl@sign,w
  2400  0308  1903               	btfsc	3,2
  2401  0309  2B0B               	goto	u1401
  2402  030A  2B0C               	goto	u1400
  2403  030B                     u1401:
  2404  030B  2B20               	goto	l1658
  2405  030C                     u1400:
  2406  030C                     l1654:
  2407  030C  1FF3               	btfss	___xxtofl@val+3,7
  2408  030D  2B0F               	goto	u1411
  2409  030E  2B10               	goto	u1410
  2410  030F                     u1411:
  2411  030F  2B20               	goto	l1658
  2412  0310                     u1410:
  2413  0310                     l1656:
  2414  0310  0970               	comf	___xxtofl@val,w
  2415  0311  00FA               	movwf	___xxtofl@arg
  2416  0312  0971               	comf	___xxtofl@val+1,w
  2417  0313  00FB               	movwf	___xxtofl@arg+1
  2418  0314  0972               	comf	___xxtofl@val+2,w
  2419  0315  00FC               	movwf	___xxtofl@arg+2
  2420  0316  0973               	comf	___xxtofl@val+3,w
  2421  0317  00FD               	movwf	___xxtofl@arg+3
  2422  0318  0AFA               	incf	___xxtofl@arg,f
  2423  0319  1903               	skipnz
  2424  031A  0AFB               	incf	___xxtofl@arg+1,f
  2425  031B  1903               	skipnz
  2426  031C  0AFC               	incf	___xxtofl@arg+2,f
  2427  031D  1903               	skipnz
  2428  031E  0AFD               	incf	___xxtofl@arg+3,f
  2429  031F  2B28               	goto	l735
  2430  0320                     l1658:
  2431  0320  0873               	movf	___xxtofl@val+3,w
  2432  0321  00FD               	movwf	___xxtofl@arg+3
  2433  0322  0872               	movf	___xxtofl@val+2,w
  2434  0323  00FC               	movwf	___xxtofl@arg+2
  2435  0324  0871               	movf	___xxtofl@val+1,w
  2436  0325  00FB               	movwf	___xxtofl@arg+1
  2437  0326  0870               	movf	___xxtofl@val,w
  2438  0327  00FA               	movwf	___xxtofl@arg
  2439  0328                     l735:
  2440  0328  0873               	movf	___xxtofl@val+3,w
  2441  0329  0472               	iorwf	___xxtofl@val+2,w
  2442  032A  0471               	iorwf	___xxtofl@val+1,w
  2443  032B  0470               	iorwf	___xxtofl@val,w
  2444  032C  1D03               	skipz
  2445  032D  2B2F               	goto	u1421
  2446  032E  2B30               	goto	u1420
  2447  032F                     u1421:
  2448  032F  2B39               	goto	l1664
  2449  0330                     u1420:
  2450  0330                     l1660:
  2451  0330  3000               	movlw	0
  2452  0331  00F3               	movwf	?___xxtofl+3
  2453  0332  3000               	movlw	0
  2454  0333  00F2               	movwf	?___xxtofl+2
  2455  0334  3000               	movlw	0
  2456  0335  00F1               	movwf	?___xxtofl+1
  2457  0336  3000               	movlw	0
  2458  0337  00F0               	movwf	?___xxtofl
  2459  0338  2BBF               	goto	l737
  2460  0339                     l1664:
  2461  0339  3096               	movlw	150
  2462  033A  00F4               	movwf	??___xxtofl
  2463  033B  0874               	movf	??___xxtofl,w
  2464  033C  00F9               	movwf	___xxtofl@exp
  2465  033D  2B4B               	goto	l1668
  2466  033E                     l1666:
  2467  033E  3001               	movlw	1
  2468  033F  00F4               	movwf	??___xxtofl
  2469  0340  0874               	movf	??___xxtofl,w
  2470  0341  07F9               	addwf	___xxtofl@exp,f
  2471  0342  3001               	movlw	1
  2472  0343                     u1435:
  2473  0343  1003               	clrc
  2474  0344  0CFD               	rrf	___xxtofl@arg+3,f
  2475  0345  0CFC               	rrf	___xxtofl@arg+2,f
  2476  0346  0CFB               	rrf	___xxtofl@arg+1,f
  2477  0347  0CFA               	rrf	___xxtofl@arg,f
  2478  0348  3EFF               	addlw	-1
  2479  0349  1D03               	skipz
  2480  034A  2B43               	goto	u1435
  2481  034B                     l1668:
  2482  034B  30FE               	movlw	254
  2483  034C  057D               	andwf	___xxtofl@arg+3,w
  2484  034D  1D03               	btfss	3,2
  2485  034E  2B50               	goto	u1441
  2486  034F  2B51               	goto	u1440
  2487  0350                     u1441:
  2488  0350  2B3E               	goto	l1666
  2489  0351                     u1440:
  2490  0351  2B6D               	goto	l741
  2491  0352                     l1670:
  2492  0352  3001               	movlw	1
  2493  0353  00F4               	movwf	??___xxtofl
  2494  0354  0874               	movf	??___xxtofl,w
  2495  0355  07F9               	addwf	___xxtofl@exp,f
  2496  0356                     l1672:
  2497  0356  3001               	movlw	1
  2498  0357  07FA               	addwf	___xxtofl@arg,f
  2499  0358  3000               	movlw	0
  2500  0359  1803               	skipnc
  2501  035A  3001               	movlw	1
  2502  035B  07FB               	addwf	___xxtofl@arg+1,f
  2503  035C  3000               	movlw	0
  2504  035D  1803               	skipnc
  2505  035E  3001               	movlw	1
  2506  035F  07FC               	addwf	___xxtofl@arg+2,f
  2507  0360  3000               	movlw	0
  2508  0361  1803               	skipnc
  2509  0362  3001               	movlw	1
  2510  0363  07FD               	addwf	___xxtofl@arg+3,f
  2511  0364                     l1674:
  2512  0364  3001               	movlw	1
  2513  0365                     u1455:
  2514  0365  1003               	clrc
  2515  0366  0CFD               	rrf	___xxtofl@arg+3,f
  2516  0367  0CFC               	rrf	___xxtofl@arg+2,f
  2517  0368  0CFB               	rrf	___xxtofl@arg+1,f
  2518  0369  0CFA               	rrf	___xxtofl@arg,f
  2519  036A  3EFF               	addlw	-1
  2520  036B  1D03               	skipz
  2521  036C  2B65               	goto	u1455
  2522  036D                     l741:
  2523  036D  30FF               	movlw	255
  2524  036E  057D               	andwf	___xxtofl@arg+3,w
  2525  036F  1D03               	btfss	3,2
  2526  0370  2B72               	goto	u1461
  2527  0371  2B73               	goto	u1460
  2528  0372                     u1461:
  2529  0372  2B52               	goto	l1670
  2530  0373                     u1460:
  2531  0373  2B7F               	goto	l1678
  2532  0374                     l1676:
  2533  0374  3001               	movlw	1
  2534  0375  02F9               	subwf	___xxtofl@exp,f
  2535  0376  3001               	movlw	1
  2536  0377  00F4               	movwf	??___xxtofl
  2537  0378                     u1475:
  2538  0378  1003               	clrc
  2539  0379  0DFA               	rlf	___xxtofl@arg,f
  2540  037A  0DFB               	rlf	___xxtofl@arg+1,f
  2541  037B  0DFC               	rlf	___xxtofl@arg+2,f
  2542  037C  0DFD               	rlf	___xxtofl@arg+3,f
  2543  037D  0BF4               	decfsz	??___xxtofl,f
  2544  037E  2B78               	goto	u1475
  2545  037F                     l1678:
  2546  037F  1BFC               	btfsc	___xxtofl@arg+2,7
  2547  0380  2B82               	goto	u1481
  2548  0381  2B83               	goto	u1480
  2549  0382                     u1481:
  2550  0382  2B89               	goto	l748
  2551  0383                     u1480:
  2552  0383                     l1680:
  2553  0383  3002               	movlw	2
  2554  0384  0279               	subwf	___xxtofl@exp,w
  2555  0385  1803               	skipnc
  2556  0386  2B88               	goto	u1491
  2557  0387  2B89               	goto	u1490
  2558  0388                     u1491:
  2559  0388  2B74               	goto	l1676
  2560  0389                     u1490:
  2561  0389                     l748:
  2562  0389  1879               	btfsc	___xxtofl@exp,0
  2563  038A  2B8C               	goto	u1501
  2564  038B  2B8D               	goto	u1500
  2565  038C                     u1501:
  2566  038C  2B95               	goto	l749
  2567  038D                     u1500:
  2568  038D                     l1682:
  2569  038D  30FF               	movlw	255
  2570  038E  05FA               	andwf	___xxtofl@arg,f
  2571  038F  30FF               	movlw	255
  2572  0390  05FB               	andwf	___xxtofl@arg+1,f
  2573  0391  307F               	movlw	127
  2574  0392  05FC               	andwf	___xxtofl@arg+2,f
  2575  0393  30FF               	movlw	255
  2576  0394  05FD               	andwf	___xxtofl@arg+3,f
  2577  0395                     l749:
  2578  0395  1003               	clrc
  2579  0396  0CF9               	rrf	___xxtofl@exp,f
  2580  0397                     l1684:
  2581  0397  0879               	movf	___xxtofl@exp,w
  2582  0398  00F4               	movwf	??___xxtofl
  2583  0399  01F5               	clrf	??___xxtofl+1
  2584  039A  01F6               	clrf	??___xxtofl+2
  2585  039B  01F7               	clrf	??___xxtofl+3
  2586  039C  3018               	movlw	24
  2587  039D                     u1515:
  2588  039D  1003               	clrc
  2589  039E  0DF4               	rlf	??___xxtofl,f
  2590  039F  0DF5               	rlf	??___xxtofl+1,f
  2591  03A0  0DF6               	rlf	??___xxtofl+2,f
  2592  03A1  0DF7               	rlf	??___xxtofl+3,f
  2593  03A2                     u1510:
  2594  03A2  3EFF               	addlw	-1
  2595  03A3  1D03               	skipz
  2596  03A4  2B9D               	goto	u1515
  2597  03A5  0874               	movf	??___xxtofl,w
  2598  03A6  04FA               	iorwf	___xxtofl@arg,f
  2599  03A7  0875               	movf	??___xxtofl+1,w
  2600  03A8  04FB               	iorwf	___xxtofl@arg+1,f
  2601  03A9  0876               	movf	??___xxtofl+2,w
  2602  03AA  04FC               	iorwf	___xxtofl@arg+2,f
  2603  03AB  0877               	movf	??___xxtofl+3,w
  2604  03AC  04FD               	iorwf	___xxtofl@arg+3,f
  2605  03AD                     l1686:
  2606  03AD  0878               	movf	___xxtofl@sign,w
  2607  03AE  1903               	btfsc	3,2
  2608  03AF  2BB1               	goto	u1521
  2609  03B0  2BB2               	goto	u1520
  2610  03B1                     u1521:
  2611  03B1  2BB7               	goto	l1692
  2612  03B2                     u1520:
  2613  03B2                     l1688:
  2614  03B2  1FF3               	btfss	___xxtofl@val+3,7
  2615  03B3  2BB5               	goto	u1531
  2616  03B4  2BB6               	goto	u1530
  2617  03B5                     u1531:
  2618  03B5  2BB7               	goto	l1692
  2619  03B6                     u1530:
  2620  03B6                     l1690:
  2621  03B6  17FD               	bsf	___xxtofl@arg+3,7
  2622  03B7                     l1692:
  2623  03B7  087D               	movf	___xxtofl@arg+3,w
  2624  03B8  00F3               	movwf	?___xxtofl+3
  2625  03B9  087C               	movf	___xxtofl@arg+2,w
  2626  03BA  00F2               	movwf	?___xxtofl+2
  2627  03BB  087B               	movf	___xxtofl@arg+1,w
  2628  03BC  00F1               	movwf	?___xxtofl+1
  2629  03BD  087A               	movf	___xxtofl@arg,w
  2630  03BE  00F0               	movwf	?___xxtofl
  2631  03BF                     l737:
  2632  03BF  0008               	return
  2633  03C0                     __end_of___xxtofl:
  2634                           
  2635                           	psect	text8
  2636  03C0                     __ptext8:	
  2637 ;; *************** function ___fldiv *****************
  2638 ;; Defined at:
  2639 ;;		line 8 in file "C:\Program Files\Microchip\xc8\v2.36\pic\sources\c90\common\sprcdiv.c"
  2640 ;; Parameters:    Size  Location     Type
  2641 ;;  a               4    0[BANK0 ] unsigned char 
  2642 ;;  b               4    4[BANK0 ] unsigned char 
  2643 ;; Auto vars:     Size  Location     Type
  2644 ;;  grs             4   20[BANK0 ] unsigned long 
  2645 ;;  rem             4   13[BANK0 ] unsigned long 
  2646 ;;  new_exp         2   18[BANK0 ] int 
  2647 ;;  aexp            1   25[BANK0 ] unsigned char 
  2648 ;;  bexp            1   24[BANK0 ] unsigned char 
  2649 ;;  sign            1   17[BANK0 ] unsigned char 
  2650 ;; Return value:  Size  Location     Type
  2651 ;;                  4    0[BANK0 ] unsigned char 
  2652 ;; Registers used:
  2653 ;;		wreg, status,2, status,0, btemp+1
  2654 ;; Tracked objects:
  2655 ;;		On entry : 0/0
  2656 ;;		On exit  : 0/0
  2657 ;;		Unchanged: 0/0
  2658 ;; Data sizes:     COMMON   BANK0   BANK1   BANK3   BANK2
  2659 ;;      Params:         0       8       0       0       0
  2660 ;;      Locals:         0      13       0       0       0
  2661 ;;      Temps:          0       5       0       0       0
  2662 ;;      Totals:         0      26       0       0       0
  2663 ;;Total ram usage:       26 bytes
  2664 ;; Hardware stack levels used: 1
  2665 ;; This function calls:
  2666 ;;		Nothing
  2667 ;; This function is called by:
  2668 ;;		_dist1
  2669 ;;		_dist2
  2670 ;;		_dist3
  2671 ;; This function uses a non-reentrant model
  2672 ;;
  2673                           
  2674  03C0                     ___fldiv:	
  2675                           ;psect for function ___fldiv
  2676                           
  2677  03C0                     l1510:	
  2678                           ;incstack = 0
  2679                           ; Regs used in ___fldiv: [wreg+status,2+status,0+btemp+1]
  2680                           
  2681  03C0  1283               	bcf	3,5	;RP0=0, select bank0
  2682  03C1  1303               	bcf	3,6	;RP1=0, select bank0
  2683  03C2  0827               	movf	___fldiv@b+3,w
  2684  03C3  3980               	andlw	128
  2685  03C4  00A8               	movwf	??___fldiv
  2686  03C5  0828               	movf	??___fldiv,w
  2687  03C6  00B1               	movwf	___fldiv@sign
  2688  03C7                     l1512:
  2689  03C7  0827               	movf	___fldiv@b+3,w
  2690  03C8  00A8               	movwf	??___fldiv
  2691  03C9  0728               	addwf	??___fldiv,w
  2692  03CA  00A9               	movwf	??___fldiv+1
  2693  03CB  0829               	movf	??___fldiv+1,w
  2694  03CC  00B8               	movwf	___fldiv@bexp
  2695  03CD                     l1514:
  2696  03CD  1FA6               	btfss	___fldiv@b+2,7
  2697  03CE  2BD0               	goto	u1111
  2698  03CF  2BD1               	goto	u1110
  2699  03D0                     u1111:
  2700  03D0  2BD2               	goto	l1518
  2701  03D1                     u1110:
  2702  03D1                     l1516:
  2703  03D1  1438               	bsf	___fldiv@bexp,0
  2704  03D2                     l1518:
  2705  03D2  0838               	movf	___fldiv@bexp,w
  2706  03D3  1903               	btfsc	3,2
  2707  03D4  2BD6               	goto	u1121
  2708  03D5  2BD7               	goto	u1120
  2709  03D6                     u1121:
  2710  03D6  2BE7               	goto	l1528
  2711  03D7                     u1120:
  2712  03D7                     l1520:
  2713  03D7  0A38               	incf	___fldiv@bexp,w
  2714  03D8  1D03               	btfss	3,2
  2715  03D9  2BDB               	goto	u1131
  2716  03DA  2BDC               	goto	u1130
  2717  03DB                     u1131:
  2718  03DB  2BE4               	goto	l1524
  2719  03DC                     u1130:
  2720  03DC                     l1522:
  2721  03DC  3000               	movlw	0
  2722  03DD  00A7               	movwf	___fldiv@b+3
  2723  03DE  3000               	movlw	0
  2724  03DF  00A6               	movwf	___fldiv@b+2
  2725  03E0  3000               	movlw	0
  2726  03E1  00A5               	movwf	___fldiv@b+1
  2727  03E2  3000               	movlw	0
  2728  03E3  00A4               	movwf	___fldiv@b
  2729  03E4                     l1524:
  2730  03E4  17A6               	bsf	___fldiv@b+2,7
  2731  03E5                     l1526:
  2732  03E5  01A7               	clrf	___fldiv@b+3
  2733  03E6  2BEF               	goto	l1530
  2734  03E7                     l1528:
  2735  03E7  3000               	movlw	0
  2736  03E8  00A7               	movwf	___fldiv@b+3
  2737  03E9  3000               	movlw	0
  2738  03EA  00A6               	movwf	___fldiv@b+2
  2739  03EB  3000               	movlw	0
  2740  03EC  00A5               	movwf	___fldiv@b+1
  2741  03ED  3000               	movlw	0
  2742  03EE  00A4               	movwf	___fldiv@b
  2743  03EF                     l1530:
  2744  03EF  0823               	movf	___fldiv@a+3,w
  2745  03F0  3980               	andlw	128
  2746  03F1  00A8               	movwf	??___fldiv
  2747  03F2  0828               	movf	??___fldiv,w
  2748  03F3  06B1               	xorwf	___fldiv@sign,f
  2749  03F4                     l1532:
  2750  03F4  0823               	movf	___fldiv@a+3,w
  2751  03F5  00A8               	movwf	??___fldiv
  2752  03F6  0728               	addwf	??___fldiv,w
  2753  03F7  00A9               	movwf	??___fldiv+1
  2754  03F8  0829               	movf	??___fldiv+1,w
  2755  03F9  00B9               	movwf	___fldiv@aexp
  2756  03FA                     l1534:
  2757  03FA  1FA2               	btfss	___fldiv@a+2,7
  2758  03FB  2BFD               	goto	u1141
  2759  03FC  2BFE               	goto	u1140
  2760  03FD                     u1141:
  2761  03FD  2BFF               	goto	l1538
  2762  03FE                     u1140:
  2763  03FE                     l1536:
  2764  03FE  1439               	bsf	___fldiv@aexp,0
  2765  03FF                     l1538:
  2766  03FF  0839               	movf	___fldiv@aexp,w
  2767  0400  1903               	btfsc	3,2
  2768  0401  2C03               	goto	u1151
  2769  0402  2C04               	goto	u1150
  2770  0403                     u1151:
  2771  0403  2C14               	goto	l1548
  2772  0404                     u1150:
  2773  0404                     l1540:
  2774  0404  0A39               	incf	___fldiv@aexp,w
  2775  0405  1D03               	btfss	3,2
  2776  0406  2C08               	goto	u1161
  2777  0407  2C09               	goto	u1160
  2778  0408                     u1161:
  2779  0408  2C11               	goto	l1544
  2780  0409                     u1160:
  2781  0409                     l1542:
  2782  0409  3000               	movlw	0
  2783  040A  00A3               	movwf	___fldiv@a+3
  2784  040B  3000               	movlw	0
  2785  040C  00A2               	movwf	___fldiv@a+2
  2786  040D  3000               	movlw	0
  2787  040E  00A1               	movwf	___fldiv@a+1
  2788  040F  3000               	movlw	0
  2789  0410  00A0               	movwf	___fldiv@a
  2790  0411                     l1544:
  2791  0411  17A2               	bsf	___fldiv@a+2,7
  2792  0412                     l1546:
  2793  0412  01A3               	clrf	___fldiv@a+3
  2794  0413  2C1C               	goto	l651
  2795  0414                     l1548:
  2796  0414  3000               	movlw	0
  2797  0415  00A3               	movwf	___fldiv@a+3
  2798  0416  3000               	movlw	0
  2799  0417  00A2               	movwf	___fldiv@a+2
  2800  0418  3000               	movlw	0
  2801  0419  00A1               	movwf	___fldiv@a+1
  2802  041A  3000               	movlw	0
  2803  041B  00A0               	movwf	___fldiv@a
  2804  041C                     l651:
  2805  041C  0823               	movf	___fldiv@a+3,w
  2806  041D  0422               	iorwf	___fldiv@a+2,w
  2807  041E  0421               	iorwf	___fldiv@a+1,w
  2808  041F  0420               	iorwf	___fldiv@a,w
  2809  0420  1D03               	skipz
  2810  0421  2C23               	goto	u1171
  2811  0422  2C24               	goto	u1170
  2812  0423                     u1171:
  2813  0423  2C3D               	goto	l1558
  2814  0424                     u1170:
  2815  0424                     l1550:
  2816  0424  3000               	movlw	0
  2817  0425  00A7               	movwf	___fldiv@b+3
  2818  0426  3000               	movlw	0
  2819  0427  00A6               	movwf	___fldiv@b+2
  2820  0428  3000               	movlw	0
  2821  0429  00A5               	movwf	___fldiv@b+1
  2822  042A  3000               	movlw	0
  2823  042B  00A4               	movwf	___fldiv@b
  2824  042C  3080               	movlw	128
  2825  042D  04A6               	iorwf	___fldiv@b+2,f
  2826  042E  307F               	movlw	127
  2827  042F  04A7               	iorwf	___fldiv@b+3,f
  2828  0430                     l1552:
  2829  0430  0831               	movf	___fldiv@sign,w
  2830  0431  00A8               	movwf	??___fldiv
  2831  0432  0828               	movf	??___fldiv,w
  2832  0433  04A7               	iorwf	___fldiv@b+3,f
  2833  0434                     l1554:
  2834  0434  0827               	movf	___fldiv@b+3,w
  2835  0435  00A3               	movwf	?___fldiv+3
  2836  0436  0826               	movf	___fldiv@b+2,w
  2837  0437  00A2               	movwf	?___fldiv+2
  2838  0438  0825               	movf	___fldiv@b+1,w
  2839  0439  00A1               	movwf	?___fldiv+1
  2840  043A  0824               	movf	___fldiv@b,w
  2841  043B  00A0               	movwf	?___fldiv
  2842  043C  2D9C               	goto	l653
  2843  043D                     l1558:
  2844  043D  0838               	movf	___fldiv@bexp,w
  2845  043E  1D03               	btfss	3,2
  2846  043F  2C41               	goto	u1181
  2847  0440  2C42               	goto	u1180
  2848  0441                     u1181:
  2849  0441  2C4B               	goto	l1564
  2850  0442                     u1180:
  2851  0442                     l1560:
  2852  0442  3000               	movlw	0
  2853  0443  00A3               	movwf	?___fldiv+3
  2854  0444  3000               	movlw	0
  2855  0445  00A2               	movwf	?___fldiv+2
  2856  0446  3000               	movlw	0
  2857  0447  00A1               	movwf	?___fldiv+1
  2858  0448  3000               	movlw	0
  2859  0449  00A0               	movwf	?___fldiv
  2860  044A  2D9C               	goto	l653
  2861  044B                     l1564:
  2862  044B  0838               	movf	___fldiv@bexp,w
  2863  044C  00A8               	movwf	??___fldiv
  2864  044D  01A9               	clrf	??___fldiv+1
  2865  044E  0829               	movf	??___fldiv+1,w
  2866  044F  00AB               	movwf	??___fldiv+3
  2867  0450  0839               	movf	___fldiv@aexp,w
  2868  0451  0228               	subwf	??___fldiv,w
  2869  0452  00AA               	movwf	??___fldiv+2
  2870  0453  1C03               	skipc
  2871  0454  03AB               	decf	??___fldiv+3,f
  2872  0455  082A               	movf	??___fldiv+2,w
  2873  0456  3E7F               	addlw	127
  2874  0457  00B2               	movwf	___fldiv@new_exp
  2875  0458  082B               	movf	??___fldiv+3,w
  2876  0459  1803               	skipnc
  2877  045A  3E01               	addlw	1
  2878  045B  3E00               	addlw	0
  2879  045C  00B3               	movwf	___fldiv@new_exp+1
  2880  045D                     l1566:
  2881  045D  0827               	movf	___fldiv@b+3,w
  2882  045E  00B0               	movwf	___fldiv@rem+3
  2883  045F  0826               	movf	___fldiv@b+2,w
  2884  0460  00AF               	movwf	___fldiv@rem+2
  2885  0461  0825               	movf	___fldiv@b+1,w
  2886  0462  00AE               	movwf	___fldiv@rem+1
  2887  0463  0824               	movf	___fldiv@b,w
  2888  0464  00AD               	movwf	___fldiv@rem
  2889  0465                     l1568:
  2890  0465  3000               	movlw	0
  2891  0466  00A7               	movwf	___fldiv@b+3
  2892  0467  3000               	movlw	0
  2893  0468  00A6               	movwf	___fldiv@b+2
  2894  0469  3000               	movlw	0
  2895  046A  00A5               	movwf	___fldiv@b+1
  2896  046B  3000               	movlw	0
  2897  046C  00A4               	movwf	___fldiv@b
  2898  046D                     l1570:
  2899  046D  3000               	movlw	0
  2900  046E  00B7               	movwf	___fldiv@grs+3
  2901  046F  3000               	movlw	0
  2902  0470  00B6               	movwf	___fldiv@grs+2
  2903  0471  3000               	movlw	0
  2904  0472  00B5               	movwf	___fldiv@grs+1
  2905  0473  3000               	movlw	0
  2906  0474  00B4               	movwf	___fldiv@grs
  2907  0475                     l1572:
  2908  0475  01B9               	clrf	___fldiv@aexp
  2909  0476  2CC1               	goto	l1592
  2910  0477                     l1574:
  2911  0477  0839               	movf	___fldiv@aexp,w
  2912  0478  1903               	btfsc	3,2
  2913  0479  2C7B               	goto	u1191
  2914  047A  2C7C               	goto	u1190
  2915  047B                     u1191:
  2916  047B  2C9C               	goto	l1584
  2917  047C                     u1190:
  2918  047C                     l1576:
  2919  047C  3001               	movlw	1
  2920  047D  00A8               	movwf	??___fldiv
  2921  047E                     u1205:
  2922  047E  1003               	clrc
  2923  047F  0DAD               	rlf	___fldiv@rem,f
  2924  0480  0DAE               	rlf	___fldiv@rem+1,f
  2925  0481  0DAF               	rlf	___fldiv@rem+2,f
  2926  0482  0DB0               	rlf	___fldiv@rem+3,f
  2927  0483  0BA8               	decfsz	??___fldiv,f
  2928  0484  2C7E               	goto	u1205
  2929  0485  3001               	movlw	1
  2930  0486  00A8               	movwf	??___fldiv
  2931  0487                     u1215:
  2932  0487  1003               	clrc
  2933  0488  0DA4               	rlf	___fldiv@b,f
  2934  0489  0DA5               	rlf	___fldiv@b+1,f
  2935  048A  0DA6               	rlf	___fldiv@b+2,f
  2936  048B  0DA7               	rlf	___fldiv@b+3,f
  2937  048C  0BA8               	decfsz	??___fldiv,f
  2938  048D  2C87               	goto	u1215
  2939  048E                     l1578:
  2940  048E  1FB7               	btfss	___fldiv@grs+3,7
  2941  048F  2C91               	goto	u1221
  2942  0490  2C92               	goto	u1220
  2943  0491                     u1221:
  2944  0491  2C93               	goto	l1582
  2945  0492                     u1220:
  2946  0492                     l1580:
  2947  0492  1424               	bsf	___fldiv@b,0
  2948  0493                     l1582:
  2949  0493  3001               	movlw	1
  2950  0494  00A8               	movwf	??___fldiv
  2951  0495                     u1235:
  2952  0495  1003               	clrc
  2953  0496  0DB4               	rlf	___fldiv@grs,f
  2954  0497  0DB5               	rlf	___fldiv@grs+1,f
  2955  0498  0DB6               	rlf	___fldiv@grs+2,f
  2956  0499  0DB7               	rlf	___fldiv@grs+3,f
  2957  049A  0BA8               	decfsz	??___fldiv,f
  2958  049B  2C95               	goto	u1235
  2959  049C                     l1584:
  2960  049C  0823               	movf	___fldiv@a+3,w
  2961  049D  0230               	subwf	___fldiv@rem+3,w
  2962  049E  1D03               	skipz
  2963  049F  2CAA               	goto	u1245
  2964  04A0  0822               	movf	___fldiv@a+2,w
  2965  04A1  022F               	subwf	___fldiv@rem+2,w
  2966  04A2  1D03               	skipz
  2967  04A3  2CAA               	goto	u1245
  2968  04A4  0821               	movf	___fldiv@a+1,w
  2969  04A5  022E               	subwf	___fldiv@rem+1,w
  2970  04A6  1D03               	skipz
  2971  04A7  2CAA               	goto	u1245
  2972  04A8  0820               	movf	___fldiv@a,w
  2973  04A9  022D               	subwf	___fldiv@rem,w
  2974  04AA                     u1245:
  2975  04AA  1C03               	skipc
  2976  04AB  2CAD               	goto	u1241
  2977  04AC  2CAE               	goto	u1240
  2978  04AD                     u1241:
  2979  04AD  2CBD               	goto	l1590
  2980  04AE                     u1240:
  2981  04AE                     l1586:
  2982  04AE  1737               	bsf	___fldiv@grs+3,6
  2983  04AF                     l1588:
  2984  04AF  0820               	movf	___fldiv@a,w
  2985  04B0  02AD               	subwf	___fldiv@rem,f
  2986  04B1  0821               	movf	___fldiv@a+1,w
  2987  04B2  1C03               	skipc
  2988  04B3  0F21               	incfsz	___fldiv@a+1,w
  2989  04B4  02AE               	subwf	___fldiv@rem+1,f
  2990  04B5  0822               	movf	___fldiv@a+2,w
  2991  04B6  1C03               	skipc
  2992  04B7  0F22               	incfsz	___fldiv@a+2,w
  2993  04B8  02AF               	subwf	___fldiv@rem+2,f
  2994  04B9  0823               	movf	___fldiv@a+3,w
  2995  04BA  1C03               	skipc
  2996  04BB  0F23               	incfsz	___fldiv@a+3,w
  2997  04BC  02B0               	subwf	___fldiv@rem+3,f
  2998  04BD                     l1590:
  2999  04BD  3001               	movlw	1
  3000  04BE  00A8               	movwf	??___fldiv
  3001  04BF  0828               	movf	??___fldiv,w
  3002  04C0  07B9               	addwf	___fldiv@aexp,f
  3003  04C1                     l1592:
  3004  04C1  301A               	movlw	26
  3005  04C2  0239               	subwf	___fldiv@aexp,w
  3006  04C3  1C03               	skipc
  3007  04C4  2CC6               	goto	u1251
  3008  04C5  2CC7               	goto	u1250
  3009  04C6                     u1251:
  3010  04C6  2C77               	goto	l1574
  3011  04C7                     u1250:
  3012  04C7                     l1594:
  3013  04C7  0830               	movf	___fldiv@rem+3,w
  3014  04C8  042F               	iorwf	___fldiv@rem+2,w
  3015  04C9  042E               	iorwf	___fldiv@rem+1,w
  3016  04CA  042D               	iorwf	___fldiv@rem,w
  3017  04CB  1903               	skipnz
  3018  04CC  2CCE               	goto	u1261
  3019  04CD  2CCF               	goto	u1260
  3020  04CE                     u1261:
  3021  04CE  2CEE               	goto	l1608
  3022  04CF                     u1260:
  3023  04CF                     l1596:
  3024  04CF  1434               	bsf	___fldiv@grs,0
  3025  04D0  2CEE               	goto	l1608
  3026  04D1                     l1598:
  3027  04D1  3001               	movlw	1
  3028  04D2  00A8               	movwf	??___fldiv
  3029  04D3                     u1275:
  3030  04D3  1003               	clrc
  3031  04D4  0DA4               	rlf	___fldiv@b,f
  3032  04D5  0DA5               	rlf	___fldiv@b+1,f
  3033  04D6  0DA6               	rlf	___fldiv@b+2,f
  3034  04D7  0DA7               	rlf	___fldiv@b+3,f
  3035  04D8  0BA8               	decfsz	??___fldiv,f
  3036  04D9  2CD3               	goto	u1275
  3037  04DA                     l1600:
  3038  04DA  1FB7               	btfss	___fldiv@grs+3,7
  3039  04DB  2CDD               	goto	u1281
  3040  04DC  2CDE               	goto	u1280
  3041  04DD                     u1281:
  3042  04DD  2CDF               	goto	l1604
  3043  04DE                     u1280:
  3044  04DE                     l1602:
  3045  04DE  1424               	bsf	___fldiv@b,0
  3046  04DF                     l1604:
  3047  04DF  3001               	movlw	1
  3048  04E0  00A8               	movwf	??___fldiv
  3049  04E1                     u1295:
  3050  04E1  1003               	clrc
  3051  04E2  0DB4               	rlf	___fldiv@grs,f
  3052  04E3  0DB5               	rlf	___fldiv@grs+1,f
  3053  04E4  0DB6               	rlf	___fldiv@grs+2,f
  3054  04E5  0DB7               	rlf	___fldiv@grs+3,f
  3055  04E6  0BA8               	decfsz	??___fldiv,f
  3056  04E7  2CE1               	goto	u1295
  3057  04E8                     l1606:
  3058  04E8  30FF               	movlw	255
  3059  04E9  07B2               	addwf	___fldiv@new_exp,f
  3060  04EA  1803               	skipnc
  3061  04EB  0AB3               	incf	___fldiv@new_exp+1,f
  3062  04EC  30FF               	movlw	255
  3063  04ED  07B3               	addwf	___fldiv@new_exp+1,f
  3064  04EE                     l1608:
  3065  04EE  1FA6               	btfss	___fldiv@b+2,7
  3066  04EF  2CF1               	goto	u1301
  3067  04F0  2CF2               	goto	u1300
  3068  04F1                     u1301:
  3069  04F1  2CD1               	goto	l1598
  3070  04F2                     u1300:
  3071  04F2                     l1610:
  3072  04F2  01B9               	clrf	___fldiv@aexp
  3073  04F3                     l1612:
  3074  04F3  1FB7               	btfss	___fldiv@grs+3,7
  3075  04F4  2CF6               	goto	u1311
  3076  04F5  2CF7               	goto	u1310
  3077  04F6                     u1311:
  3078  04F6  2D13               	goto	l1620
  3079  04F7                     u1310:
  3080  04F7                     l1614:
  3081  04F7  30FF               	movlw	255
  3082  04F8  0534               	andwf	___fldiv@grs,w
  3083  04F9  00A8               	movwf	??___fldiv
  3084  04FA  30FF               	movlw	255
  3085  04FB  0535               	andwf	___fldiv@grs+1,w
  3086  04FC  00A9               	movwf	??___fldiv+1
  3087  04FD  30FF               	movlw	255
  3088  04FE  0536               	andwf	___fldiv@grs+2,w
  3089  04FF  00AA               	movwf	??___fldiv+2
  3090  0500  307F               	movlw	127
  3091  0501  0537               	andwf	___fldiv@grs+3,w
  3092  0502  00AB               	movwf	??___fldiv+3
  3093  0503  082B               	movf	??___fldiv+3,w
  3094  0504  042A               	iorwf	??___fldiv+2,w
  3095  0505  0429               	iorwf	??___fldiv+1,w
  3096  0506  0428               	iorwf	??___fldiv,w
  3097  0507  1903               	skipnz
  3098  0508  2D0A               	goto	u1321
  3099  0509  2D0B               	goto	u1320
  3100  050A                     u1321:
  3101  050A  2D0E               	goto	l667
  3102  050B                     u1320:
  3103  050B                     l1616:
  3104  050B  01B9               	clrf	___fldiv@aexp
  3105  050C  0AB9               	incf	___fldiv@aexp,f
  3106  050D  2D13               	goto	l1620
  3107  050E                     l667:
  3108  050E  1C24               	btfss	___fldiv@b,0
  3109  050F  2D11               	goto	u1331
  3110  0510  2D12               	goto	u1330
  3111  0511                     u1331:
  3112  0511  2D13               	goto	l1620
  3113  0512                     u1330:
  3114  0512  2D0B               	goto	l1616
  3115  0513                     l1620:
  3116  0513  0839               	movf	___fldiv@aexp,w
  3117  0514  1903               	btfsc	3,2
  3118  0515  2D17               	goto	u1341
  3119  0516  2D18               	goto	u1340
  3120  0517                     u1341:
  3121  0517  2D49               	goto	l1630
  3122  0518                     u1340:
  3123  0518                     l1622:
  3124  0518  3001               	movlw	1
  3125  0519  07A4               	addwf	___fldiv@b,f
  3126  051A  3000               	movlw	0
  3127  051B  1803               	skipnc
  3128  051C  3001               	movlw	1
  3129  051D  07A5               	addwf	___fldiv@b+1,f
  3130  051E  3000               	movlw	0
  3131  051F  1803               	skipnc
  3132  0520  3001               	movlw	1
  3133  0521  07A6               	addwf	___fldiv@b+2,f
  3134  0522  3000               	movlw	0
  3135  0523  1803               	skipnc
  3136  0524  3001               	movlw	1
  3137  0525  07A7               	addwf	___fldiv@b+3,f
  3138  0526                     l1624:
  3139  0526  1C27               	btfss	___fldiv@b+3,0
  3140  0527  2D29               	goto	u1351
  3141  0528  2D2A               	goto	u1350
  3142  0529                     u1351:
  3143  0529  2D49               	goto	l1630
  3144  052A                     u1350:
  3145  052A                     l1626:
  3146  052A  0824               	movf	___fldiv@b,w
  3147  052B  00A8               	movwf	??___fldiv
  3148  052C  0825               	movf	___fldiv@b+1,w
  3149  052D  00A9               	movwf	??___fldiv+1
  3150  052E  0826               	movf	___fldiv@b+2,w
  3151  052F  00AA               	movwf	??___fldiv+2
  3152  0530  0827               	movf	___fldiv@b+3,w
  3153  0531  00AB               	movwf	??___fldiv+3
  3154  0532  3001               	movlw	1
  3155  0533  00AC               	movwf	??___fldiv+4
  3156  0534                     u1365:
  3157  0534  0D2B               	rlf	??___fldiv+3,w
  3158  0535  0CAB               	rrf	??___fldiv+3,f
  3159  0536  0CAA               	rrf	??___fldiv+2,f
  3160  0537  0CA9               	rrf	??___fldiv+1,f
  3161  0538  0CA8               	rrf	??___fldiv,f
  3162  0539                     u1360:
  3163  0539  0BAC               	decfsz	??___fldiv+4,f
  3164  053A  2D34               	goto	u1365
  3165  053B  082B               	movf	??___fldiv+3,w
  3166  053C  00A7               	movwf	___fldiv@b+3
  3167  053D  082A               	movf	??___fldiv+2,w
  3168  053E  00A6               	movwf	___fldiv@b+2
  3169  053F  0829               	movf	??___fldiv+1,w
  3170  0540  00A5               	movwf	___fldiv@b+1
  3171  0541  0828               	movf	??___fldiv,w
  3172  0542  00A4               	movwf	___fldiv@b
  3173  0543                     l1628:
  3174  0543  3001               	movlw	1
  3175  0544  07B2               	addwf	___fldiv@new_exp,f
  3176  0545  1803               	skipnc
  3177  0546  0AB3               	incf	___fldiv@new_exp+1,f
  3178  0547  3000               	movlw	0
  3179  0548  07B3               	addwf	___fldiv@new_exp+1,f
  3180  0549                     l1630:
  3181  0549  0833               	movf	___fldiv@new_exp+1,w
  3182  054A  3A80               	xorlw	128
  3183  054B  00FF               	movwf	btemp+1
  3184  054C  3080               	movlw	128
  3185  054D  027F               	subwf	btemp+1,w
  3186  054E  1D03               	skipz
  3187  054F  2D52               	goto	u1375
  3188  0550  30FF               	movlw	255
  3189  0551  0232               	subwf	___fldiv@new_exp,w
  3190  0552                     u1375:
  3191  0552  1C03               	skipc
  3192  0553  2D55               	goto	u1371
  3193  0554  2D56               	goto	u1370
  3194  0555                     u1371:
  3195  0555  2D64               	goto	l1634
  3196  0556                     u1370:
  3197  0556                     l1632:
  3198  0556  30FF               	movlw	255
  3199  0557  1283               	bcf	3,5	;RP0=0, select bank0
  3200  0558  1303               	bcf	3,6	;RP1=0, select bank0
  3201  0559  00B2               	movwf	___fldiv@new_exp
  3202  055A  3000               	movlw	0
  3203  055B  00B3               	movwf	___fldiv@new_exp+1
  3204  055C  3000               	movlw	0
  3205  055D  00A7               	movwf	___fldiv@b+3
  3206  055E  3000               	movlw	0
  3207  055F  00A6               	movwf	___fldiv@b+2
  3208  0560  3000               	movlw	0
  3209  0561  00A5               	movwf	___fldiv@b+1
  3210  0562  3000               	movlw	0
  3211  0563  00A4               	movwf	___fldiv@b
  3212  0564                     l1634:
  3213  0564  1283               	bcf	3,5	;RP0=0, select bank0
  3214  0565  1303               	bcf	3,6	;RP1=0, select bank0
  3215  0566  0833               	movf	___fldiv@new_exp+1,w
  3216  0567  3A80               	xorlw	128
  3217  0568  00FF               	movwf	btemp+1
  3218  0569  3080               	movlw	128
  3219  056A  027F               	subwf	btemp+1,w
  3220  056B  1D03               	skipz
  3221  056C  2D6F               	goto	u1385
  3222  056D  3001               	movlw	1
  3223  056E  0232               	subwf	___fldiv@new_exp,w
  3224  056F                     u1385:
  3225  056F  1803               	skipnc
  3226  0570  2D72               	goto	u1381
  3227  0571  2D73               	goto	u1380
  3228  0572                     u1381:
  3229  0572  2D80               	goto	l673
  3230  0573                     u1380:
  3231  0573                     l1636:
  3232  0573  1283               	bcf	3,5	;RP0=0, select bank0
  3233  0574  1303               	bcf	3,6	;RP1=0, select bank0
  3234  0575  01B2               	clrf	___fldiv@new_exp
  3235  0576  01B3               	clrf	___fldiv@new_exp+1
  3236  0577                     l1638:
  3237  0577  3000               	movlw	0
  3238  0578  00A7               	movwf	___fldiv@b+3
  3239  0579  3000               	movlw	0
  3240  057A  00A6               	movwf	___fldiv@b+2
  3241  057B  3000               	movlw	0
  3242  057C  00A5               	movwf	___fldiv@b+1
  3243  057D  3000               	movlw	0
  3244  057E  00A4               	movwf	___fldiv@b
  3245  057F                     l1640:
  3246  057F  01B1               	clrf	___fldiv@sign
  3247  0580                     l673:
  3248  0580  1283               	bcf	3,5	;RP0=0, select bank0
  3249  0581  1303               	bcf	3,6	;RP1=0, select bank0
  3250  0582  0832               	movf	___fldiv@new_exp,w
  3251  0583  00A8               	movwf	??___fldiv
  3252  0584  0828               	movf	??___fldiv,w
  3253  0585  00B8               	movwf	___fldiv@bexp
  3254  0586                     l1642:
  3255  0586  1C38               	btfss	___fldiv@bexp,0
  3256  0587  2D89               	goto	u1391
  3257  0588  2D8A               	goto	u1390
  3258  0589                     u1391:
  3259  0589  2D8C               	goto	l1646
  3260  058A                     u1390:
  3261  058A                     l1644:
  3262  058A  17A6               	bsf	___fldiv@b+2,7
  3263  058B  2D90               	goto	l675
  3264  058C                     l1646:
  3265  058C  307F               	movlw	127
  3266  058D  00A8               	movwf	??___fldiv
  3267  058E  0828               	movf	??___fldiv,w
  3268  058F  05A6               	andwf	___fldiv@b+2,f
  3269  0590                     l675:
  3270  0590  0838               	movf	___fldiv@bexp,w
  3271  0591  00A8               	movwf	??___fldiv
  3272  0592  1003               	clrc
  3273  0593  0C28               	rrf	??___fldiv,w
  3274  0594  00A9               	movwf	??___fldiv+1
  3275  0595  0829               	movf	??___fldiv+1,w
  3276  0596  00A7               	movwf	___fldiv@b+3
  3277  0597  0831               	movf	___fldiv@sign,w
  3278  0598  00A8               	movwf	??___fldiv
  3279  0599  0828               	movf	??___fldiv,w
  3280  059A  04A7               	iorwf	___fldiv@b+3,f
  3281  059B  2C34               	goto	l1554
  3282  059C                     l653:
  3283  059C  0008               	return
  3284  059D                     __end_of___fldiv:
  3285                           
  3286                           	psect	text9
  3287  0264                     __ptext9:	
  3288 ;; *************** function ___flge *****************
  3289 ;; Defined at:
  3290 ;;		line 4 in file "C:\Program Files\Microchip\xc8\v2.36\pic\sources\c90\common\flge.c"
  3291 ;; Parameters:    Size  Location     Type
  3292 ;;  ff1             4    0[COMMON] unsigned char 
  3293 ;;  ff2             4    4[COMMON] unsigned char 
  3294 ;; Auto vars:     Size  Location     Type
  3295 ;;		None
  3296 ;; Return value:  Size  Location     Type
  3297 ;;		None               void
  3298 ;; Registers used:
  3299 ;;		wreg, status,2, status,0
  3300 ;; Tracked objects:
  3301 ;;		On entry : 0/0
  3302 ;;		On exit  : 0/0
  3303 ;;		Unchanged: 0/0
  3304 ;; Data sizes:     COMMON   BANK0   BANK1   BANK3   BANK2
  3305 ;;      Params:         8       0       0       0       0
  3306 ;;      Locals:         0       0       0       0       0
  3307 ;;      Temps:          4       0       0       0       0
  3308 ;;      Totals:        12       0       0       0       0
  3309 ;;Total ram usage:       12 bytes
  3310 ;; Hardware stack levels used: 1
  3311 ;; This function calls:
  3312 ;;		Nothing
  3313 ;; This function is called by:
  3314 ;;		_main
  3315 ;; This function uses a non-reentrant model
  3316 ;;
  3317                           
  3318  0264                     ___flge:	
  3319                           ;psect for function ___flge
  3320                           
  3321  0264                     l1806:	
  3322                           ;incstack = 0
  3323                           ; Regs used in ___flge: [wreg+status,2+status,0]
  3324                           
  3325  0264  3000               	movlw	0
  3326  0265  0570               	andwf	___flge@ff1,w
  3327  0266  00F8               	movwf	??___flge
  3328  0267  3000               	movlw	0
  3329  0268  0571               	andwf	___flge@ff1+1,w
  3330  0269  00F9               	movwf	??___flge+1
  3331  026A  3080               	movlw	128
  3332  026B  0572               	andwf	___flge@ff1+2,w
  3333  026C  00FA               	movwf	??___flge+2
  3334  026D  307F               	movlw	127
  3335  026E  0573               	andwf	___flge@ff1+3,w
  3336  026F  00FB               	movwf	??___flge+3
  3337  0270  087B               	movf	??___flge+3,w
  3338  0271  047A               	iorwf	??___flge+2,w
  3339  0272  0479               	iorwf	??___flge+1,w
  3340  0273  0478               	iorwf	??___flge,w
  3341  0274  1D03               	skipz
  3342  0275  2A77               	goto	u1661
  3343  0276  2A78               	goto	u1660
  3344  0277                     u1661:
  3345  0277  2A80               	goto	l476
  3346  0278                     u1660:
  3347  0278                     l1808:
  3348  0278  3000               	movlw	0
  3349  0279  00F3               	movwf	___flge@ff1+3
  3350  027A  3000               	movlw	0
  3351  027B  00F2               	movwf	___flge@ff1+2
  3352  027C  3000               	movlw	0
  3353  027D  00F1               	movwf	___flge@ff1+1
  3354  027E  3000               	movlw	0
  3355  027F  00F0               	movwf	___flge@ff1
  3356  0280                     l476:
  3357  0280  3000               	movlw	0
  3358  0281  0574               	andwf	___flge@ff2,w
  3359  0282  00F8               	movwf	??___flge
  3360  0283  3000               	movlw	0
  3361  0284  0575               	andwf	___flge@ff2+1,w
  3362  0285  00F9               	movwf	??___flge+1
  3363  0286  3080               	movlw	128
  3364  0287  0576               	andwf	___flge@ff2+2,w
  3365  0288  00FA               	movwf	??___flge+2
  3366  0289  307F               	movlw	127
  3367  028A  0577               	andwf	___flge@ff2+3,w
  3368  028B  00FB               	movwf	??___flge+3
  3369  028C  087B               	movf	??___flge+3,w
  3370  028D  047A               	iorwf	??___flge+2,w
  3371  028E  0479               	iorwf	??___flge+1,w
  3372  028F  0478               	iorwf	??___flge,w
  3373  0290  1D03               	skipz
  3374  0291  2A93               	goto	u1671
  3375  0292  2A94               	goto	u1670
  3376  0293                     u1671:
  3377  0293  2A9C               	goto	l1812
  3378  0294                     u1670:
  3379  0294                     l1810:
  3380  0294  3000               	movlw	0
  3381  0295  00F7               	movwf	___flge@ff2+3
  3382  0296  3000               	movlw	0
  3383  0297  00F6               	movwf	___flge@ff2+2
  3384  0298  3000               	movlw	0
  3385  0299  00F5               	movwf	___flge@ff2+1
  3386  029A  3000               	movlw	0
  3387  029B  00F4               	movwf	___flge@ff2
  3388  029C                     l1812:
  3389  029C  1FF3               	btfss	___flge@ff1+3,7
  3390  029D  2A9F               	goto	u1681
  3391  029E  2AA0               	goto	u1680
  3392  029F                     u1681:
  3393  029F  2AC4               	goto	l1816
  3394  02A0                     u1680:
  3395  02A0                     l1814:
  3396  02A0  3000               	movlw	0
  3397  02A1  00F8               	movwf	??___flge
  3398  02A2  3000               	movlw	0
  3399  02A3  00F9               	movwf	??___flge+1
  3400  02A4  3000               	movlw	0
  3401  02A5  00FA               	movwf	??___flge+2
  3402  02A6  3080               	movlw	128
  3403  02A7  00FB               	movwf	??___flge+3
  3404  02A8  0870               	movf	___flge@ff1,w
  3405  02A9  02F8               	subwf	??___flge,f
  3406  02AA  0871               	movf	___flge@ff1+1,w
  3407  02AB  1C03               	skipc
  3408  02AC  0F71               	incfsz	___flge@ff1+1,w
  3409  02AD  2AAF               	goto	u1691
  3410  02AE  2AB0               	goto	u1692
  3411  02AF                     u1691:
  3412  02AF  02F9               	subwf	??___flge+1,f
  3413  02B0                     u1692:
  3414  02B0  0872               	movf	___flge@ff1+2,w
  3415  02B1  1C03               	skipc
  3416  02B2  0F72               	incfsz	___flge@ff1+2,w
  3417  02B3  2AB5               	goto	u1693
  3418  02B4  2AB6               	goto	u1694
  3419  02B5                     u1693:
  3420  02B5  02FA               	subwf	??___flge+2,f
  3421  02B6                     u1694:
  3422  02B6  0873               	movf	___flge@ff1+3,w
  3423  02B7  1C03               	skipc
  3424  02B8  0F73               	incfsz	___flge@ff1+3,w
  3425  02B9  2ABB               	goto	u1695
  3426  02BA  2ABC               	goto	u1696
  3427  02BB                     u1695:
  3428  02BB  02FB               	subwf	??___flge+3,f
  3429  02BC                     u1696:
  3430  02BC  087B               	movf	??___flge+3,w
  3431  02BD  00F3               	movwf	___flge@ff1+3
  3432  02BE  087A               	movf	??___flge+2,w
  3433  02BF  00F2               	movwf	___flge@ff1+2
  3434  02C0  0879               	movf	??___flge+1,w
  3435  02C1  00F1               	movwf	___flge@ff1+1
  3436  02C2  0878               	movf	??___flge,w
  3437  02C3  00F0               	movwf	___flge@ff1
  3438  02C4                     l1816:
  3439  02C4  1FF7               	btfss	___flge@ff2+3,7
  3440  02C5  2AC7               	goto	u1701
  3441  02C6  2AC8               	goto	u1700
  3442  02C7                     u1701:
  3443  02C7  2AEC               	goto	l479
  3444  02C8                     u1700:
  3445  02C8                     l1818:
  3446  02C8  3000               	movlw	0
  3447  02C9  00F8               	movwf	??___flge
  3448  02CA  3000               	movlw	0
  3449  02CB  00F9               	movwf	??___flge+1
  3450  02CC  3000               	movlw	0
  3451  02CD  00FA               	movwf	??___flge+2
  3452  02CE  3080               	movlw	128
  3453  02CF  00FB               	movwf	??___flge+3
  3454  02D0  0874               	movf	___flge@ff2,w
  3455  02D1  02F8               	subwf	??___flge,f
  3456  02D2  0875               	movf	___flge@ff2+1,w
  3457  02D3  1C03               	skipc
  3458  02D4  0F75               	incfsz	___flge@ff2+1,w
  3459  02D5  2AD7               	goto	u1711
  3460  02D6  2AD8               	goto	u1712
  3461  02D7                     u1711:
  3462  02D7  02F9               	subwf	??___flge+1,f
  3463  02D8                     u1712:
  3464  02D8  0876               	movf	___flge@ff2+2,w
  3465  02D9  1C03               	skipc
  3466  02DA  0F76               	incfsz	___flge@ff2+2,w
  3467  02DB  2ADD               	goto	u1713
  3468  02DC  2ADE               	goto	u1714
  3469  02DD                     u1713:
  3470  02DD  02FA               	subwf	??___flge+2,f
  3471  02DE                     u1714:
  3472  02DE  0877               	movf	___flge@ff2+3,w
  3473  02DF  1C03               	skipc
  3474  02E0  0F77               	incfsz	___flge@ff2+3,w
  3475  02E1  2AE3               	goto	u1715
  3476  02E2  2AE4               	goto	u1716
  3477  02E3                     u1715:
  3478  02E3  02FB               	subwf	??___flge+3,f
  3479  02E4                     u1716:
  3480  02E4  087B               	movf	??___flge+3,w
  3481  02E5  00F7               	movwf	___flge@ff2+3
  3482  02E6  087A               	movf	??___flge+2,w
  3483  02E7  00F6               	movwf	___flge@ff2+2
  3484  02E8  0879               	movf	??___flge+1,w
  3485  02E9  00F5               	movwf	___flge@ff2+1
  3486  02EA  0878               	movf	??___flge,w
  3487  02EB  00F4               	movwf	___flge@ff2
  3488  02EC                     l479:
  3489  02EC  3080               	movlw	128
  3490  02ED  06F3               	xorwf	___flge@ff1+3,f
  3491  02EE  3080               	movlw	128
  3492  02EF  06F7               	xorwf	___flge@ff2+3,f
  3493  02F0  0877               	movf	___flge@ff2+3,w
  3494  02F1  0273               	subwf	___flge@ff1+3,w
  3495  02F2  1D03               	skipz
  3496  02F3  2AFE               	goto	u1725
  3497  02F4  0876               	movf	___flge@ff2+2,w
  3498  02F5  0272               	subwf	___flge@ff1+2,w
  3499  02F6  1D03               	skipz
  3500  02F7  2AFE               	goto	u1725
  3501  02F8  0875               	movf	___flge@ff2+1,w
  3502  02F9  0271               	subwf	___flge@ff1+1,w
  3503  02FA  1D03               	skipz
  3504  02FB  2AFE               	goto	u1725
  3505  02FC  0874               	movf	___flge@ff2,w
  3506  02FD  0270               	subwf	___flge@ff1,w
  3507  02FE                     u1725:
  3508  02FE  1803               	skipnc
  3509  02FF  2B01               	goto	u1721
  3510  0300  2B02               	goto	u1720
  3511  0301                     u1721:
  3512  0301  2B04               	goto	l1822
  3513  0302                     u1720:
  3514  0302                     l1820:
  3515  0302  1003               	clrc
  3516  0303  2B05               	goto	l480
  3517  0304                     l1822:
  3518  0304  1403               	setc
  3519  0305                     l480:
  3520  0305  0008               	return
  3521  0306                     __end_of___flge:
  3522                           
  3523                           	psect	text10
  3524  0021                     __ptext10:	
  3525 ;; *************** function _LCD_string *****************
  3526 ;; Defined at:
  3527 ;;		line 46 in file "./LCD.h"
  3528 ;; Parameters:    Size  Location     Type
  3529 ;;  str             2    3[COMMON] PTR unsigned char 
  3530 ;;		 -> RAM(512), STR_4(2), STR_3(2), STR_2(2), 
  3531 ;;		 -> STR_1(15), 
  3532 ;; Auto vars:     Size  Location     Type
  3533 ;;  i               2    5[COMMON] int 
  3534 ;; Return value:  Size  Location     Type
  3535 ;;                  1    wreg      void 
  3536 ;; Registers used:
  3537 ;;		wreg, fsr0l, fsr0h, status,2, status,0, btemp+1, pclath, cstack
  3538 ;; Tracked objects:
  3539 ;;		On entry : 0/0
  3540 ;;		On exit  : 0/0
  3541 ;;		Unchanged: 0/0
  3542 ;; Data sizes:     COMMON   BANK0   BANK1   BANK3   BANK2
  3543 ;;      Params:         2       0       0       0       0
  3544 ;;      Locals:         2       0       0       0       0
  3545 ;;      Temps:          0       0       0       0       0
  3546 ;;      Totals:         4       0       0       0       0
  3547 ;;Total ram usage:        4 bytes
  3548 ;; Hardware stack levels used: 1
  3549 ;; Hardware stack levels required when called: 1
  3550 ;; This function calls:
  3551 ;;		_LCD_Data
  3552 ;; This function is called by:
  3553 ;;		_main
  3554 ;; This function uses a non-reentrant model
  3555 ;;
  3556                           
  3557  0021                     _LCD_string:	
  3558                           ;psect for function _LCD_string
  3559                           
  3560  0021                     l1758:	
  3561                           ;incstack = 0
  3562                           ; Regs used in _LCD_string: [wreg-fsr0h+status,2+status,0+btemp+1+pclath+cstack]
  3563                           
  3564                           
  3565                           ;./LCD.h: 46: void LCD_string (unsigned char *str);./LCD.h: 47: {;./LCD.h: 48: int i;;./
      +                          LCD.h: 49: for(i=0;str[i]!='\0';i++)
  3566  0021  01F5               	clrf	LCD_string@i
  3567  0022  01F6               	clrf	LCD_string@i+1
  3568  0023  283C               	goto	l1764
  3569  0024                     l1760:
  3570                           
  3571                           ;./LCD.h: 50:   LCD_Data(str[i]);
  3572  0024  0875               	movf	LCD_string@i,w
  3573  0025  0773               	addwf	LCD_string@str,w
  3574  0026  0084               	movwf	4
  3575  0027  0876               	movf	LCD_string@i+1,w
  3576  0028  1803               	skipnc
  3577  0029  0A76               	incf	LCD_string@i+1,w
  3578  002A  0774               	addwf	LCD_string@str+1,w
  3579  002B  00FF               	movwf	btemp+1
  3580  002C  120A  158A  2000  120A  118A  	fcall	stringtab
  3581  0031  120A  158A  27EC  120A  118A  	fcall	_LCD_Data
  3582  0036                     l1762:
  3583  0036  3001               	movlw	1
  3584  0037  07F5               	addwf	LCD_string@i,f
  3585  0038  1803               	skipnc
  3586  0039  0AF6               	incf	LCD_string@i+1,f
  3587  003A  3000               	movlw	0
  3588  003B  07F6               	addwf	LCD_string@i+1,f
  3589  003C                     l1764:
  3590  003C  0875               	movf	LCD_string@i,w
  3591  003D  0773               	addwf	LCD_string@str,w
  3592  003E  0084               	movwf	4
  3593  003F  0876               	movf	LCD_string@i+1,w
  3594  0040  1803               	skipnc
  3595  0041  0A76               	incf	LCD_string@i+1,w
  3596  0042  0774               	addwf	LCD_string@str+1,w
  3597  0043  1283               	bcf	3,5	;RP0=0, select bank0
  3598  0044  1303               	bcf	3,6	;RP1=0, select bank0
  3599  0045  00FF               	movwf	btemp+1
  3600  0046  120A  158A  2000  120A  118A  	fcall	stringtab
  3601  004B  3A00               	xorlw	0
  3602  004C  1D03               	skipz
  3603  004D  284F               	goto	u1601
  3604  004E  2850               	goto	u1600
  3605  004F                     u1601:
  3606  004F  2824               	goto	l1760
  3607  0050                     u1600:
  3608  0050                     l156:
  3609  0050  0008               	return
  3610  0051                     __end_of_LCD_string:
  3611                           
  3612                           	psect	text11
  3613  0FEC                     __ptext11:	
  3614 ;; *************** function _LCD_Data *****************
  3615 ;; Defined at:
  3616 ;;		line 16 in file "./LCD.h"
  3617 ;; Parameters:    Size  Location     Type
  3618 ;;  data            1    wreg     unsigned char 
  3619 ;; Auto vars:     Size  Location     Type
  3620 ;;  data            1    2[COMMON] unsigned char 
  3621 ;; Return value:  Size  Location     Type
  3622 ;;                  1    wreg      void 
  3623 ;; Registers used:
  3624 ;;		wreg
  3625 ;; Tracked objects:
  3626 ;;		On entry : 0/0
  3627 ;;		On exit  : 0/0
  3628 ;;		Unchanged: 0/0
  3629 ;; Data sizes:     COMMON   BANK0   BANK1   BANK3   BANK2
  3630 ;;      Params:         0       0       0       0       0
  3631 ;;      Locals:         1       0       0       0       0
  3632 ;;      Temps:          2       0       0       0       0
  3633 ;;      Totals:         3       0       0       0       0
  3634 ;;Total ram usage:        3 bytes
  3635 ;; Hardware stack levels used: 1
  3636 ;; This function calls:
  3637 ;;		Nothing
  3638 ;; This function is called by:
  3639 ;;		_LCD_string
  3640 ;; This function uses a non-reentrant model
  3641 ;;
  3642                           
  3643  0FEC                     _LCD_Data:	
  3644                           ;psect for function _LCD_Data
  3645                           
  3646                           
  3647                           ;incstack = 0
  3648                           ; Regs used in _LCD_Data: [wreg]
  3649                           ;LCD_Data@data stored from wreg
  3650  0FEC  00F2               	movwf	LCD_Data@data
  3651  0FED                     l1408:
  3652                           
  3653                           ;./LCD.h: 16: void LCD_Data(unsigned char data);./LCD.h: 17: {;./LCD.h: 18: PORTB = data
      +                          ;
  3654  0FED  0872               	movf	LCD_Data@data,w
  3655  0FEE  1283               	bcf	3,5	;RP0=0, select bank0
  3656  0FEF  1303               	bcf	3,6	;RP1=0, select bank0
  3657  0FF0  0086               	movwf	6	;volatile
  3658  0FF1                     l1410:
  3659                           
  3660                           ;./LCD.h: 19: RC2 = 1 ;
  3661  0FF1  1507               	bsf	7,2	;volatile
  3662  0FF2                     l1412:
  3663                           
  3664                           ;./LCD.h: 20: RC3 = 0 ;
  3665  0FF2  1187               	bcf	7,3	;volatile
  3666  0FF3                     l1414:
  3667                           
  3668                           ;./LCD.h: 21: RD0 = 1;
  3669  0FF3  1408               	bsf	8,0	;volatile
  3670                           
  3671                           ;./LCD.h: 22: _delay((unsigned long)((5)*(4000000/4000.0)));
  3672  0FF4  3007               	movlw	7
  3673  0FF5  00F1               	movwf	??_LCD_Data+1
  3674  0FF6  307D               	movlw	125
  3675  0FF7  00F0               	movwf	??_LCD_Data
  3676  0FF8                     u1897:
  3677  0FF8  0BF0               	decfsz	??_LCD_Data,f
  3678  0FF9  2FF8               	goto	u1897
  3679  0FFA  0BF1               	decfsz	??_LCD_Data+1,f
  3680  0FFB  2FF8               	goto	u1897
  3681  0FFC                     l1416:
  3682                           
  3683                           ;./LCD.h: 23: RD0 = 0;
  3684  0FFC  1283               	bcf	3,5	;RP0=0, select bank0
  3685  0FFD  1303               	bcf	3,6	;RP1=0, select bank0
  3686  0FFE  1008               	bcf	8,0	;volatile
  3687  0FFF                     l144:
  3688  0FFF  0008               	return
  3689  1000                     __end_of_LCD_Data:
  3690                           
  3691                           	psect	text12
  3692  0008                     __ptext12:	
  3693 ;; *************** function _LCD_init *****************
  3694 ;; Defined at:
  3695 ;;		line 37 in file "./LCD.h"
  3696 ;; Parameters:    Size  Location     Type
  3697 ;;		None
  3698 ;; Auto vars:     Size  Location     Type
  3699 ;;		None
  3700 ;; Return value:  Size  Location     Type
  3701 ;;                  1    wreg      void 
  3702 ;; Registers used:
  3703 ;;		wreg, status,2, status,0, pclath, cstack
  3704 ;; Tracked objects:
  3705 ;;		On entry : 0/0
  3706 ;;		On exit  : 0/0
  3707 ;;		Unchanged: 0/0
  3708 ;; Data sizes:     COMMON   BANK0   BANK1   BANK3   BANK2
  3709 ;;      Params:         0       0       0       0       0
  3710 ;;      Locals:         0       0       0       0       0
  3711 ;;      Temps:          0       0       0       0       0
  3712 ;;      Totals:         0       0       0       0       0
  3713 ;;Total ram usage:        0 bytes
  3714 ;; Hardware stack levels used: 1
  3715 ;; Hardware stack levels required when called: 1
  3716 ;; This function calls:
  3717 ;;		_LCD_Command
  3718 ;; This function is called by:
  3719 ;;		_main
  3720 ;; This function uses a non-reentrant model
  3721 ;;
  3722                           
  3723  0008                     _LCD_init:	
  3724                           ;psect for function _LCD_init
  3725                           
  3726  0008                     l1756:	
  3727                           ;incstack = 0
  3728                           ; Regs used in _LCD_init: [wreg+status,2+status,0+pclath+cstack]
  3729                           
  3730                           
  3731                           ;./LCD.h: 39: LCD_Command(0x38);
  3732  0008  3038               	movlw	56
  3733  0009  120A  158A  27D8  120A  118A  	fcall	_LCD_Command
  3734                           
  3735                           ;./LCD.h: 40: LCD_Command(0x06);
  3736  000E  3006               	movlw	6
  3737  000F  120A  158A  27D8  120A  118A  	fcall	_LCD_Command
  3738                           
  3739                           ;./LCD.h: 41: LCD_Command(0x0C);
  3740  0014  300C               	movlw	12
  3741  0015  120A  158A  27D8  120A  118A  	fcall	_LCD_Command
  3742                           
  3743                           ;./LCD.h: 42: LCD_Command(0x01);
  3744  001A  3001               	movlw	1
  3745  001B  120A  158A  27D8  120A  118A  	fcall	_LCD_Command
  3746  0020                     l150:
  3747  0020  0008               	return
  3748  0021                     __end_of_LCD_init:
  3749                           
  3750                           	psect	text13
  3751  0FAD                     __ptext13:	
  3752 ;; *************** function _LCD_Clear *****************
  3753 ;; Defined at:
  3754 ;;		line 79 in file "./LCD.h"
  3755 ;; Parameters:    Size  Location     Type
  3756 ;;		None
  3757 ;; Auto vars:     Size  Location     Type
  3758 ;;		None
  3759 ;; Return value:  Size  Location     Type
  3760 ;;                  1    wreg      void 
  3761 ;; Registers used:
  3762 ;;		wreg, status,2, status,0, pclath, cstack
  3763 ;; Tracked objects:
  3764 ;;		On entry : 0/0
  3765 ;;		On exit  : 0/0
  3766 ;;		Unchanged: 0/0
  3767 ;; Data sizes:     COMMON   BANK0   BANK1   BANK3   BANK2
  3768 ;;      Params:         0       0       0       0       0
  3769 ;;      Locals:         0       0       0       0       0
  3770 ;;      Temps:          0       0       0       0       0
  3771 ;;      Totals:         0       0       0       0       0
  3772 ;;Total ram usage:        0 bytes
  3773 ;; Hardware stack levels used: 1
  3774 ;; Hardware stack levels required when called: 1
  3775 ;; This function calls:
  3776 ;;		_LCD_Command
  3777 ;; This function is called by:
  3778 ;;		_main
  3779 ;; This function uses a non-reentrant model
  3780 ;;
  3781                           
  3782  0FAD                     _LCD_Clear:	
  3783                           ;psect for function _LCD_Clear
  3784                           
  3785  0FAD                     l1786:	
  3786                           ;incstack = 0
  3787                           ; Regs used in _LCD_Clear: [wreg+status,2+status,0+pclath+cstack]
  3788                           
  3789                           
  3790                           ;./LCD.h: 81: LCD_Command(0x01);
  3791  0FAD  3001               	movlw	1
  3792  0FAE  120A  158A  27D8  120A  158A  	fcall	_LCD_Command
  3793  0FB3                     l168:
  3794  0FB3  0008               	return
  3795  0FB4                     __end_of_LCD_Clear:
  3796                           
  3797                           	psect	text14
  3798  0FD8                     __ptext14:	
  3799 ;; *************** function _LCD_Command *****************
  3800 ;; Defined at:
  3801 ;;		line 27 in file "./LCD.h"
  3802 ;; Parameters:    Size  Location     Type
  3803 ;;  cmd             1    wreg     unsigned char 
  3804 ;; Auto vars:     Size  Location     Type
  3805 ;;  cmd             1    2[COMMON] unsigned char 
  3806 ;; Return value:  Size  Location     Type
  3807 ;;                  1    wreg      void 
  3808 ;; Registers used:
  3809 ;;		wreg
  3810 ;; Tracked objects:
  3811 ;;		On entry : 0/0
  3812 ;;		On exit  : 0/0
  3813 ;;		Unchanged: 0/0
  3814 ;; Data sizes:     COMMON   BANK0   BANK1   BANK3   BANK2
  3815 ;;      Params:         0       0       0       0       0
  3816 ;;      Locals:         1       0       0       0       0
  3817 ;;      Temps:          2       0       0       0       0
  3818 ;;      Totals:         3       0       0       0       0
  3819 ;;Total ram usage:        3 bytes
  3820 ;; Hardware stack levels used: 1
  3821 ;; This function calls:
  3822 ;;		Nothing
  3823 ;; This function is called by:
  3824 ;;		_LCD_init
  3825 ;;		_LCD_Clear
  3826 ;;		_main
  3827 ;; This function uses a non-reentrant model
  3828 ;;
  3829                           
  3830  0FD8                     _LCD_Command:	
  3831                           ;psect for function _LCD_Command
  3832                           
  3833                           
  3834                           ;incstack = 0
  3835                           ; Regs used in _LCD_Command: [wreg]
  3836                           ;LCD_Command@cmd stored from wreg
  3837  0FD8  00F2               	movwf	LCD_Command@cmd
  3838  0FD9                     l1418:
  3839                           
  3840                           ;./LCD.h: 27: void LCD_Command(unsigned char cmd);./LCD.h: 28: {;./LCD.h: 29: PORTB = cm
      +                          d;
  3841  0FD9  0872               	movf	LCD_Command@cmd,w
  3842  0FDA  1283               	bcf	3,5	;RP0=0, select bank0
  3843  0FDB  1303               	bcf	3,6	;RP1=0, select bank0
  3844  0FDC  0086               	movwf	6	;volatile
  3845  0FDD                     l1420:
  3846                           
  3847                           ;./LCD.h: 30: RC2 = 0 ;
  3848  0FDD  1107               	bcf	7,2	;volatile
  3849  0FDE                     l1422:
  3850                           
  3851                           ;./LCD.h: 31: RC3 = 0;
  3852  0FDE  1187               	bcf	7,3	;volatile
  3853  0FDF                     l1424:
  3854                           
  3855                           ;./LCD.h: 32: RD0 = 1 ;
  3856  0FDF  1408               	bsf	8,0	;volatile
  3857                           
  3858                           ;./LCD.h: 33: _delay((unsigned long)((5)*(4000000/4000.0)));
  3859  0FE0  3007               	movlw	7
  3860  0FE1  00F1               	movwf	??_LCD_Command+1
  3861  0FE2  307D               	movlw	125
  3862  0FE3  00F0               	movwf	??_LCD_Command
  3863  0FE4                     u1907:
  3864  0FE4  0BF0               	decfsz	??_LCD_Command,f
  3865  0FE5  2FE4               	goto	u1907
  3866  0FE6  0BF1               	decfsz	??_LCD_Command+1,f
  3867  0FE7  2FE4               	goto	u1907
  3868  0FE8                     l1426:
  3869                           
  3870                           ;./LCD.h: 34: RD0 = 0;
  3871  0FE8  1283               	bcf	3,5	;RP0=0, select bank0
  3872  0FE9  1303               	bcf	3,6	;RP1=0, select bank0
  3873  0FEA  1008               	bcf	8,0	;volatile
  3874  0FEB                     l147:
  3875  0FEB  0008               	return
  3876  0FEC                     __end_of_LCD_Command:
  3877                           
  3878                           	psect	text15
  3879  0FC4                     __ptext15:	
  3880 ;; *************** function _Initialize_Bluetooth *****************
  3881 ;; Defined at:
  3882 ;;		line 4 in file "./BT.h"
  3883 ;; Parameters:    Size  Location     Type
  3884 ;;		None
  3885 ;; Auto vars:     Size  Location     Type
  3886 ;;		None
  3887 ;; Return value:  Size  Location     Type
  3888 ;;                  1    wreg      void 
  3889 ;; Registers used:
  3890 ;;		wreg
  3891 ;; Tracked objects:
  3892 ;;		On entry : 0/0
  3893 ;;		On exit  : 0/0
  3894 ;;		Unchanged: 0/0
  3895 ;; Data sizes:     COMMON   BANK0   BANK1   BANK3   BANK2
  3896 ;;      Params:         0       0       0       0       0
  3897 ;;      Locals:         0       0       0       0       0
  3898 ;;      Temps:          0       0       0       0       0
  3899 ;;      Totals:         0       0       0       0       0
  3900 ;;Total ram usage:        0 bytes
  3901 ;; Hardware stack levels used: 1
  3902 ;; This function calls:
  3903 ;;		Nothing
  3904 ;; This function is called by:
  3905 ;;		_main
  3906 ;; This function uses a non-reentrant model
  3907 ;;
  3908                           
  3909  0FC4                     _Initialize_Bluetooth:	
  3910                           ;psect for function _Initialize_Bluetooth
  3911                           
  3912  0FC4                     l1788:	
  3913                           ;incstack = 0
  3914                           ; Regs used in _Initialize_Bluetooth: [wreg]
  3915                           
  3916                           
  3917                           ;./BT.h: 6:     TRISC6=1;
  3918  0FC4  1683               	bsf	3,5	;RP0=1, select bank1
  3919  0FC5  1303               	bcf	3,6	;RP1=0, select bank1
  3920  0FC6  1707               	bsf	7,6	;volatile
  3921                           
  3922                           ;./BT.h: 7:     TRISC7=1;
  3923  0FC7  1787               	bsf	7,7	;volatile
  3924                           
  3925                           ;./BT.h: 9:     BRGH=1;
  3926  0FC8  1518               	bsf	24,2	;volatile
  3927  0FC9                     l1790:
  3928                           
  3929                           ;./BT.h: 10:     SPBRG=25;
  3930  0FC9  3019               	movlw	25
  3931  0FCA  0099               	movwf	25	;volatile
  3932  0FCB                     l1792:
  3933                           
  3934                           ;./BT.h: 12:     SYNC=0;
  3935  0FCB  1218               	bcf	24,4	;volatile
  3936  0FCC                     l1794:
  3937                           
  3938                           ;./BT.h: 13:     SPEN=1;
  3939  0FCC  1283               	bcf	3,5	;RP0=0, select bank0
  3940  0FCD  1303               	bcf	3,6	;RP1=0, select bank0
  3941  0FCE  1798               	bsf	24,7	;volatile
  3942  0FCF                     l1796:
  3943                           
  3944                           ;./BT.h: 15:     RX9=0;
  3945  0FCF  1318               	bcf	24,6	;volatile
  3946  0FD0                     l1798:
  3947                           
  3948                           ;./BT.h: 16:     TX9=0;
  3949  0FD0  1683               	bsf	3,5	;RP0=1, select bank1
  3950  0FD1  1303               	bcf	3,6	;RP1=0, select bank1
  3951  0FD2  1318               	bcf	24,6	;volatile
  3952  0FD3                     l1800:
  3953                           
  3954                           ;./BT.h: 18:     TXEN=1;
  3955  0FD3  1698               	bsf	24,5	;volatile
  3956  0FD4                     l1802:
  3957                           
  3958                           ;./BT.h: 19:     CREN=1;
  3959  0FD4  1283               	bcf	3,5	;RP0=0, select bank0
  3960  0FD5  1303               	bcf	3,6	;RP1=0, select bank0
  3961  0FD6  1618               	bsf	24,4	;volatile
  3962  0FD7                     l171:
  3963  0FD7  0008               	return
  3964  0FD8                     __end_of_Initialize_Bluetooth:
  3965                           
  3966                           	psect	text16
  3967  0FB4                     __ptext16:	
  3968 ;; *************** function _BT_load_char *****************
  3969 ;; Defined at:
  3970 ;;		line 24 in file "./BT.h"
  3971 ;; Parameters:    Size  Location     Type
  3972 ;;  byte            1    wreg     unsigned char 
  3973 ;; Auto vars:     Size  Location     Type
  3974 ;;  byte            1    0[COMMON] unsigned char 
  3975 ;; Return value:  Size  Location     Type
  3976 ;;                  1    wreg      void 
  3977 ;; Registers used:
  3978 ;;		wreg
  3979 ;; Tracked objects:
  3980 ;;		On entry : 0/0
  3981 ;;		On exit  : 0/0
  3982 ;;		Unchanged: 0/0
  3983 ;; Data sizes:     COMMON   BANK0   BANK1   BANK3   BANK2
  3984 ;;      Params:         0       0       0       0       0
  3985 ;;      Locals:         1       0       0       0       0
  3986 ;;      Temps:          0       0       0       0       0
  3987 ;;      Totals:         1       0       0       0       0
  3988 ;;Total ram usage:        1 bytes
  3989 ;; Hardware stack levels used: 1
  3990 ;; This function calls:
  3991 ;;		Nothing
  3992 ;; This function is called by:
  3993 ;;		_main
  3994 ;;		_BT_load_string
  3995 ;; This function uses a non-reentrant model
  3996 ;;
  3997                           
  3998  0FB4                     _BT_load_char:	
  3999                           ;psect for function _BT_load_char
  4000                           
  4001                           
  4002                           ;incstack = 0
  4003                           ; Regs used in _BT_load_char: [wreg]
  4004                           ;BT_load_char@byte stored from wreg
  4005  0FB4  00F0               	movwf	BT_load_char@byte
  4006  0FB5                     l1804:
  4007                           
  4008                           ;./BT.h: 25:     TXREG = byte;
  4009  0FB5  0870               	movf	BT_load_char@byte,w
  4010  0FB6  1283               	bcf	3,5	;RP0=0, select bank0
  4011  0FB7  1303               	bcf	3,6	;RP1=0, select bank0
  4012  0FB8  0099               	movwf	25	;volatile
  4013  0FB9                     l174:	
  4014                           ;./BT.h: 26:     while(!TXIF);
  4015                           
  4016  0FB9  1E0C               	btfss	12,4	;volatile
  4017  0FBA  2FBC               	goto	u1641
  4018  0FBB  2FBD               	goto	u1640
  4019  0FBC                     u1641:
  4020  0FBC  2FB9               	goto	l174
  4021  0FBD                     u1640:
  4022  0FBD                     l177:
  4023  0FBD  1683               	bsf	3,5	;RP0=1, select bank1
  4024  0FBE  1303               	bcf	3,6	;RP1=0, select bank1
  4025  0FBF  1C98               	btfss	24,1	;volatile
  4026  0FC0  2FC2               	goto	u1651
  4027  0FC1  2FC3               	goto	u1650
  4028  0FC2                     u1651:
  4029  0FC2  2FBD               	goto	l177
  4030  0FC3                     u1650:
  4031  0FC3                     l180:
  4032  0FC3  0008               	return
  4033  0FC4                     __end_of_BT_load_char:
  4034  007E                     btemp	set	126	;btemp
  4035  007E                     wtemp0	set	126
  4036                           
  4037                           	psect	idloc
  4038                           
  4039                           ;Config register IDLOC0 @ 0x2000
  4040                           ;	unspecified, using default values
  4041  2000                     	org	8192
  4042  2000  3FFF               	dw	16383
  4043                           
  4044                           ;Config register IDLOC1 @ 0x2001
  4045                           ;	unspecified, using default values
  4046  2001                     	org	8193
  4047  2001  3FFF               	dw	16383
  4048                           
  4049                           ;Config register IDLOC2 @ 0x2002
  4050                           ;	unspecified, using default values
  4051  2002                     	org	8194
  4052  2002  3FFF               	dw	16383
  4053                           
  4054                           ;Config register IDLOC3 @ 0x2003
  4055                           ;	unspecified, using default values
  4056  2003                     	org	8195
  4057  2003  3FFF               	dw	16383
  4058                           
  4059                           	psect	config
  4060                           
  4061                           ;Config register CONFIG @ 0x2007
  4062                           ;	Oscillator Selection bits
  4063                           ;	FOSC = HS, HS oscillator
  4064                           ;	Watchdog Timer Enable bit
  4065                           ;	WDTE = OFF, WDT disabled
  4066                           ;	Power-up Timer Enable bit
  4067                           ;	PWRTE = OFF, PWRT disabled
  4068                           ;	Brown-out Reset Enable bit
  4069                           ;	BOREN = OFF, BOR disabled
  4070                           ;	Low-Voltage (Single-Supply) In-Circuit Serial Programming Enable bit
  4071                           ;	LVP = OFF, RB3 is digital I/O, HV on MCLR must be used for programming
  4072                           ;	Data EEPROM Memory Code Protection bit
  4073                           ;	CPD = OFF, Data EEPROM code protection off
  4074                           ;	Flash Program Memory Write Enable bits
  4075                           ;	WRT = OFF, Write protection off; all program memory may be written to by EECON control
  4076                           ;	In-Circuit Debugger Mode bit
  4077                           ;	DEBUG = 0x1, unprogrammed default
  4078                           ;	Flash Program Memory Code Protection bit
  4079                           ;	CP = OFF, Code protection off
  4080  2007                     	org	8199
  4081  2007  3F3A               	dw	16186

Data Sizes:
    Strings     17
    Constant    0
    Data        4
    BSS         12
    Persistent  0
    Stack       0

Auto Spaces:
    Space          Size  Autos    Used
    COMMON           14     14      14
    BANK0            80     59      75
    BANK1            80      0       0
    BANK3            96      0       0
    BANK2            96      0       0

Pointer List with Targets:

    sp__itoa	PTR unsigned char  size(1) Largest target is 12
		 -> itoa@buffer(BANK0[12]), 

    LCD_string@str	PTR unsigned char  size(2) Largest target is 512
		 -> RAM(DATA[512]), STR_4(CODE[2]), STR_3(CODE[2]), STR_2(CODE[2]), 
		 -> STR_1(CODE[15]), 


Critical Paths under _main in COMMON

    _itoa->___awdiv
    _dist3->___xxtofl
    _dist2->___xxtofl
    _dist1->___xxtofl
    ___fldiv->___xxtofl
    _LCD_string->_LCD_Data
    _LCD_init->_LCD_Command
    _LCD_Clear->_LCD_Command

Critical Paths under _main in BANK0

    _main->_dist1
    _main->_dist2
    _main->_dist3
    _dist3->___fldiv
    _dist2->___fldiv
    _dist1->___fldiv

Critical Paths under _main in BANK1

    None.

Critical Paths under _main in BANK3

    None.

Critical Paths under _main in BANK2

    None.

Call Graph Tables:

 ---------------------------------------------------------------------------------
 (Depth) Function   	        Calls       Base Space   Used Autos Params    Refs
 ---------------------------------------------------------------------------------
 (0) _main                                                24    24      0   11285
                                             35 BANK0     24    24      0
                       _BT_load_char
               _Initialize_Bluetooth
                          _LCD_Clear
                        _LCD_Command
                           _LCD_init
                         _LCD_string
                             ___flge
                              _dist1
                              _dist2
                              _dist3
                               _itoa
 ---------------------------------------------------------------------------------
 (1) _itoa                                                 7     5      2    1374
                                              9 COMMON     3     1      2
                                              0 BANK0      4     4      0
                            ___awdiv
                            ___awmod
 ---------------------------------------------------------------------------------
 (2) ___awmod                                              7     3      4     448
                                              0 COMMON     7     3      4
 ---------------------------------------------------------------------------------
 (2) ___awdiv                                              9     5      4     452
                                              0 COMMON     9     5      4
 ---------------------------------------------------------------------------------
 (1) _dist3                                                9     5      4    2559
                                             26 BANK0      9     5      4
                            ___fldiv
                           ___xxtofl
 ---------------------------------------------------------------------------------
 (1) _dist2                                                9     5      4    2559
                                             26 BANK0      9     5      4
                            ___fldiv
                           ___xxtofl
 ---------------------------------------------------------------------------------
 (1) _dist1                                                9     5      4    2559
                                             26 BANK0      9     5      4
                            ___fldiv
                           ___xxtofl
 ---------------------------------------------------------------------------------
 (2) ___xxtofl                                            14    10      4     958
                                              0 COMMON    14    10      4
 ---------------------------------------------------------------------------------
 (2) ___fldiv                                             26    18      8    1577
                                              0 BANK0     26    18      8
                           ___xxtofl (ARG)
 ---------------------------------------------------------------------------------
 (1) ___flge                                              12     4      8    1094
                                              0 COMMON    12     4      8
 ---------------------------------------------------------------------------------
 (1) _LCD_string                                           4     2      2     644
                                              3 COMMON     4     2      2
                           _LCD_Data
 ---------------------------------------------------------------------------------
 (2) _LCD_Data                                             3     3      0      22
                                              0 COMMON     3     3      0
 ---------------------------------------------------------------------------------
 (1) _LCD_init                                             0     0      0      22
                        _LCD_Command
 ---------------------------------------------------------------------------------
 (1) _LCD_Clear                                            0     0      0      22
                        _LCD_Command
 ---------------------------------------------------------------------------------
 (2) _LCD_Command                                          3     3      0      22
                                              0 COMMON     3     3      0
 ---------------------------------------------------------------------------------
 (1) _Initialize_Bluetooth                                 0     0      0       0
 ---------------------------------------------------------------------------------
 (1) _BT_load_char                                         1     1      0      22
                                              0 COMMON     1     1      0
 ---------------------------------------------------------------------------------
 Estimated maximum stack depth 2
 ---------------------------------------------------------------------------------

 Call Graph Graphs:

 _main (ROOT)
   _BT_load_char
   _Initialize_Bluetooth
   _LCD_Clear
     _LCD_Command
   _LCD_Command
   _LCD_init
     _LCD_Command
   _LCD_string
     _LCD_Data
   ___flge
   _dist1
     ___fldiv
       ___xxtofl (ARG)
     ___xxtofl
   _dist2
     ___fldiv
     ___xxtofl
   _dist3
     ___fldiv
     ___xxtofl
   _itoa
     ___awdiv
     ___awmod

 Address spaces:
Name               Size   Autos  Total    Cost      Usage
BANK3               60      0       0       9        0.0%
BITBANK3            60      0       0       8        0.0%
SFR3                 0      0       0       4        0.0%
BITSFR3              0      0       0       4        0.0%
BANK2               60      0       0      11        0.0%
BITBANK2            60      0       0      10        0.0%
SFR2                 0      0       0       5        0.0%
BITSFR2              0      0       0       5        0.0%
BANK1               50      0       0       7        0.0%
BITBANK1            50      0       0       6        0.0%
SFR1                 0      0       0       2        0.0%
BITSFR1              0      0       0       2        0.0%
BANK0               50     3B      4B       5       93.8%
BITBANK0            50      0       0       4        0.0%
SFR0                 0      0       0       1        0.0%
BITSFR0              0      0       0       1        0.0%
COMMON               E      E       E       1      100.0%
BITCOMMON            E      0       0       0        0.0%
CODE                 0      0       0       0        0.0%
DATA                 0      0      59      12        0.0%
ABS                  0      0      59       3        0.0%
NULL                 0      0       0       0        0.0%
STACK                0      0       0       2        0.0%
EEDATA             100      0       0       0        0.0%


Microchip Technology PIC Macro Assembler V2.36 build 20220127204148 
Symbol Table                                                                                   Wed Dec 07 18:59:53 2022

                ___fldiv@aexp 0039                  ___fldiv@bexp 0038                             pc 0002  
                ___fldiv@sign 0031                  ?_LCD_Command 0070                  ___awdiv@sign 0076  
                          fsr 0004                           l120 0065                           l122 0069  
                         l123 00A1                           l131 00BA                           l132 00F2  
                         l140 010B                           l117 0060                           l141 0143  
                         l150 0020                           l126 00B1                           l119 0064  
                         l135 0102                           l144 0FFF                           l128 00B5  
                         l129 00B6                           l137 0106                           l209 07D4  
                         l138 0107                           l171 0FD7                           l147 0FEB  
                         l163 01E6                           l180 0FC3                           l156 0050  
                         l165 01FC                           l174 0FB9                           l168 0FB3  
                         l177 0FBD                           l455 0263                           l480 0305  
                         l651 041C                           l476 0280                           l468 019C  
                         l653 059C                           l741 036D                           l479 02EC  
                         l735 0328                           l673 0580                           l737 03BF  
                         l675 0590                           l667 050E                           l748 0389  
                         l749 0395                           _RC2 003A                           _RD0 0040  
                         _RC3 003B                           _RD1 0041                           _RC4 003C  
                         _RD2 0042                           _RC5 003D                           _RD3 0043  
                         _RD4 0044                           _RD5 0045                           _RD6 0046  
                         _RD7 0047                           u920 0202                           u921 0201  
                         u930 020D                           u931 020C                           u940 021E  
                         u941 021D                           u960 0230                           u961 022F  
                         _RX9 00C6                           u955 0222                           u980 0241  
                         u981 0240                           u975 0231                           u985 023D  
                         _TX9 04C6                           u995 0249                           fsr0 0004  
                         indf 0000                  ___awmod@sign 0076                   ?_LCD_string 0073  
                        l1410 0FF1                          l1420 0FDD                          l1412 0FF2  
                        l1500 0188                          l1422 0FDE                          l1414 0FF3  
                        l1510 03C0                          l1430 01FE                          l1502 018E  
                        l1424 0FDF                          l1416 0FFC                          l1408 0FED  
                        l1600 04DA                          l1520 03D7                          l1512 03C7  
                        l1440 0212                          l1432 0202                          l1504 0193  
                        l1426 0FE8                          l1418 0FD9                          l1610 04F2  
                        l1602 04DE                          l1530 03EF                          l1522 03DC  
                        l1514 03CD                          l1450 0228                          l1442 0216  
                        l1434 0207                          l1506 0198                          l1620 0513  
                        l1612 04F3                          l1604 04DF                          l1540 0404  
                        l1532 03F4                          l1524 03E4                          l1516 03D1  
                        l1700 0055                          l1460 0248                          l1452 022C  
                        l1444 0218                          l1436 0209                          l1428 01FD  
                        l1622 0518                          l1630 0549                          l1614 04F7  
                        l1606 04E8                          l1550 0424                          l1542 0409  
                        l1534 03FA                          l1526 03E5                          l1518 03D2  
                        l1710 0098                          l1702 0056                          l1462 024F  
                        l1454 0230                          l1446 021E                          l1438 020D  
                        l1800 0FD3                          l1640 057F                          l1632 0556  
                        l1624 0526                          l1616 050B                          l1608 04EE  
                        l1560 0442                          l1552 0430                          l1544 0411  
                        l1536 03FE                          l1528 03E7                          l1712 0099  
                        l1704 005D                          l1720 00A6                          l1456 0241  
                        l1448 0221                          l1464 0255                          l1480 0150  
                        l1472 0144                          l1802 0FD4                          l1810 0294  
                        l1642 0586                          l1634 0564                          l1626 052A  
                        l1570 046D                          l1554 0434                          l1546 0412  
                        l1538 03FF                          l1706 006A                          l1730 00E9  
                        l1722 00A7                          l1466 025A                          l1458 0247  
                        l1490 0169                          l1482 0154                          l1474 0145  
                        l1804 0FB5                          l1820 0302                          l1812 029C  
                        l1644 058A                          l1636 0573                          l1628 0543  
                        l1580 0492                          l1572 0475                          l1564 044B  
                        l1548 0414                          l1660 0330                          l1652 0307  
                        l1708 0097                          l1732 00EA                          l1724 00AE  
                        l1716 00A2                          l1740 00F7                          l1468 025F  
                        l1492 016D                          l1484 0159                          l1476 0149  
                        l1900 05F7                          l1822 0304                          l1814 02A0  
                        l1806 0264                          l1646 058C                          l1638 0577  
                        l1590 04BD                          l1582 0493                          l1574 0477  
                        l1566 045D                          l1558 043D                          l1670 0352  
                        l1654 030C                          l1726 00BB                          l1718 00A2  
                        l1750 013A                          l1742 00F8                          l1494 0171  
                        l1486 015F                          l1478 014E                          l1910 0620  
                        l1902 0600                          l1760 0024                          l1816 02C4  
                        l1808 0278                          l1576 047C                          l1584 049C  
                        l1592 04C1                          l1568 0465                          l1680 0383  
                        l1672 0356                          l1664 0339                          l1656 0310  
                        l1728 00E8                          l1752 013B                          l1744 00FF  
                        l1736 00F3                          l1496 017B                          l1488 0162  
                        l1920 0655                          l1912 0621                          l1904 0606  
                        l1840 05A2                          l1762 0036                          l1818 02C8  
                        l1594 04C7                          l1586 04AE                          l1578 048E  
                        l1690 03B6                          l1682 038D                          l1674 0364  
                        l1666 033E                          l1658 0320                          l1746 010C  
                        l1738 00F3                          l1498 0181                          l1770 01A8  
                        l1930 06A9                          l1922 0663                          l1914 0622  
                        l1906 060F                          l1850 05A7                          l1842 05A3  
                        l1834 059D                          l1756 0008                          l1764 003C  
                        l1596 04CF                          l1588 04AF                          l1692 03B7  
                        l1684 0397                          l1676 0374                          l1668 034B  
                        l1748 0139                          l1780 01EC                          l1772 01AC  
                        l1940 06DD                          l1932 06B3                          l1924 067E  
                        l1916 062D                          l1908 061D                          l1860 05AC  
                        l1852 05A8                          l1844 05A4                          l1836 05A0  
                        l1790 0FC9                          l1758 0021                          l1598 04D1  
                        l1686 03AD                          l1678 037F                          l1782 01FA  
                        l1774 01B1                          l1766 019D                          l1950 0731  
                        l1934 06C1                          l1942 06EB                          l1926 0681  
                        l1918 063C                          l1870 05B5                          l1862 05AF  
                        l1854 05A9                          l1846 05A5                          l1838 05A1  
                        l1792 0FCB                          l1688 03B2                          l1696 0051  
                        l1776 01CF                          l1768 01A7                          l1960 0766  
                        l1952 073B                          l1944 0706                          l1936 06C7  
                        l1928 0690                          l1880 05BA                          l1872 05B6  
                        l1864 05B0                          l1856 05AA                          l1848 05A6  
                        l1794 0FCC                          l1786 0FAD                          l1698 0051  
                        l1778 01E0                          l1970 07A8                          l1954 0749  
                        l1962 0774                          l1946 0709                          l1938 06D5  
                        l1890 05D3                          l1882 05BB                          l1874 05B7  
                        l1866 05B1                          l1858 05AB                          l1796 0FCF  
                        l1788 0FC4                          l1972 07AE                          l1964 078F  
                        l1956 074F                          l1948 0718                          l1892 05D9  
                        l1884 05C4                          l1876 05B8                          l1868 05B4  
                        l1798 0FD0                          l1974 07BC                          l1966 0792  
                        l1958 075D                          l1894 05E2                          l1886 05C9  
                        l1878 05B9                          l1976 07C5                          l1968 079A  
                        l1896 05E8                          l1888 05CE                          l1898 05F1  
                        STR_1 0810                          STR_2 081F                          STR_3 081F  
                        STR_4 081F                          _BRGH 04C2                          u1000 0255  
                        _CREN 00C4                          u1001 0254                          u1010 025A  
                        u1011 0259                          u1100 0193                          u1020 0149  
                        u1101 0192                          u1021 0148                          u1110 03D1  
                        u1030 0154                          u1111 03D0                          u1031 0153  
                        u1120 03D7                          u1040 015F                          u1121 03D6  
                        u1041 015E                          u1130 03DC                          u1131 03DB  
                        u1300 04F2                          u1220 0492                          u1140 03FE  
                        u1060 0171                          u1301 04F1                          u1221 0491  
                        u1205 047E                          u1141 03FD                          u1061 0170  
                        u1310 04F7                          u1150 0404                          u1070 017B  
                        u1311 04F6                          u1215 0487                          u1151 0403  
                        u1071 017A                          u1055 0163                          u1320 050B  
                        u1240 04AE                          u1160 0409                          u1400 030C  
                        u1321 050A                          u1241 04AD                          u1161 0408  
                        u1401 030B                          u1330 0512                          u1250 04C7  
                        u1170 0424                          u1410 0310                          u1090 018E  
                        u1331 0511                          u1251 04C6                          u1235 0495  
                        u1171 0423                          u1411 030F                          u1091 018D  
                        u1075 0177                          u1340 0518                          u1260 04CF  
                        u1180 0442                          u1500 038D                          u1420 0330  
                        u1341 0517                          u1261 04CE                          u1245 04AA  
                        u1181 0441                          u1501 038C                          u1421 032F  
                        u1085 0182                          u1350 052A                          u1190 047C  
                        u1510 03A2                          u1351 0529                          u1191 047B  
                        u1600 0050                          u1360 0539                          u1280 04DE  
                        u1520 03B2                          u1440 0351                          u1601 004F  
                        u1281 04DD                          u1521 03B1                          u1441 0350  
                        u1370 0556                          u1530 03B6                          u1610 01AC  
                        u1371 0555                          u1275 04D3                          u1531 03B5  
                        u1515 039D                          u1435 0343                          u1611 01AB  
                        u1700 02C8                          u1380 0573                          u1460 0373  
                        u1540 0064                          u1620 01E6                          u1701 02C7  
                        u1381 0572                          u1365 0534                          u1461 0372  
                        u1541 0063                          u1621 01E5                          u1390 058A  
                        u1550 0069                          u1630 01EC                          u1711 02D7  
                        u1391 0589                          u1375 0552                          u1295 04E1  
                        u1455 0365                          u1551 0068                          u1631 01EB  
                        u1640 0FBD                          u1720 0302                          u1712 02D8  
                        u1480 0383                          u1560 00B5                          u1641 0FBC  
                        u1721 0301                          u1713 02DD                          u1385 056F  
                        u1481 0382                          u1561 00B4                          u1650 0FC3  
                        u1714 02DE                          u1490 0389                          u1570 00BA  
                        u1651 0FC2                          u1715 02E3                          u1491 0388  
                        u1475 0378                          u1571 00B9                          u1716 02E4  
                        u1660 0278                          u1580 0106                          u1740 0655  
                        u1725 02FE                          u1661 0277                          u1581 0105  
                        u1741 0654                          u1670 0294                          u1590 010B  
                        u1750 067E                          u1671 0293                          u1591 010A  
                        u1751 067D                          u1807 0617                          u1680 02A0  
                        u1760 06A9                          u1681 029F                          u1761 06A8  
                        u1817 0628                          u1770 0706                          u1907 0FE4  
                        u1691 02AF                          u1771 0705                          u1827 065D  
                        u1692 02B0                          u1780 0731                          u1693 02B5  
                        u1781 0730                          u1837 06E5                          u1694 02B6  
                        u1790 078F                          u1695 02BB                          u1791 078E  
                        u1847 076E                          u1696 02BC                          u1857 07CD  
                        u1867 00FC                          u1877 00AB                          u1887 005A  
                        u1897 0FF8                          _RCIF 0065                          _OERR 00C1  
                        _TMR1 000E                          _SPEN 00C7                          _TRMT 04C1  
                        _TXEN 04C5                          _TXIF 0064                          _SYNC 04C4  
                        _main 059D                          _itoa 019D                          btemp 007E  
                        start 0000               ___fldiv@new_exp 0032              __end_of_LCD_Data 1000  
                LCD_Data@data 0072              __end_of_LCD_init 0021                         ?_main 0070  
             __end_of___fldiv 059D                         ?_itoa 0079               __end_of___awdiv 0264  
             __end_of___awmod 019D               ___awdiv@divisor 0070               ___awdiv@counter 0075  
                       _RCREG 001A                         _SPBRG 0099                         _PORTB 0006  
                       _TRISB 0086                         _TXREG 0019                         _dist1 0051  
                       _dist2 00A2                         _dist3 00F3                         itoa@c 0022  
                       pclath 000A                         status 0003                         wtemp0 007E  
             __initialization 07D8                  __end_of_main 07D8                  __end_of_itoa 01FD  
                      ??_main 0043                        ??_itoa 007B             __end_of_LCD_Clear 0FB4  
                 LCD_string@i 0075                 main@distance1 0049                 main@distance2 004D  
               main@distance3 0051                        ?_dist1 003A                        ?_dist2 003A  
                      ?_dist3 003A              ___awdiv@dividend 0072                        _TMR1CS 0081  
                      _TMR1ON 0080                        _TRISA0 0428                        _TRISA1 0429  
                      _TRISA2 042A                        _TRISA3 042B                        _TRISA4 042C  
                      _TRISA5 042D                        _TRISC2 043A                        _TRISD0 0440  
                      _TRISC3 043B                        _TRISD1 0441                        _TRISD2 0442  
                      _TRISC4 043C                        _TRISE0 0448                        _TRISD3 0443  
                      _TRISC5 043D                        _TRISE1 0449                        _TRISC6 043E  
                      _TRISD4 0444                        _TRISE2 044A                        _TRISC7 043F  
                      _TRISD5 0445                        _TRISD6 0446                        _TRISD7 0447  
            __end_of___xxtofl 03C0                        ___flge 0264                     ??___fldiv 0028  
                   ??___awdiv 0074                     ??___awmod 0074              ___awdiv@quotient 0077  
             ___awmod@divisor 0070               ___awmod@counter 0075                        main@c1 0048  
                      main@c2 0047                        main@c3 0046                    ___flge@ff1 0070  
                  ___flge@ff2 0074                  ___xxtofl@arg 007A                  ___xxtofl@exp 0079  
                ___xxtofl@val 0070                     ?_LCD_Data 0070       __end_of__initialization 07FC  
                   ?_LCD_init 0070                __pcstackCOMMON 0070                dist1@distance1 003F  
                __pidataBANK0 0004                 __end_of_dist1 00A2                 __end_of_dist2 00F3  
               __end_of_dist3 0144                dist2@distance2 003F                  ??_LCD_string 0075  
              dist3@distance3 003F                       ??_dist1 003E                       ??_dist2 003E  
                     ??_dist3 003E                    __pbssBANK0 005B                    ??_LCD_Data 0070  
                  ??_LCD_init 0073                 ?_BT_load_char 0070                    __pmaintext 059D  
                     ?___flge 0070            __end_of_LCD_string 0051                       _T1CKPS0 0084  
                     _T1CKPS1 0085  __end_of_Initialize_Bluetooth 0FD8                     ?___xxtofl 0070  
                  __stringtab 0800                ??_BT_load_char 0070                       ___fldiv 03C0  
                     ___awdiv 01FD                       ___awmod 0144                       __ptext1 019D  
                     __ptext2 0144                       __ptext3 01FD                       __ptext4 00F3  
                     __ptext5 00A2                       __ptext6 0051                       __ptext7 0306  
                     __ptext8 03C0                       __ptext9 0264                       _door_CM 0069  
                  ??___xxtofl 0074              ___awmod@dividend 0072                     _LCD_Clear 0FAD  
        end_of_initialization 07FC                LCD_Command@cmd 0072                  itoa@original 0020  
               ___xxtofl@sign 0078                    ?_LCD_Clear 0070              BT_load_char@byte 0070  
                 ___fldiv@grs 0034                   ___fldiv@rem 002D                    main@count1 0059  
                  main@count2 0057                    main@count3 0055          _Initialize_Bluetooth 0FC4  
               ??_LCD_Command 0070                __end_of___flge 0306          __end_of_BT_load_char 0FC4  
         start_initialization 07D8         ?_Initialize_Bluetooth 0070                      ??___flge 0078  
                 __pdataBANK0 0067                    itoa@buffer 005B                     ___fldiv@a 0020  
                   ___fldiv@b 0024           __end_of_LCD_Command 0FEC                     ___latbits 0002  
               __pcstackBANK0 0020                   ??_LCD_Clear 0073                 LCD_string@str 0073  
                    ?___fldiv 0020                      ?___awdiv 0070                      ?___awmod 0070  
                   __pstrings 0800                      _LCD_Data 0FEC        ??_Initialize_Bluetooth 0070  
                    _LCD_init 0008                   _LCD_Command 0FD8                   __stringbase 080F  
                _BT_load_char 0FB4                     itoa@value 0079            __end_of__stringtab 0810  
                    ___xxtofl 0306                      __ptext10 0021                      __ptext11 0FEC  
                    __ptext12 0008                      __ptext13 0FAD                      __ptext14 0FD8  
                    __ptext15 0FC4                      __ptext16 0FB4                    _LCD_string 0021  
                   stringcode 080A                   _wifiCounter 0067                      stringdir 080A  
                    stringtab 0800  
