

Microchip MPLAB XC8 Assembler V2.36 build 20220127204148 
                                                                                               Sun Nov 06 22:04:42 2022

Microchip MPLAB XC8 C Compiler v2.36 (Free license) build 20220127204148 Og1 
     1                           	processor	16F877A
     2                           	pagewidth 120
     3                           	opt	flic
     4                           	psect	idataBANK0,global,class=CODE,delta=2,noexec
     5                           	psect	strings,global,class=STRING,delta=2,noexec
     6                           	psect	cinit,global,class=CODE,merge=1,delta=2
     7                           	psect	bssBANK0,global,class=BANK0,space=1,delta=1,noexec
     8                           	psect	dataBANK0,global,class=BANK0,space=1,delta=1,noexec
     9                           	psect	cstackCOMMON,global,class=COMMON,space=1,delta=1,noexec
    10                           	psect	cstackBANK0,global,class=BANK0,space=1,delta=1,noexec
    11                           	psect	maintext,global,class=CODE,split=1,delta=2
    12                           	psect	text1,local,class=CODE,merge=1,delta=2
    13                           	psect	text2,local,class=CODE,merge=1,delta=2,group=1
    14                           	psect	text3,local,class=CODE,merge=1,delta=2,group=1
    15                           	psect	text4,local,class=CODE,merge=1,delta=2
    16                           	psect	text5,local,class=CODE,merge=1,delta=2
    17                           	psect	text6,local,class=CODE,merge=1,delta=2
    18                           	psect	text7,local,class=CODE,merge=1,delta=2,group=1
    19                           	psect	text8,local,class=CODE,merge=1,delta=2,group=1
    20                           	psect	text9,local,class=CODE,merge=1,delta=2,group=1
    21                           	psect	text10,local,class=CODE,merge=1,delta=2
    22                           	psect	text11,local,class=CODE,merge=1,delta=2
    23                           	psect	text12,local,class=CODE,merge=1,delta=2
    24                           	psect	text13,local,class=CODE,merge=1,delta=2
    25                           	psect	text14,local,class=CODE,merge=1,delta=2
    26                           	psect	idloc,global,abs,ovrld,class=IDLOC,space=5,delta=2,noexec
    27                           	psect	config,global,abs,ovrld,class=CONFIG,space=4,delta=2,noexec
    28                           	dabs	1,0x7E,2
    29  0000                     
    30                           ; Version 2.40
    31                           ; Generated 17/11/2021 GMT
    32                           ; 
    33                           ; Copyright © 2021, Microchip Technology Inc. and its subsidiaries ("Microchip")
    34                           ; All rights reserved.
    35                           ; 
    36                           ; This software is developed by Microchip Technology Inc. and its subsidiaries ("Microch
      +                          ip").
    37                           ; 
    38                           ; Redistribution and use in source and binary forms, with or without modification, are
    39                           ; permitted provided that the following conditions are met:
    40                           ; 
    41                           ;     1. Redistributions of source code must retain the above copyright notice, this lis
      +                          t of
    42                           ;        conditions and the following disclaimer.
    43                           ; 
    44                           ;     2. Redistributions in binary form must reproduce the above copyright notice, this 
      +                          list
    45                           ;        of conditions and the following disclaimer in the documentation and/or other
    46                           ;        materials provided with the distribution. Publication is not required when
    47                           ;        this file is used in an embedded application.
    48                           ; 
    49                           ;     3. Microchip's name may not be used to endorse or promote products derived from th
      +                          is
    50                           ;        software without specific prior written permission.
    51                           ; 
    52                           ; THIS SOFTWARE IS PROVIDED BY MICROCHIP "AS IS" AND ANY EXPRESS OR IMPLIED WARRANTIES,
    53                           ; INCLUDING, BUT NOT LIMITED TO, THE IMPLIED WARRANTIES OF MERCHANTABILITY AND FITNESS F
      +                          OR
    54                           ; PURPOSE ARE DISCLAIMED.  IN NO EVENT SHALL MICROCHIP BE LIABLE FOR ANY DIRECT, INDIREC
      +                          T,
    55                           ; INCIDENTAL, SPECIAL, EXEMPLARY, OR CONSEQUENTIAL DAMAGES (INCLUDING BUT NOT LIMITED TO
    56                           ; PROCUREMENT OF SUBSTITUTE GOODS OR SERVICES; LOSS OF USE, DATA OR PROFITS; OR BUSINESS
    57                           ; INTERRUPTION) HOWSOEVER CAUSED AND ON ANY THEORY OF LIABILITY, WHETHER IN CONTRACT, ST
      +                          RICT
    58                           ; LIABILITY, OR TORT (INCLUDING NEGLIGENCE OR OTHERWISE) ARISING IN ANY WAY OUT OF THE U
      +                          SE OF
    59                           ; THIS SOFTWARE, EVEN IF ADVISED OF THE POSSIBILITY OF SUCH DAMAGE.
    60                           ; 
    61                           ; 
    62                           ; Code-generator required, PIC16F877A Definitions
    63                           ; 
    64                           ; SFR Addresses
    65  0000                     	;# 
    66  0001                     	;# 
    67  0002                     	;# 
    68  0003                     	;# 
    69  0004                     	;# 
    70  0005                     	;# 
    71  0006                     	;# 
    72  0007                     	;# 
    73  0008                     	;# 
    74  0009                     	;# 
    75  000A                     	;# 
    76  000B                     	;# 
    77  000C                     	;# 
    78  000D                     	;# 
    79  000E                     	;# 
    80  000E                     	;# 
    81  000F                     	;# 
    82  0010                     	;# 
    83  0011                     	;# 
    84  0012                     	;# 
    85  0013                     	;# 
    86  0014                     	;# 
    87  0015                     	;# 
    88  0015                     	;# 
    89  0016                     	;# 
    90  0017                     	;# 
    91  0018                     	;# 
    92  0019                     	;# 
    93  001A                     	;# 
    94  001B                     	;# 
    95  001B                     	;# 
    96  001C                     	;# 
    97  001D                     	;# 
    98  001E                     	;# 
    99  001F                     	;# 
   100  0081                     	;# 
   101  0085                     	;# 
   102  0086                     	;# 
   103  0087                     	;# 
   104  0088                     	;# 
   105  0089                     	;# 
   106  008C                     	;# 
   107  008D                     	;# 
   108  008E                     	;# 
   109  0091                     	;# 
   110  0092                     	;# 
   111  0093                     	;# 
   112  0094                     	;# 
   113  0098                     	;# 
   114  0099                     	;# 
   115  009C                     	;# 
   116  009D                     	;# 
   117  009E                     	;# 
   118  009F                     	;# 
   119  010C                     	;# 
   120  010D                     	;# 
   121  010E                     	;# 
   122  010F                     	;# 
   123  018C                     	;# 
   124  018D                     	;# 
   125  0000                     	;# 
   126  0001                     	;# 
   127  0002                     	;# 
   128  0003                     	;# 
   129  0004                     	;# 
   130  0005                     	;# 
   131  0006                     	;# 
   132  0007                     	;# 
   133  0008                     	;# 
   134  0009                     	;# 
   135  000A                     	;# 
   136  000B                     	;# 
   137  000C                     	;# 
   138  000D                     	;# 
   139  000E                     	;# 
   140  000E                     	;# 
   141  000F                     	;# 
   142  0010                     	;# 
   143  0011                     	;# 
   144  0012                     	;# 
   145  0013                     	;# 
   146  0014                     	;# 
   147  0015                     	;# 
   148  0015                     	;# 
   149  0016                     	;# 
   150  0017                     	;# 
   151  0018                     	;# 
   152  0019                     	;# 
   153  001A                     	;# 
   154  001B                     	;# 
   155  001B                     	;# 
   156  001C                     	;# 
   157  001D                     	;# 
   158  001E                     	;# 
   159  001F                     	;# 
   160  0081                     	;# 
   161  0085                     	;# 
   162  0086                     	;# 
   163  0087                     	;# 
   164  0088                     	;# 
   165  0089                     	;# 
   166  008C                     	;# 
   167  008D                     	;# 
   168  008E                     	;# 
   169  0091                     	;# 
   170  0092                     	;# 
   171  0093                     	;# 
   172  0094                     	;# 
   173  0098                     	;# 
   174  0099                     	;# 
   175  009C                     	;# 
   176  009D                     	;# 
   177  009E                     	;# 
   178  009F                     	;# 
   179  010C                     	;# 
   180  010D                     	;# 
   181  010E                     	;# 
   182  010F                     	;# 
   183  018C                     	;# 
   184  018D                     	;# 
   185                           
   186                           	psect	idataBANK0
   187  0031                     __pidataBANK0:
   188                           
   189                           ;initializer for _door_CM
   190  0031  343C               	retlw	60
   191  0032  3400               	retlw	0
   192  000E                     _TMR1	set	14
   193  0006                     _PORTB	set	6
   194  0043                     _RD3	set	67
   195  0042                     _RD2	set	66
   196  0041                     _RD1	set	65
   197  0081                     _TMR1CS	set	129
   198  0040                     _RD0	set	64
   199  003B                     _RC3	set	59
   200  003A                     _RC2	set	58
   201  003C                     _RC4	set	60
   202  003D                     _RC5	set	61
   203  0044                     _RD4	set	68
   204  0045                     _RD5	set	69
   205  0085                     _T1CKPS1	set	133
   206  0084                     _T1CKPS0	set	132
   207  0080                     _TMR1ON	set	128
   208  0046                     _RD6	set	70
   209  0047                     _RD7	set	71
   210  0086                     _TRISB	set	134
   211  043C                     _TRISC4	set	1084
   212  043D                     _TRISC5	set	1085
   213  0444                     _TRISD4	set	1092
   214  0445                     _TRISD5	set	1093
   215  0446                     _TRISD6	set	1094
   216  0447                     _TRISD7	set	1095
   217  0443                     _TRISD3	set	1091
   218  0442                     _TRISD2	set	1090
   219  0441                     _TRISD1	set	1089
   220  0440                     _TRISD0	set	1088
   221  043B                     _TRISC3	set	1083
   222  043A                     _TRISC2	set	1082
   223                           
   224                           	psect	strings
   225  0003                     __pstrings:
   226  0003                     stringtab:
   227  0003                     __stringtab:
   228                           
   229                           ;	String table - string pointers are 1 byte each
   230  0003  1BFF               	btfsc	btemp+1,7
   231  0004  280D               	ljmp	stringcode
   232  0005  1383               	bcf	3,7
   233  0006  187F               	btfsc	btemp+1,0
   234  0007  1783               	bsf	3,7
   235  0008  0800               	movf	0,w
   236  0009  0A84               	incf	4,f
   237  000A  1903               	skipnz
   238  000B  0AFF               	incf	btemp+1,f
   239  000C  0008               	return
   240  000D                     stringcode:
   241  000D                     stringdir:
   242  000D  3000               	movlw	high stringdir
   243  000E  008A               	movwf	10
   244  000F  0804               	movf	4,w
   245  0010  0A84               	incf	4,f
   246  0011  0782               	addwf	2,f
   247  0012                     __stringbase:
   248  0012  3400               	retlw	0
   249  0013                     __end_of__stringtab:
   250  0013                     STR_2:
   251  0013  3435               	retlw	53	;'5'
   252  0014  342D               	retlw	45	;'-'
   253  0015  3437               	retlw	55	;'7'
   254  0016  3420               	retlw	32	;' '
   255  0017  3437               	retlw	55	;'7'
   256  0018  342D               	retlw	45	;'-'
   257  0019  3439               	retlw	57	;'9'
   258  001A  3420               	retlw	32	;' '
   259  001B  346F               	retlw	111	;'o'
   260  001C  3476               	retlw	118	;'v'
   261  001D  3465               	retlw	101	;'e'
   262  001E  3472               	retlw	114	;'r'
   263  001F  3420               	retlw	32	;' '
   264  0020  3439               	retlw	57	;'9'
   265  0021  3400               	retlw	0
   266  0022                     STR_1:
   267  0022  3462               	retlw	98	;'b'
   268  0023  3465               	retlw	101	;'e'
   269  0024  3466               	retlw	102	;'f'
   270  0025  346F               	retlw	111	;'o'
   271  0026  3472               	retlw	114	;'r'
   272  0027  3465               	retlw	101	;'e'
   273  0028  3420               	retlw	32	;' '
   274  0029  3457               	retlw	87	;'W'
   275  002A  3468               	retlw	104	;'h'
   276  002B  3469               	retlw	105	;'i'
   277  002C  346C               	retlw	108	;'l'
   278  002D  3465               	retlw	101	;'e'
   279  002E  3400               	retlw	0
   280  002F                     STR_3:
   281  002F  3430               	retlw	48	;'0'
   282  0030  3400               	retlw	0
   283  002F                     
   284                           	psect	cinit
   285  07E4                     start_initialization:	
   286                           ; #config settings
   287                           
   288  07E4                     __initialization:
   289                           
   290                           ; Initialize objects allocated to BANK0
   291  07E4  120A  118A  2031  120A  118A  	fcall	__pidataBANK0	;fetch initializer
   292  07E9  00E7               	movwf	__pdataBANK0& (0+127)
   293  07EA  120A  118A  2032  120A  118A  	fcall	__pidataBANK0+1	;fetch initializer
   294  07EF  00E8               	movwf	(__pdataBANK0+1)& (0+127)
   295                           
   296                           ; Clear objects allocated to BANK0
   297  07F0  01DB               	clrf	__pbssBANK0& (0+127)
   298  07F1  01DC               	clrf	(__pbssBANK0+1)& (0+127)
   299  07F2  01DD               	clrf	(__pbssBANK0+2)& (0+127)
   300  07F3  01DE               	clrf	(__pbssBANK0+3)& (0+127)
   301  07F4  01DF               	clrf	(__pbssBANK0+4)& (0+127)
   302  07F5  01E0               	clrf	(__pbssBANK0+5)& (0+127)
   303  07F6  01E1               	clrf	(__pbssBANK0+6)& (0+127)
   304  07F7  01E2               	clrf	(__pbssBANK0+7)& (0+127)
   305  07F8  01E3               	clrf	(__pbssBANK0+8)& (0+127)
   306  07F9  01E4               	clrf	(__pbssBANK0+9)& (0+127)
   307  07FA  01E5               	clrf	(__pbssBANK0+10)& (0+127)
   308  07FB  01E6               	clrf	(__pbssBANK0+11)& (0+127)
   309  07FC                     end_of_initialization:	
   310                           ;End of C runtime variable initialization code
   311                           
   312  07FC                     __end_of__initialization:
   313  07FC  0183               	clrf	3
   314  07FD  120A  118A  2DC8   	ljmp	_main	;jump to C main() function
   315                           
   316                           	psect	bssBANK0
   317  005B                     __pbssBANK0:
   318  005B                     itoa@buffer:
   319  005B                     	ds	12
   320                           
   321                           	psect	dataBANK0
   322  0067                     __pdataBANK0:
   323  0067                     _door_CM:
   324  0067                     	ds	2
   325                           
   326                           	psect	cstackCOMMON
   327  0070                     __pcstackCOMMON:
   328  0070                     ?___flge:
   329  0070                     ?_LCD_Data:	
   330                           ; 1 bit 
   331                           
   332  0070                     ??_LCD_Data:	
   333                           ; 1 bytes @ 0x0
   334                           
   335  0070                     ?_LCD_Command:	
   336                           ; 1 bytes @ 0x0
   337                           
   338  0070                     ??_LCD_Command:	
   339                           ; 1 bytes @ 0x0
   340                           
   341  0070                     ?_LCD_init:	
   342                           ; 1 bytes @ 0x0
   343                           
   344  0070                     ?_LCD_Clear:	
   345                           ; 1 bytes @ 0x0
   346                           
   347  0070                     ?_main:	
   348                           ; 1 bytes @ 0x0
   349                           
   350  0070                     ?___awdiv:	
   351                           ; 1 bytes @ 0x0
   352                           
   353  0070                     ?___awmod:	
   354                           ; 2 bytes @ 0x0
   355                           
   356  0070                     ?___xxtofl:	
   357                           ; 2 bytes @ 0x0
   358                           
   359  0070                     ___awdiv@divisor:	
   360                           ; 4 bytes @ 0x0
   361                           
   362  0070                     ___awmod@divisor:	
   363                           ; 2 bytes @ 0x0
   364                           
   365  0070                     ___flge@ff1:	
   366                           ; 2 bytes @ 0x0
   367                           
   368  0070                     ___xxtofl@val:	
   369                           ; 4 bytes @ 0x0
   370                           
   371                           
   372                           ; 4 bytes @ 0x0
   373  0070                     	ds	2
   374  0072                     LCD_Data@data:
   375  0072                     LCD_Command@cmd:	
   376                           ; 1 bytes @ 0x2
   377                           
   378  0072                     ___awdiv@dividend:	
   379                           ; 1 bytes @ 0x2
   380                           
   381  0072                     ___awmod@dividend:	
   382                           ; 2 bytes @ 0x2
   383                           
   384                           
   385                           ; 2 bytes @ 0x2
   386  0072                     	ds	1
   387  0073                     ??_LCD_init:
   388  0073                     ?_LCD_string:	
   389                           ; 1 bytes @ 0x3
   390                           
   391  0073                     ??_LCD_Clear:	
   392                           ; 1 bytes @ 0x3
   393                           
   394  0073                     LCD_string@str:	
   395                           ; 1 bytes @ 0x3
   396                           
   397                           
   398                           ; 2 bytes @ 0x3
   399  0073                     	ds	1
   400  0074                     ??___awdiv:
   401  0074                     ??___awmod:	
   402                           ; 1 bytes @ 0x4
   403                           
   404  0074                     ??___xxtofl:	
   405                           ; 1 bytes @ 0x4
   406                           
   407  0074                     ___flge@ff2:	
   408                           ; 1 bytes @ 0x4
   409                           
   410                           
   411                           ; 4 bytes @ 0x4
   412  0074                     	ds	1
   413  0075                     ??_LCD_string:
   414  0075                     ___awdiv@counter:	
   415                           ; 1 bytes @ 0x5
   416                           
   417  0075                     ___awmod@counter:	
   418                           ; 1 bytes @ 0x5
   419                           
   420  0075                     LCD_string@i:	
   421                           ; 1 bytes @ 0x5
   422                           
   423                           
   424                           ; 2 bytes @ 0x5
   425  0075                     	ds	1
   426  0076                     ___awdiv@sign:
   427  0076                     ___awmod@sign:	
   428                           ; 1 bytes @ 0x6
   429                           
   430                           
   431                           ; 1 bytes @ 0x6
   432  0076                     	ds	1
   433  0077                     ___awdiv@quotient:
   434                           
   435                           ; 2 bytes @ 0x7
   436  0077                     	ds	1
   437  0078                     ??___flge:
   438  0078                     ___xxtofl@sign:	
   439                           ; 1 bytes @ 0x8
   440                           
   441                           
   442                           ; 1 bytes @ 0x8
   443  0078                     	ds	1
   444  0079                     ?_itoa:
   445  0079                     ___xxtofl@exp:	
   446                           ; 1 bytes @ 0x9
   447                           
   448  0079                     itoa@value:	
   449                           ; 1 bytes @ 0x9
   450                           
   451                           
   452                           ; 2 bytes @ 0x9
   453  0079                     	ds	1
   454  007A                     ___xxtofl@arg:
   455                           
   456                           ; 4 bytes @ 0xA
   457  007A                     	ds	1
   458  007B                     ??_itoa:
   459                           
   460                           ; 1 bytes @ 0xB
   461  007B                     	ds	3
   462                           
   463                           	psect	cstackBANK0
   464  0020                     __pcstackBANK0:
   465  0020                     ?___fldiv:
   466  0020                     itoa@original:	
   467                           ; 4 bytes @ 0x0
   468                           
   469  0020                     ___fldiv@a:	
   470                           ; 2 bytes @ 0x0
   471                           
   472                           
   473                           ; 4 bytes @ 0x0
   474  0020                     	ds	2
   475  0022                     itoa@c:
   476                           
   477                           ; 2 bytes @ 0x2
   478  0022                     	ds	2
   479  0024                     ___fldiv@b:
   480                           
   481                           ; 4 bytes @ 0x4
   482  0024                     	ds	4
   483  0028                     ??___fldiv:
   484                           
   485                           ; 1 bytes @ 0x8
   486  0028                     	ds	5
   487  002D                     ___fldiv@rem:
   488                           
   489                           ; 4 bytes @ 0xD
   490  002D                     	ds	4
   491  0031                     ___fldiv@sign:
   492                           
   493                           ; 1 bytes @ 0x11
   494  0031                     	ds	1
   495  0032                     ___fldiv@new_exp:
   496                           
   497                           ; 2 bytes @ 0x12
   498  0032                     	ds	2
   499  0034                     ___fldiv@grs:
   500                           
   501                           ; 4 bytes @ 0x14
   502  0034                     	ds	4
   503  0038                     ___fldiv@bexp:
   504                           
   505                           ; 1 bytes @ 0x18
   506  0038                     	ds	1
   507  0039                     ___fldiv@aexp:
   508                           
   509                           ; 1 bytes @ 0x19
   510  0039                     	ds	1
   511  003A                     ?_dist1:
   512  003A                     ?_dist2:	
   513                           ; 4 bytes @ 0x1A
   514                           
   515  003A                     ?_dist3:	
   516                           ; 4 bytes @ 0x1A
   517                           
   518                           
   519                           ; 4 bytes @ 0x1A
   520  003A                     	ds	4
   521  003E                     ??_dist1:
   522  003E                     ??_dist2:	
   523                           ; 1 bytes @ 0x1E
   524                           
   525  003E                     ??_dist3:	
   526                           ; 1 bytes @ 0x1E
   527                           
   528                           
   529                           ; 1 bytes @ 0x1E
   530  003E                     	ds	1
   531  003F                     dist1@distance1:
   532  003F                     dist2@distance2:	
   533                           ; 4 bytes @ 0x1F
   534                           
   535  003F                     dist3@distance3:	
   536                           ; 4 bytes @ 0x1F
   537                           
   538                           
   539                           ; 4 bytes @ 0x1F
   540  003F                     	ds	4
   541  0043                     ??_main:
   542                           
   543                           ; 1 bytes @ 0x23
   544  0043                     	ds	3
   545  0046                     main@count3:
   546                           
   547                           ; 2 bytes @ 0x26
   548  0046                     	ds	2
   549  0048                     main@count2:
   550                           
   551                           ; 2 bytes @ 0x28
   552  0048                     	ds	2
   553  004A                     main@count1:
   554                           
   555                           ; 2 bytes @ 0x2A
   556  004A                     	ds	2
   557  004C                     main@c3:
   558                           
   559                           ; 1 bytes @ 0x2C
   560  004C                     	ds	1
   561  004D                     main@c2:
   562                           
   563                           ; 1 bytes @ 0x2D
   564  004D                     	ds	1
   565  004E                     main@c1:
   566                           
   567                           ; 1 bytes @ 0x2E
   568  004E                     	ds	1
   569  004F                     main@distance1:
   570                           
   571                           ; 4 bytes @ 0x2F
   572  004F                     	ds	4
   573  0053                     main@distance2:
   574                           
   575                           ; 4 bytes @ 0x33
   576  0053                     	ds	4
   577  0057                     main@distance3:
   578                           
   579                           ; 4 bytes @ 0x37
   580  0057                     	ds	4
   581                           
   582                           	psect	maintext
   583  05C8                     __pmaintext:	
   584 ;;
   585 ;;Main: autosize = 0, tempsize = 3, incstack = 0, save=0
   586 ;;
   587 ;; *************** function _main *****************
   588 ;; Defined at:
   589 ;;		line 28 in file "mainBT.c"
   590 ;; Parameters:    Size  Location     Type
   591 ;;		None
   592 ;; Auto vars:     Size  Location     Type
   593 ;;  distance3       4   55[BANK0 ] float 
   594 ;;  distance2       4   51[BANK0 ] float 
   595 ;;  distance1       4   47[BANK0 ] float 
   596 ;;  count1          2   42[BANK0 ] int 
   597 ;;  count2          2   40[BANK0 ] int 
   598 ;;  count3          2   38[BANK0 ] int 
   599 ;;  c1              1   46[BANK0 ] unsigned char 
   600 ;;  c2              1   45[BANK0 ] unsigned char 
   601 ;;  c3              1   44[BANK0 ] unsigned char 
   602 ;; Return value:  Size  Location     Type
   603 ;;                  1    wreg      void 
   604 ;; Registers used:
   605 ;;		wreg, fsr0l, fsr0h, status,2, status,0, btemp+1, pclath, cstack
   606 ;; Tracked objects:
   607 ;;		On entry : B00/0
   608 ;;		On exit  : 0/0
   609 ;;		Unchanged: 0/0
   610 ;; Data sizes:     COMMON   BANK0   BANK1   BANK3   BANK2
   611 ;;      Params:         0       0       0       0       0
   612 ;;      Locals:         0      21       0       0       0
   613 ;;      Temps:          0       3       0       0       0
   614 ;;      Totals:         0      24       0       0       0
   615 ;;Total ram usage:       24 bytes
   616 ;; Hardware stack levels required when called: 2
   617 ;; This function calls:
   618 ;;		_LCD_Clear
   619 ;;		_LCD_Command
   620 ;;		_LCD_init
   621 ;;		_LCD_string
   622 ;;		___flge
   623 ;;		_dist1
   624 ;;		_dist2
   625 ;;		_dist3
   626 ;;		_itoa
   627 ;; This function is called by:
   628 ;;		Startup code after reset
   629 ;; This function uses a non-reentrant model
   630 ;;
   631                           
   632  05C8                     _main:	
   633                           ;psect for function _main
   634                           
   635  05C8                     l1668:	
   636                           ;incstack = 0
   637                           ; Regs used in _main: [wreg-fsr0h+status,2+status,0+btemp+1+pclath+cstack]
   638                           
   639                           
   640                           ;mainBT.c: 30:   TRISB = 0;
   641  05C8  1683               	bsf	3,5	;RP0=1, select bank1
   642  05C9  1303               	bcf	3,6	;RP1=0, select bank1
   643  05CA  0186               	clrf	6	;volatile
   644  05CB                     l1670:
   645                           
   646                           ;mainBT.c: 31:   TRISC2 = 0;
   647  05CB  1107               	bcf	7,2	;volatile
   648  05CC                     l1672:
   649                           
   650                           ;mainBT.c: 32:   TRISC3 = 0;
   651  05CC  1187               	bcf	7,3	;volatile
   652  05CD                     l1674:
   653                           
   654                           ;mainBT.c: 33:   TRISD0 = 0;
   655  05CD  1008               	bcf	8,0	;volatile
   656  05CE                     l1676:
   657                           
   658                           ;mainBT.c: 36:   TRISD1 = 0;
   659  05CE  1088               	bcf	8,1	;volatile
   660  05CF                     l1678:
   661                           
   662                           ;mainBT.c: 37:   TRISD2 = 0;
   663  05CF  1108               	bcf	8,2	;volatile
   664  05D0                     l1680:
   665                           
   666                           ;mainBT.c: 38:   TRISD3 = 0;
   667  05D0  1188               	bcf	8,3	;volatile
   668  05D1                     l1682:
   669                           
   670                           ;mainBT.c: 41:   TRISD7 = 0;
   671  05D1  1388               	bcf	8,7	;volatile
   672  05D2                     l1684:
   673                           
   674                           ;mainBT.c: 42:   TRISD6 = 1;
   675  05D2  1708               	bsf	8,6	;volatile
   676  05D3                     l1686:
   677                           
   678                           ;mainBT.c: 43:   TRISD5 = 0;
   679  05D3  1288               	bcf	8,5	;volatile
   680  05D4                     l1688:
   681                           
   682                           ;mainBT.c: 44:   TRISD4 = 1;
   683  05D4  1608               	bsf	8,4	;volatile
   684  05D5                     l1690:
   685                           
   686                           ;mainBT.c: 45:   TRISC5 = 0;
   687  05D5  1287               	bcf	7,5	;volatile
   688  05D6                     l1692:
   689                           
   690                           ;mainBT.c: 46:   TRISC4 = 1;
   691  05D6  1607               	bsf	7,4	;volatile
   692  05D7                     l1694:
   693                           
   694                           ;mainBT.c: 49:   T1CKPS0 = 0;
   695  05D7  1283               	bcf	3,5	;RP0=0, select bank0
   696  05D8  1303               	bcf	3,6	;RP1=0, select bank0
   697  05D9  1210               	bcf	16,4	;volatile
   698  05DA                     l1696:
   699                           
   700                           ;mainBT.c: 50:   T1CKPS1 = 0;
   701  05DA  1290               	bcf	16,5	;volatile
   702  05DB                     l1698:
   703                           
   704                           ;mainBT.c: 53:   TMR1CS = 0;
   705  05DB  1090               	bcf	16,1	;volatile
   706                           
   707                           ;mainBT.c: 55:   float distance1;;mainBT.c: 56:   float distance2;;mainBT.c: 57:   float
      +                           distance3;;mainBT.c: 59:   int count3 =0;
   708  05DC  01C6               	clrf	main@count3
   709  05DD  01C7               	clrf	main@count3+1
   710                           
   711                           ;mainBT.c: 60:   int count2 =0;
   712  05DE  01C8               	clrf	main@count2
   713  05DF  01C9               	clrf	main@count2+1
   714                           
   715                           ;mainBT.c: 61:   int count1 =0;
   716  05E0  01CA               	clrf	main@count1
   717  05E1  01CB               	clrf	main@count1+1
   718  05E2                     l1700:
   719                           
   720                           ;mainBT.c: 62:   char c3;;mainBT.c: 63:   char c2;;mainBT.c: 64:   char c1;;mainBT.c: 66
      +                          :    LCD_init();
   721  05E2  120A  118A  2033  120A  118A  	fcall	_LCD_init
   722  05E7                     l1702:
   723                           
   724                           ;mainBT.c: 67:    LCD_Clear();
   725  05E7  120A  158A  27D1  120A  118A  	fcall	_LCD_Clear
   726  05EC                     l1704:
   727                           
   728                           ;mainBT.c: 68:    LCD_Command(0x80);
   729  05EC  3080               	movlw	128
   730  05ED  120A  158A  27D8  120A  118A  	fcall	_LCD_Command
   731  05F2                     l1706:
   732                           
   733                           ;mainBT.c: 69:    LCD_string("before While");
   734  05F2  3010               	movlw	(low ((STR_1-__stringbase)| (0+32768)))& (0+255)
   735  05F3  00F3               	movwf	LCD_string@str
   736  05F4  3080               	movlw	128
   737  05F5  00F4               	movwf	LCD_string@str+1
   738  05F6  120A  118A  204C  120A  118A  	fcall	_LCD_string
   739  05FB                     l1708:
   740                           
   741                           ;mainBT.c: 70:    _delay((unsigned long)((500)*(4000000/4000.0)));
   742  05FB  3003               	movlw	3
   743  05FC  1283               	bcf	3,5	;RP0=0, select bank0
   744  05FD  1303               	bcf	3,6	;RP1=0, select bank0
   745  05FE  00C5               	movwf	??_main+2
   746  05FF  308A               	movlw	138
   747  0600  00C4               	movwf	??_main+1
   748  0601  3055               	movlw	85
   749  0602  00C3               	movwf	??_main
   750  0603                     u1717:
   751  0603  0BC3               	decfsz	??_main,f
   752  0604  2E03               	goto	u1717
   753  0605  0BC4               	decfsz	??_main+1,f
   754  0606  2E03               	goto	u1717
   755  0607  0BC5               	decfsz	??_main+2,f
   756  0608  2E03               	goto	u1717
   757  0609                     l1710:
   758                           
   759                           ;mainBT.c: 73:    LCD_Clear();
   760  0609  120A  158A  27D1  120A  118A  	fcall	_LCD_Clear
   761  060E                     l1712:
   762                           
   763                           ;mainBT.c: 74:    LCD_Command(0x80);
   764  060E  3080               	movlw	128
   765  060F  120A  158A  27D8  120A  118A  	fcall	_LCD_Command
   766  0614                     l1714:
   767                           
   768                           ;mainBT.c: 75:    LCD_string("5-7 7-9 over 9");
   769  0614  3001               	movlw	(low ((STR_2-__stringbase)| (0+32768)))& (0+255)
   770  0615  00F3               	movwf	LCD_string@str
   771  0616  3080               	movlw	128
   772  0617  00F4               	movwf	LCD_string@str+1
   773  0618  120A  118A  204C  120A  118A  	fcall	_LCD_string
   774  061D                     l1716:
   775                           
   776                           ;mainBT.c: 76:    LCD_Command(0xC0);
   777  061D  30C0               	movlw	192
   778  061E  120A  158A  27D8  120A  118A  	fcall	_LCD_Command
   779  0623                     l1718:
   780                           
   781                           ;mainBT.c: 77:    LCD_string("0");
   782  0623  301D               	movlw	(low ((STR_3-__stringbase)| (0+32768)))& (0+255)
   783  0624  00F3               	movwf	LCD_string@str
   784  0625  3080               	movlw	128
   785  0626  00F4               	movwf	LCD_string@str+1
   786  0627  120A  118A  204C  120A  118A  	fcall	_LCD_string
   787  062C                     l1720:
   788                           
   789                           ;mainBT.c: 78:    LCD_Command(0xC5);
   790  062C  30C5               	movlw	197
   791  062D  120A  158A  27D8  120A  118A  	fcall	_LCD_Command
   792  0632                     l1722:
   793                           
   794                           ;mainBT.c: 79:    LCD_string("0");
   795  0632  301D               	movlw	(low ((STR_3-__stringbase)| (0+32768)))& (0+255)
   796  0633  00F3               	movwf	LCD_string@str
   797  0634  3080               	movlw	128
   798  0635  00F4               	movwf	LCD_string@str+1
   799  0636  120A  118A  204C  120A  118A  	fcall	_LCD_string
   800  063B                     l1724:
   801                           
   802                           ;mainBT.c: 80:    LCD_Command(0xCC);
   803  063B  30CC               	movlw	204
   804  063C  120A  158A  27D8  120A  118A  	fcall	_LCD_Command
   805  0641                     l1726:
   806                           
   807                           ;mainBT.c: 81:    LCD_string("0");
   808  0641  301D               	movlw	(low ((STR_3-__stringbase)| (0+32768)))& (0+255)
   809  0642  00F3               	movwf	LCD_string@str
   810  0643  3080               	movlw	128
   811  0644  00F4               	movwf	LCD_string@str+1
   812  0645  120A  118A  204C  120A  118A  	fcall	_LCD_string
   813  064A                     l1728:
   814                           
   815                           ;mainBT.c: 82:    _delay((unsigned long)((500)*(4000000/4000.0)));
   816  064A  3003               	movlw	3
   817  064B  1283               	bcf	3,5	;RP0=0, select bank0
   818  064C  1303               	bcf	3,6	;RP1=0, select bank0
   819  064D  00C5               	movwf	??_main+2
   820  064E  308A               	movlw	138
   821  064F  00C4               	movwf	??_main+1
   822  0650  3055               	movlw	85
   823  0651  00C3               	movwf	??_main
   824  0652                     u1727:
   825  0652  0BC3               	decfsz	??_main,f
   826  0653  2E52               	goto	u1727
   827  0654  0BC4               	decfsz	??_main+1,f
   828  0655  2E52               	goto	u1727
   829  0656  0BC5               	decfsz	??_main+2,f
   830  0657  2E52               	goto	u1727
   831  0658                     l1730:
   832                           
   833                           ;mainBT.c: 85:   {;mainBT.c: 86:         RD1=0;
   834  0658  1283               	bcf	3,5	;RP0=0, select bank0
   835  0659  1303               	bcf	3,6	;RP1=0, select bank0
   836  065A  1088               	bcf	8,1	;volatile
   837  065B                     l1732:
   838                           
   839                           ;mainBT.c: 87:         RD2=0;
   840  065B  1108               	bcf	8,2	;volatile
   841  065C                     l1734:
   842                           
   843                           ;mainBT.c: 88:         RD3=0;
   844  065C  1188               	bcf	8,3	;volatile
   845  065D                     l1736:
   846                           
   847                           ;mainBT.c: 89:         _delay((unsigned long)((1000)*(4000000/4000.0)));
   848  065D  3006               	movlw	6
   849  065E  1283               	bcf	3,5	;RP0=0, select bank0
   850  065F  1303               	bcf	3,6	;RP1=0, select bank0
   851  0660  00C5               	movwf	??_main+2
   852  0661  3013               	movlw	19
   853  0662  00C4               	movwf	??_main+1
   854  0663  30AD               	movlw	173
   855  0664  00C3               	movwf	??_main
   856  0665                     u1737:
   857  0665  0BC3               	decfsz	??_main,f
   858  0666  2E65               	goto	u1737
   859  0667  0BC4               	decfsz	??_main+1,f
   860  0668  2E65               	goto	u1737
   861  0669  0BC5               	decfsz	??_main+2,f
   862  066A  2E65               	goto	u1737
   863  066B                     l1738:
   864                           
   865                           ;mainBT.c: 91:       distance3 =dist3();
   866  066B  120A  118A  211E  120A  118A  	fcall	_dist3
   867  0670  1283               	bcf	3,5	;RP0=0, select bank0
   868  0671  1303               	bcf	3,6	;RP1=0, select bank0
   869  0672  083D               	movf	?_dist3+3,w
   870  0673  00DA               	movwf	main@distance3+3
   871  0674  083C               	movf	?_dist3+2,w
   872  0675  00D9               	movwf	main@distance3+2
   873  0676  083B               	movf	?_dist3+1,w
   874  0677  00D8               	movwf	main@distance3+1
   875  0678  083A               	movf	?_dist3,w
   876  0679  00D7               	movwf	main@distance3
   877  067A                     l1740:
   878                           
   879                           ;mainBT.c: 92:       if (distance3 >60)
   880  067A  3042               	movlw	66
   881  067B  00F3               	movwf	___flge@ff1+3
   882  067C  3070               	movlw	112
   883  067D  00F2               	movwf	___flge@ff1+2
   884  067E  3000               	movlw	0
   885  067F  00F1               	movwf	___flge@ff1+1
   886  0680  3000               	movlw	0
   887  0681  00F0               	movwf	___flge@ff1
   888  0682  085A               	movf	main@distance3+3,w
   889  0683  00F7               	movwf	___flge@ff2+3
   890  0684  0859               	movf	main@distance3+2,w
   891  0685  00F6               	movwf	___flge@ff2+2
   892  0686  0858               	movf	main@distance3+1,w
   893  0687  00F5               	movwf	___flge@ff2+1
   894  0688  0857               	movf	main@distance3,w
   895  0689  00F4               	movwf	___flge@ff2
   896  068A  120A  118A  228F  120A  118A  	fcall	___flge
   897  068F  1803               	btfsc	3,0
   898  0690  2E92               	goto	u1651
   899  0691  2E93               	goto	u1650
   900  0692                     u1651:
   901  0692  2EA1               	goto	l1744
   902  0693                     u1650:
   903  0693                     l1742:
   904                           
   905                           ;mainBT.c: 93:       {;mainBT.c: 94:           _delay((unsigned long)((500)*(4000000/400
      +                          0.0)));
   906  0693  3003               	movlw	3
   907  0694  1283               	bcf	3,5	;RP0=0, select bank0
   908  0695  1303               	bcf	3,6	;RP1=0, select bank0
   909  0696  00C5               	movwf	??_main+2
   910  0697  308A               	movlw	138
   911  0698  00C4               	movwf	??_main+1
   912  0699  3055               	movlw	85
   913  069A  00C3               	movwf	??_main
   914  069B                     u1747:
   915  069B  0BC3               	decfsz	??_main,f
   916  069C  2E9B               	goto	u1747
   917  069D  0BC4               	decfsz	??_main+1,f
   918  069E  2E9B               	goto	u1747
   919  069F  0BC5               	decfsz	??_main+2,f
   920  06A0  2E9B               	goto	u1747
   921  06A1                     l1744:
   922                           
   923                           ;mainBT.c: 97:       if(distance3 <60){
   924  06A1  1283               	bcf	3,5	;RP0=0, select bank0
   925  06A2  1303               	bcf	3,6	;RP1=0, select bank0
   926  06A3  085A               	movf	main@distance3+3,w
   927  06A4  00F3               	movwf	___flge@ff1+3
   928  06A5  0859               	movf	main@distance3+2,w
   929  06A6  00F2               	movwf	___flge@ff1+2
   930  06A7  0858               	movf	main@distance3+1,w
   931  06A8  00F1               	movwf	___flge@ff1+1
   932  06A9  0857               	movf	main@distance3,w
   933  06AA  00F0               	movwf	___flge@ff1
   934  06AB  3042               	movlw	66
   935  06AC  00F7               	movwf	___flge@ff2+3
   936  06AD  3070               	movlw	112
   937  06AE  00F6               	movwf	___flge@ff2+2
   938  06AF  3000               	movlw	0
   939  06B0  00F5               	movwf	___flge@ff2+1
   940  06B1  3000               	movlw	0
   941  06B2  00F4               	movwf	___flge@ff2
   942  06B3  120A  118A  228F  120A  118A  	fcall	___flge
   943  06B8  1803               	btfsc	3,0
   944  06B9  2EBB               	goto	u1661
   945  06BA  2EBC               	goto	u1660
   946  06BB                     u1661:
   947  06BB  2E58               	goto	l1730
   948  06BC                     u1660:
   949  06BC                     l1746:
   950                           
   951                           ;mainBT.c: 98:          RD1=1;
   952  06BC  1283               	bcf	3,5	;RP0=0, select bank0
   953  06BD  1303               	bcf	3,6	;RP1=0, select bank0
   954  06BE  1488               	bsf	8,1	;volatile
   955  06BF                     l1748:
   956                           
   957                           ;mainBT.c: 99:          distance2=dist2();
   958  06BF  120A  118A  20CD  120A  118A  	fcall	_dist2
   959  06C4  1283               	bcf	3,5	;RP0=0, select bank0
   960  06C5  1303               	bcf	3,6	;RP1=0, select bank0
   961  06C6  083D               	movf	?_dist2+3,w
   962  06C7  00D6               	movwf	main@distance2+3
   963  06C8  083C               	movf	?_dist2+2,w
   964  06C9  00D5               	movwf	main@distance2+2
   965  06CA  083B               	movf	?_dist2+1,w
   966  06CB  00D4               	movwf	main@distance2+1
   967  06CC  083A               	movf	?_dist2,w
   968  06CD  00D3               	movwf	main@distance2
   969  06CE                     l1750:
   970                           
   971                           ;mainBT.c: 100:          if(distance2>60)
   972  06CE  3042               	movlw	66
   973  06CF  00F3               	movwf	___flge@ff1+3
   974  06D0  3070               	movlw	112
   975  06D1  00F2               	movwf	___flge@ff1+2
   976  06D2  3000               	movlw	0
   977  06D3  00F1               	movwf	___flge@ff1+1
   978  06D4  3000               	movlw	0
   979  06D5  00F0               	movwf	___flge@ff1
   980  06D6  0856               	movf	main@distance2+3,w
   981  06D7  00F7               	movwf	___flge@ff2+3
   982  06D8  0855               	movf	main@distance2+2,w
   983  06D9  00F6               	movwf	___flge@ff2+2
   984  06DA  0854               	movf	main@distance2+1,w
   985  06DB  00F5               	movwf	___flge@ff2+1
   986  06DC  0853               	movf	main@distance2,w
   987  06DD  00F4               	movwf	___flge@ff2
   988  06DE  120A  118A  228F  120A  118A  	fcall	___flge
   989  06E3  1803               	btfsc	3,0
   990  06E4  2EE6               	goto	u1671
   991  06E5  2EE7               	goto	u1670
   992  06E6                     u1671:
   993  06E6  2F1D               	goto	l1762
   994  06E7                     u1670:
   995  06E7                     l1752:
   996                           
   997                           ;mainBT.c: 101:          {;mainBT.c: 103:              LCD_Command(0xC2);
   998  06E7  30C2               	movlw	194
   999  06E8  120A  158A  27D8  120A  118A  	fcall	_LCD_Command
  1000  06ED                     l1754:
  1001                           
  1002                           ;mainBT.c: 104:              count3++;
  1003  06ED  3001               	movlw	1
  1004  06EE  1283               	bcf	3,5	;RP0=0, select bank0
  1005  06EF  1303               	bcf	3,6	;RP1=0, select bank0
  1006  06F0  07C6               	addwf	main@count3,f
  1007  06F1  1803               	skipnc
  1008  06F2  0AC7               	incf	main@count3+1,f
  1009  06F3  3000               	movlw	0
  1010  06F4  07C7               	addwf	main@count3+1,f
  1011  06F5                     l1756:
  1012                           
  1013                           ;mainBT.c: 105:              c3=itoa(count3);
  1014  06F5  0847               	movf	main@count3+1,w
  1015  06F6  00FA               	movwf	itoa@value+1
  1016  06F7  0846               	movf	main@count3,w
  1017  06F8  00F9               	movwf	itoa@value
  1018  06F9  120A  118A  21C8  120A  118A  	fcall	_itoa
  1019  06FE  1283               	bcf	3,5	;RP0=0, select bank0
  1020  06FF  1303               	bcf	3,6	;RP1=0, select bank0
  1021  0700  00C3               	movwf	??_main
  1022  0701  0843               	movf	??_main,w
  1023  0702  00CC               	movwf	main@c3
  1024  0703                     l1758:
  1025                           
  1026                           ;mainBT.c: 106:              LCD_string(c3);
  1027  0703  084C               	movf	main@c3,w
  1028  0704  00C3               	movwf	??_main
  1029  0705  01C4               	clrf	??_main+1
  1030  0706  0843               	movf	??_main,w
  1031  0707  00F3               	movwf	LCD_string@str
  1032  0708  0844               	movf	??_main+1,w
  1033  0709  00F4               	movwf	LCD_string@str+1
  1034  070A  120A  118A  204C  120A  118A  	fcall	_LCD_string
  1035  070F                     l1760:
  1036                           
  1037                           ;mainBT.c: 107:               _delay((unsigned long)((500)*(4000000/4000.0)));
  1038  070F  3003               	movlw	3
  1039  0710  1283               	bcf	3,5	;RP0=0, select bank0
  1040  0711  1303               	bcf	3,6	;RP1=0, select bank0
  1041  0712  00C5               	movwf	??_main+2
  1042  0713  308A               	movlw	138
  1043  0714  00C4               	movwf	??_main+1
  1044  0715  3055               	movlw	85
  1045  0716  00C3               	movwf	??_main
  1046  0717                     u1757:
  1047  0717  0BC3               	decfsz	??_main,f
  1048  0718  2F17               	goto	u1757
  1049  0719  0BC4               	decfsz	??_main+1,f
  1050  071A  2F17               	goto	u1757
  1051  071B  0BC5               	decfsz	??_main+2,f
  1052  071C  2F17               	goto	u1757
  1053  071D                     l1762:
  1054                           
  1055                           ;mainBT.c: 110:          if(distance2<60){
  1056  071D  1283               	bcf	3,5	;RP0=0, select bank0
  1057  071E  1303               	bcf	3,6	;RP1=0, select bank0
  1058  071F  0856               	movf	main@distance2+3,w
  1059  0720  00F3               	movwf	___flge@ff1+3
  1060  0721  0855               	movf	main@distance2+2,w
  1061  0722  00F2               	movwf	___flge@ff1+2
  1062  0723  0854               	movf	main@distance2+1,w
  1063  0724  00F1               	movwf	___flge@ff1+1
  1064  0725  0853               	movf	main@distance2,w
  1065  0726  00F0               	movwf	___flge@ff1
  1066  0727  3042               	movlw	66
  1067  0728  00F7               	movwf	___flge@ff2+3
  1068  0729  3070               	movlw	112
  1069  072A  00F6               	movwf	___flge@ff2+2
  1070  072B  3000               	movlw	0
  1071  072C  00F5               	movwf	___flge@ff2+1
  1072  072D  3000               	movlw	0
  1073  072E  00F4               	movwf	___flge@ff2
  1074  072F  120A  118A  228F  120A  118A  	fcall	___flge
  1075  0734  1803               	btfsc	3,0
  1076  0735  2F37               	goto	u1681
  1077  0736  2F38               	goto	u1680
  1078  0737                     u1681:
  1079  0737  2E58               	goto	l1730
  1080  0738                     u1680:
  1081  0738                     l1764:
  1082                           
  1083                           ;mainBT.c: 111:              RD2=1;
  1084  0738  1283               	bcf	3,5	;RP0=0, select bank0
  1085  0739  1303               	bcf	3,6	;RP1=0, select bank0
  1086  073A  1508               	bsf	8,2	;volatile
  1087  073B                     l1766:
  1088                           
  1089                           ;mainBT.c: 112:              distance1= dist1();
  1090  073B  120A  118A  207C  120A  118A  	fcall	_dist1
  1091  0740  1283               	bcf	3,5	;RP0=0, select bank0
  1092  0741  1303               	bcf	3,6	;RP1=0, select bank0
  1093  0742  083D               	movf	?_dist1+3,w
  1094  0743  00D2               	movwf	main@distance1+3
  1095  0744  083C               	movf	?_dist1+2,w
  1096  0745  00D1               	movwf	main@distance1+2
  1097  0746  083B               	movf	?_dist1+1,w
  1098  0747  00D0               	movwf	main@distance1+1
  1099  0748  083A               	movf	?_dist1,w
  1100  0749  00CF               	movwf	main@distance1
  1101  074A                     l1768:
  1102                           
  1103                           ;mainBT.c: 113:              if(distance1>60){
  1104  074A  3042               	movlw	66
  1105  074B  00F3               	movwf	___flge@ff1+3
  1106  074C  3070               	movlw	112
  1107  074D  00F2               	movwf	___flge@ff1+2
  1108  074E  3000               	movlw	0
  1109  074F  00F1               	movwf	___flge@ff1+1
  1110  0750  3000               	movlw	0
  1111  0751  00F0               	movwf	___flge@ff1
  1112  0752  0852               	movf	main@distance1+3,w
  1113  0753  00F7               	movwf	___flge@ff2+3
  1114  0754  0851               	movf	main@distance1+2,w
  1115  0755  00F6               	movwf	___flge@ff2+2
  1116  0756  0850               	movf	main@distance1+1,w
  1117  0757  00F5               	movwf	___flge@ff2+1
  1118  0758  084F               	movf	main@distance1,w
  1119  0759  00F4               	movwf	___flge@ff2
  1120  075A  120A  118A  228F  120A  118A  	fcall	___flge
  1121  075F  1803               	btfsc	3,0
  1122  0760  2F62               	goto	u1691
  1123  0761  2F63               	goto	u1690
  1124  0762                     u1691:
  1125  0762  2F99               	goto	l1780
  1126  0763                     u1690:
  1127  0763                     l1770:
  1128                           
  1129                           ;mainBT.c: 115:              LCD_Command(0xC5);
  1130  0763  30C5               	movlw	197
  1131  0764  120A  158A  27D8  120A  118A  	fcall	_LCD_Command
  1132  0769                     l1772:
  1133                           
  1134                           ;mainBT.c: 116:               count2++;
  1135  0769  3001               	movlw	1
  1136  076A  1283               	bcf	3,5	;RP0=0, select bank0
  1137  076B  1303               	bcf	3,6	;RP1=0, select bank0
  1138  076C  07C8               	addwf	main@count2,f
  1139  076D  1803               	skipnc
  1140  076E  0AC9               	incf	main@count2+1,f
  1141  076F  3000               	movlw	0
  1142  0770  07C9               	addwf	main@count2+1,f
  1143  0771                     l1774:
  1144                           
  1145                           ;mainBT.c: 117:              c2=itoa(count2);
  1146  0771  0849               	movf	main@count2+1,w
  1147  0772  00FA               	movwf	itoa@value+1
  1148  0773  0848               	movf	main@count2,w
  1149  0774  00F9               	movwf	itoa@value
  1150  0775  120A  118A  21C8  120A  118A  	fcall	_itoa
  1151  077A  1283               	bcf	3,5	;RP0=0, select bank0
  1152  077B  1303               	bcf	3,6	;RP1=0, select bank0
  1153  077C  00C3               	movwf	??_main
  1154  077D  0843               	movf	??_main,w
  1155  077E  00CD               	movwf	main@c2
  1156  077F                     l1776:
  1157                           
  1158                           ;mainBT.c: 118:              LCD_string(c2);
  1159  077F  084D               	movf	main@c2,w
  1160  0780  00C3               	movwf	??_main
  1161  0781  01C4               	clrf	??_main+1
  1162  0782  0843               	movf	??_main,w
  1163  0783  00F3               	movwf	LCD_string@str
  1164  0784  0844               	movf	??_main+1,w
  1165  0785  00F4               	movwf	LCD_string@str+1
  1166  0786  120A  118A  204C  120A  118A  	fcall	_LCD_string
  1167  078B                     l1778:
  1168                           
  1169                           ;mainBT.c: 119:               _delay((unsigned long)((500)*(4000000/4000.0)));
  1170  078B  3003               	movlw	3
  1171  078C  1283               	bcf	3,5	;RP0=0, select bank0
  1172  078D  1303               	bcf	3,6	;RP1=0, select bank0
  1173  078E  00C5               	movwf	??_main+2
  1174  078F  308A               	movlw	138
  1175  0790  00C4               	movwf	??_main+1
  1176  0791  3055               	movlw	85
  1177  0792  00C3               	movwf	??_main
  1178  0793                     u1767:
  1179  0793  0BC3               	decfsz	??_main,f
  1180  0794  2F93               	goto	u1767
  1181  0795  0BC4               	decfsz	??_main+1,f
  1182  0796  2F93               	goto	u1767
  1183  0797  0BC5               	decfsz	??_main+2,f
  1184  0798  2F93               	goto	u1767
  1185  0799                     l1780:
  1186                           
  1187                           ;mainBT.c: 123:              if(distance1<60){
  1188  0799  1283               	bcf	3,5	;RP0=0, select bank0
  1189  079A  1303               	bcf	3,6	;RP1=0, select bank0
  1190  079B  0852               	movf	main@distance1+3,w
  1191  079C  00F3               	movwf	___flge@ff1+3
  1192  079D  0851               	movf	main@distance1+2,w
  1193  079E  00F2               	movwf	___flge@ff1+2
  1194  079F  0850               	movf	main@distance1+1,w
  1195  07A0  00F1               	movwf	___flge@ff1+1
  1196  07A1  084F               	movf	main@distance1,w
  1197  07A2  00F0               	movwf	___flge@ff1
  1198  07A3  3042               	movlw	66
  1199  07A4  00F7               	movwf	___flge@ff2+3
  1200  07A5  3070               	movlw	112
  1201  07A6  00F6               	movwf	___flge@ff2+2
  1202  07A7  3000               	movlw	0
  1203  07A8  00F5               	movwf	___flge@ff2+1
  1204  07A9  3000               	movlw	0
  1205  07AA  00F4               	movwf	___flge@ff2
  1206  07AB  120A  118A  228F  120A  118A  	fcall	___flge
  1207  07B0  1803               	btfsc	3,0
  1208  07B1  2FB3               	goto	u1701
  1209  07B2  2FB4               	goto	u1700
  1210  07B3                     u1701:
  1211  07B3  2FE0               	goto	l127
  1212  07B4                     u1700:
  1213  07B4                     l1782:
  1214                           
  1215                           ;mainBT.c: 124:                  RD3=1;
  1216  07B4  1283               	bcf	3,5	;RP0=0, select bank0
  1217  07B5  1303               	bcf	3,6	;RP1=0, select bank0
  1218  07B6  1588               	bsf	8,3	;volatile
  1219  07B7                     l1784:
  1220                           
  1221                           ;mainBT.c: 125:                  LCD_Command(0xCC);
  1222  07B7  30CC               	movlw	204
  1223  07B8  120A  158A  27D8  120A  118A  	fcall	_LCD_Command
  1224  07BD                     l1786:
  1225                           
  1226                           ;mainBT.c: 126:                  count1++;
  1227  07BD  3001               	movlw	1
  1228  07BE  1283               	bcf	3,5	;RP0=0, select bank0
  1229  07BF  1303               	bcf	3,6	;RP1=0, select bank0
  1230  07C0  07CA               	addwf	main@count1,f
  1231  07C1  1803               	skipnc
  1232  07C2  0ACB               	incf	main@count1+1,f
  1233  07C3  3000               	movlw	0
  1234  07C4  07CB               	addwf	main@count1+1,f
  1235  07C5                     l1788:
  1236                           
  1237                           ;mainBT.c: 127:                  c1=itoa(count1);
  1238  07C5  084B               	movf	main@count1+1,w
  1239  07C6  00FA               	movwf	itoa@value+1
  1240  07C7  084A               	movf	main@count1,w
  1241  07C8  00F9               	movwf	itoa@value
  1242  07C9  120A  118A  21C8  120A  118A  	fcall	_itoa
  1243  07CE  1283               	bcf	3,5	;RP0=0, select bank0
  1244  07CF  1303               	bcf	3,6	;RP1=0, select bank0
  1245  07D0  00C3               	movwf	??_main
  1246  07D1  0843               	movf	??_main,w
  1247  07D2  00CE               	movwf	main@c1
  1248  07D3                     l1790:
  1249                           
  1250                           ;mainBT.c: 128:                  LCD_string(c1);
  1251  07D3  084E               	movf	main@c1,w
  1252  07D4  00C3               	movwf	??_main
  1253  07D5  01C4               	clrf	??_main+1
  1254  07D6  0843               	movf	??_main,w
  1255  07D7  00F3               	movwf	LCD_string@str
  1256  07D8  0844               	movf	??_main+1,w
  1257  07D9  00F4               	movwf	LCD_string@str+1
  1258  07DA  120A  118A  204C  120A  118A  	fcall	_LCD_string
  1259  07DF  2E4A               	goto	l1728
  1260  07E0                     l127:	
  1261                           ;mainBT.c: 134:       }
  1262                           
  1263  07E0  2E58               	goto	l1730
  1264  07E1  120A  118A  2800   	ljmp	start
  1265  07E4                     __end_of_main:
  1266                           
  1267                           	psect	text1
  1268  01C8                     __ptext1:	
  1269 ;; *************** function _itoa *****************
  1270 ;; Defined at:
  1271 ;;		line 52 in file "./LCD.h"
  1272 ;; Parameters:    Size  Location     Type
  1273 ;;  value           2    9[COMMON] int 
  1274 ;; Auto vars:     Size  Location     Type
  1275 ;;  c               2    2[BANK0 ] int 
  1276 ;;  original        2    0[BANK0 ] int 
  1277 ;; Return value:  Size  Location     Type
  1278 ;;                  1    wreg      PTR unsigned char 
  1279 ;; Registers used:
  1280 ;;		wreg, fsr0l, fsr0h, status,2, status,0, pclath, cstack
  1281 ;; Tracked objects:
  1282 ;;		On entry : 0/0
  1283 ;;		On exit  : 0/0
  1284 ;;		Unchanged: 0/0
  1285 ;; Data sizes:     COMMON   BANK0   BANK1   BANK3   BANK2
  1286 ;;      Params:         2       0       0       0       0
  1287 ;;      Locals:         0       4       0       0       0
  1288 ;;      Temps:          1       0       0       0       0
  1289 ;;      Totals:         3       4       0       0       0
  1290 ;;Total ram usage:        7 bytes
  1291 ;; Hardware stack levels used: 1
  1292 ;; Hardware stack levels required when called: 1
  1293 ;; This function calls:
  1294 ;;		___awdiv
  1295 ;;		___awmod
  1296 ;; This function is called by:
  1297 ;;		_main
  1298 ;; This function uses a non-reentrant model
  1299 ;;
  1300                           
  1301  01C8                     _itoa:	
  1302                           ;psect for function _itoa
  1303                           
  1304  01C8                     l1626:	
  1305                           ;incstack = 0
  1306                           ; Regs used in _itoa: [wreg-fsr0h+status,2+status,0+pclath+cstack]
  1307                           
  1308                           
  1309                           ;./LCD.h: 52: char *itoa(int value);./LCD.h: 53:  {;./LCD.h: 54:      static char buffer
      +                          [12];;./LCD.h: 55:      int original = value;
  1310  01C8  087A               	movf	itoa@value+1,w
  1311  01C9  1283               	bcf	3,5	;RP0=0, select bank0
  1312  01CA  1303               	bcf	3,6	;RP1=0, select bank0
  1313  01CB  00A1               	movwf	itoa@original+1
  1314  01CC  0879               	movf	itoa@value,w
  1315  01CD  00A0               	movwf	itoa@original
  1316                           
  1317                           ;./LCD.h: 57:      int c = sizeof(buffer)-1;
  1318  01CE  300B               	movlw	11
  1319  01CF  00A2               	movwf	itoa@c
  1320  01D0  3000               	movlw	0
  1321  01D1  00A3               	movwf	itoa@c+1
  1322  01D2                     l1628:
  1323                           
  1324                           ;./LCD.h: 59:      buffer[c] = 0;
  1325  01D2  01E6               	clrf	itoa@buffer+11
  1326  01D3                     l1630:
  1327                           
  1328                           ;./LCD.h: 61:      if (value < 0)
  1329  01D3  1FFA               	btfss	itoa@value+1,7
  1330  01D4  29D6               	goto	u1551
  1331  01D5  29D7               	goto	u1550
  1332  01D6                     u1551:
  1333  01D6  29DC               	goto	l1634
  1334  01D7                     u1550:
  1335  01D7                     l1632:
  1336                           
  1337                           ;./LCD.h: 62:          value = -value;
  1338  01D7  09F9               	comf	itoa@value,f
  1339  01D8  09FA               	comf	itoa@value+1,f
  1340  01D9  0AF9               	incf	itoa@value,f
  1341  01DA  1903               	skipnz
  1342  01DB  0AFA               	incf	itoa@value+1,f
  1343  01DC                     l1634:
  1344                           
  1345                           ;./LCD.h: 65:      {;./LCD.h: 66:          buffer[--c] = (value % 10) + '0';
  1346  01DC  300A               	movlw	10
  1347  01DD  00F0               	movwf	___awmod@divisor
  1348  01DE  3000               	movlw	0
  1349  01DF  00F1               	movwf	___awmod@divisor+1
  1350  01E0  087A               	movf	itoa@value+1,w
  1351  01E1  00F3               	movwf	___awmod@dividend+1
  1352  01E2  0879               	movf	itoa@value,w
  1353  01E3  00F2               	movwf	___awmod@dividend
  1354  01E4  120A  118A  216F  120A  118A  	fcall	___awmod
  1355  01E9  0870               	movf	?___awmod,w
  1356  01EA  3E30               	addlw	48
  1357  01EB  00FB               	movwf	??_itoa
  1358  01EC  30FF               	movlw	255
  1359  01ED  1283               	bcf	3,5	;RP0=0, select bank0
  1360  01EE  1303               	bcf	3,6	;RP1=0, select bank0
  1361  01EF  07A2               	addwf	itoa@c,f
  1362  01F0  1803               	skipnc
  1363  01F1  0AA3               	incf	itoa@c+1,f
  1364  01F2  30FF               	movlw	255
  1365  01F3  07A3               	addwf	itoa@c+1,f
  1366  01F4  0822               	movf	itoa@c,w
  1367  01F5  3E5B               	addlw	(low (itoa@buffer| 0))& (0+255)
  1368  01F6  0084               	movwf	4
  1369  01F7  087B               	movf	??_itoa,w
  1370  01F8  1383               	bcf	3,7	;select IRP bank0
  1371  01F9  0080               	movwf	0
  1372  01FA                     l1636:
  1373                           
  1374                           ;./LCD.h: 67:          value /= 10;
  1375  01FA  300A               	movlw	10
  1376  01FB  00F0               	movwf	___awdiv@divisor
  1377  01FC  3000               	movlw	0
  1378  01FD  00F1               	movwf	___awdiv@divisor+1
  1379  01FE  087A               	movf	itoa@value+1,w
  1380  01FF  00F3               	movwf	___awdiv@dividend+1
  1381  0200  0879               	movf	itoa@value,w
  1382  0201  00F2               	movwf	___awdiv@dividend
  1383  0202  120A  118A  2228  120A  118A  	fcall	___awdiv
  1384  0207  0871               	movf	?___awdiv+1,w
  1385  0208  00FA               	movwf	itoa@value+1
  1386  0209  0870               	movf	?___awdiv,w
  1387  020A  00F9               	movwf	itoa@value
  1388  020B                     l1638:
  1389                           
  1390                           ;./LCD.h: 68:      } while (value);
  1391  020B  0879               	movf	itoa@value,w
  1392  020C  047A               	iorwf	itoa@value+1,w
  1393  020D  1D03               	btfss	3,2
  1394  020E  2A10               	goto	u1561
  1395  020F  2A11               	goto	u1560
  1396  0210                     u1561:
  1397  0210  29DC               	goto	l1634
  1398  0211                     u1560:
  1399  0211                     l113:
  1400                           
  1401                           ;./LCD.h: 70:      if (original < 0)
  1402  0211  1283               	bcf	3,5	;RP0=0, select bank0
  1403  0212  1303               	bcf	3,6	;RP1=0, select bank0
  1404  0213  1FA1               	btfss	itoa@original+1,7
  1405  0214  2A16               	goto	u1571
  1406  0215  2A17               	goto	u1570
  1407  0216                     u1571:
  1408  0216  2A25               	goto	l1642
  1409  0217                     u1570:
  1410  0217                     l1640:
  1411                           
  1412                           ;./LCD.h: 71:          buffer[--c] = '-';
  1413  0217  302D               	movlw	45
  1414  0218  00FB               	movwf	??_itoa
  1415  0219  30FF               	movlw	255
  1416  021A  07A2               	addwf	itoa@c,f
  1417  021B  1803               	skipnc
  1418  021C  0AA3               	incf	itoa@c+1,f
  1419  021D  30FF               	movlw	255
  1420  021E  07A3               	addwf	itoa@c+1,f
  1421  021F  0822               	movf	itoa@c,w
  1422  0220  3E5B               	addlw	(low (itoa@buffer| 0))& (0+255)
  1423  0221  0084               	movwf	4
  1424  0222  087B               	movf	??_itoa,w
  1425  0223  1383               	bcf	3,7	;select IRP bank0
  1426  0224  0080               	movwf	0
  1427  0225                     l1642:
  1428                           
  1429                           ;./LCD.h: 73:      return &buffer[c];
  1430  0225  0822               	movf	itoa@c,w
  1431  0226  3E5B               	addlw	(low (itoa@buffer| 0))& (0+255)
  1432  0227                     l115:
  1433  0227  0008               	return
  1434  0228                     __end_of_itoa:
  1435                           
  1436                           	psect	text2
  1437  016F                     __ptext2:	
  1438 ;; *************** function ___awmod *****************
  1439 ;; Defined at:
  1440 ;;		line 5 in file "C:\Program Files\Microchip\xc8\v2.36\pic\sources\c90\common\awmod.c"
  1441 ;; Parameters:    Size  Location     Type
  1442 ;;  divisor         2    0[COMMON] int 
  1443 ;;  dividend        2    2[COMMON] int 
  1444 ;; Auto vars:     Size  Location     Type
  1445 ;;  sign            1    6[COMMON] unsigned char 
  1446 ;;  counter         1    5[COMMON] unsigned char 
  1447 ;; Return value:  Size  Location     Type
  1448 ;;                  2    0[COMMON] int 
  1449 ;; Registers used:
  1450 ;;		wreg, status,2, status,0
  1451 ;; Tracked objects:
  1452 ;;		On entry : 0/0
  1453 ;;		On exit  : 0/0
  1454 ;;		Unchanged: 0/0
  1455 ;; Data sizes:     COMMON   BANK0   BANK1   BANK3   BANK2
  1456 ;;      Params:         4       0       0       0       0
  1457 ;;      Locals:         2       0       0       0       0
  1458 ;;      Temps:          1       0       0       0       0
  1459 ;;      Totals:         7       0       0       0       0
  1460 ;;Total ram usage:        7 bytes
  1461 ;; Hardware stack levels used: 1
  1462 ;; This function calls:
  1463 ;;		Nothing
  1464 ;; This function is called by:
  1465 ;;		_itoa
  1466 ;; This function uses a non-reentrant model
  1467 ;;
  1468                           
  1469  016F                     ___awmod:	
  1470                           ;psect for function ___awmod
  1471                           
  1472  016F                     l1332:	
  1473                           ;incstack = 0
  1474                           ; Regs used in ___awmod: [wreg+status,2+status,0]
  1475                           
  1476  016F  01F6               	clrf	___awmod@sign
  1477  0170                     l1334:
  1478  0170  1FF3               	btfss	___awmod@dividend+1,7
  1479  0171  2973               	goto	u961
  1480  0172  2974               	goto	u960
  1481  0173                     u961:
  1482  0173  297B               	goto	l1340
  1483  0174                     u960:
  1484  0174                     l1336:
  1485  0174  09F2               	comf	___awmod@dividend,f
  1486  0175  09F3               	comf	___awmod@dividend+1,f
  1487  0176  0AF2               	incf	___awmod@dividend,f
  1488  0177  1903               	skipnz
  1489  0178  0AF3               	incf	___awmod@dividend+1,f
  1490  0179                     l1338:
  1491  0179  01F6               	clrf	___awmod@sign
  1492  017A  0AF6               	incf	___awmod@sign,f
  1493  017B                     l1340:
  1494  017B  1FF1               	btfss	___awmod@divisor+1,7
  1495  017C  297E               	goto	u971
  1496  017D  297F               	goto	u970
  1497  017E                     u971:
  1498  017E  2984               	goto	l1344
  1499  017F                     u970:
  1500  017F                     l1342:
  1501  017F  09F0               	comf	___awmod@divisor,f
  1502  0180  09F1               	comf	___awmod@divisor+1,f
  1503  0181  0AF0               	incf	___awmod@divisor,f
  1504  0182  1903               	skipnz
  1505  0183  0AF1               	incf	___awmod@divisor+1,f
  1506  0184                     l1344:
  1507  0184  0870               	movf	___awmod@divisor,w
  1508  0185  0471               	iorwf	___awmod@divisor+1,w
  1509  0186  1903               	btfsc	3,2
  1510  0187  2989               	goto	u981
  1511  0188  298A               	goto	u980
  1512  0189                     u981:
  1513  0189  29B9               	goto	l1362
  1514  018A                     u980:
  1515  018A                     l1346:
  1516  018A  01F5               	clrf	___awmod@counter
  1517  018B  0AF5               	incf	___awmod@counter,f
  1518  018C  2998               	goto	l1352
  1519  018D                     l1348:
  1520  018D  3001               	movlw	1
  1521  018E                     u995:
  1522  018E  1003               	clrc
  1523  018F  0DF0               	rlf	___awmod@divisor,f
  1524  0190  0DF1               	rlf	___awmod@divisor+1,f
  1525  0191  3EFF               	addlw	-1
  1526  0192  1D03               	skipz
  1527  0193  298E               	goto	u995
  1528  0194                     l1350:
  1529  0194  3001               	movlw	1
  1530  0195  00F4               	movwf	??___awmod
  1531  0196  0874               	movf	??___awmod,w
  1532  0197  07F5               	addwf	___awmod@counter,f
  1533  0198                     l1352:
  1534  0198  1FF1               	btfss	___awmod@divisor+1,7
  1535  0199  299B               	goto	u1001
  1536  019A  299C               	goto	u1000
  1537  019B                     u1001:
  1538  019B  298D               	goto	l1348
  1539  019C                     u1000:
  1540  019C                     l1354:
  1541  019C  0871               	movf	___awmod@divisor+1,w
  1542  019D  0273               	subwf	___awmod@dividend+1,w
  1543  019E  1D03               	skipz
  1544  019F  29A2               	goto	u1015
  1545  01A0  0870               	movf	___awmod@divisor,w
  1546  01A1  0272               	subwf	___awmod@dividend,w
  1547  01A2                     u1015:
  1548  01A2  1C03               	skipc
  1549  01A3  29A5               	goto	u1011
  1550  01A4  29A6               	goto	u1010
  1551  01A5                     u1011:
  1552  01A5  29AC               	goto	l1358
  1553  01A6                     u1010:
  1554  01A6                     l1356:
  1555  01A6  0870               	movf	___awmod@divisor,w
  1556  01A7  02F2               	subwf	___awmod@dividend,f
  1557  01A8  0871               	movf	___awmod@divisor+1,w
  1558  01A9  1C03               	skipc
  1559  01AA  03F3               	decf	___awmod@dividend+1,f
  1560  01AB  02F3               	subwf	___awmod@dividend+1,f
  1561  01AC                     l1358:
  1562  01AC  3001               	movlw	1
  1563  01AD                     u1025:
  1564  01AD  1003               	clrc
  1565  01AE  0CF1               	rrf	___awmod@divisor+1,f
  1566  01AF  0CF0               	rrf	___awmod@divisor,f
  1567  01B0  3EFF               	addlw	-1
  1568  01B1  1D03               	skipz
  1569  01B2  29AD               	goto	u1025
  1570  01B3                     l1360:
  1571  01B3  3001               	movlw	1
  1572  01B4  02F5               	subwf	___awmod@counter,f
  1573  01B5  1D03               	btfss	3,2
  1574  01B6  29B8               	goto	u1031
  1575  01B7  29B9               	goto	u1030
  1576  01B8                     u1031:
  1577  01B8  299C               	goto	l1354
  1578  01B9                     u1030:
  1579  01B9                     l1362:
  1580  01B9  0876               	movf	___awmod@sign,w
  1581  01BA  1903               	btfsc	3,2
  1582  01BB  29BD               	goto	u1041
  1583  01BC  29BE               	goto	u1040
  1584  01BD                     u1041:
  1585  01BD  29C3               	goto	l1366
  1586  01BE                     u1040:
  1587  01BE                     l1364:
  1588  01BE  09F2               	comf	___awmod@dividend,f
  1589  01BF  09F3               	comf	___awmod@dividend+1,f
  1590  01C0  0AF2               	incf	___awmod@dividend,f
  1591  01C1  1903               	skipnz
  1592  01C2  0AF3               	incf	___awmod@dividend+1,f
  1593  01C3                     l1366:
  1594  01C3  0873               	movf	___awmod@dividend+1,w
  1595  01C4  00F1               	movwf	?___awmod+1
  1596  01C5  0872               	movf	___awmod@dividend,w
  1597  01C6  00F0               	movwf	?___awmod
  1598  01C7                     l386:
  1599  01C7  0008               	return
  1600  01C8                     __end_of___awmod:
  1601                           
  1602                           	psect	text3
  1603  0228                     __ptext3:	
  1604 ;; *************** function ___awdiv *****************
  1605 ;; Defined at:
  1606 ;;		line 5 in file "C:\Program Files\Microchip\xc8\v2.36\pic\sources\c90\common\awdiv.c"
  1607 ;; Parameters:    Size  Location     Type
  1608 ;;  divisor         2    0[COMMON] int 
  1609 ;;  dividend        2    2[COMMON] int 
  1610 ;; Auto vars:     Size  Location     Type
  1611 ;;  quotient        2    7[COMMON] int 
  1612 ;;  sign            1    6[COMMON] unsigned char 
  1613 ;;  counter         1    5[COMMON] unsigned char 
  1614 ;; Return value:  Size  Location     Type
  1615 ;;                  2    0[COMMON] int 
  1616 ;; Registers used:
  1617 ;;		wreg, status,2, status,0
  1618 ;; Tracked objects:
  1619 ;;		On entry : 0/0
  1620 ;;		On exit  : 0/0
  1621 ;;		Unchanged: 0/0
  1622 ;; Data sizes:     COMMON   BANK0   BANK1   BANK3   BANK2
  1623 ;;      Params:         4       0       0       0       0
  1624 ;;      Locals:         4       0       0       0       0
  1625 ;;      Temps:          1       0       0       0       0
  1626 ;;      Totals:         9       0       0       0       0
  1627 ;;Total ram usage:        9 bytes
  1628 ;; Hardware stack levels used: 1
  1629 ;; This function calls:
  1630 ;;		Nothing
  1631 ;; This function is called by:
  1632 ;;		_itoa
  1633 ;; This function uses a non-reentrant model
  1634 ;;
  1635                           
  1636  0228                     ___awdiv:	
  1637                           ;psect for function ___awdiv
  1638                           
  1639  0228                     l1288:	
  1640                           ;incstack = 0
  1641                           ; Regs used in ___awdiv: [wreg+status,2+status,0]
  1642                           
  1643  0228  01F6               	clrf	___awdiv@sign
  1644  0229                     l1290:
  1645  0229  1FF1               	btfss	___awdiv@divisor+1,7
  1646  022A  2A2C               	goto	u861
  1647  022B  2A2D               	goto	u860
  1648  022C                     u861:
  1649  022C  2A34               	goto	l1296
  1650  022D                     u860:
  1651  022D                     l1292:
  1652  022D  09F0               	comf	___awdiv@divisor,f
  1653  022E  09F1               	comf	___awdiv@divisor+1,f
  1654  022F  0AF0               	incf	___awdiv@divisor,f
  1655  0230  1903               	skipnz
  1656  0231  0AF1               	incf	___awdiv@divisor+1,f
  1657  0232                     l1294:
  1658  0232  01F6               	clrf	___awdiv@sign
  1659  0233  0AF6               	incf	___awdiv@sign,f
  1660  0234                     l1296:
  1661  0234  1FF3               	btfss	___awdiv@dividend+1,7
  1662  0235  2A37               	goto	u871
  1663  0236  2A38               	goto	u870
  1664  0237                     u871:
  1665  0237  2A41               	goto	l1302
  1666  0238                     u870:
  1667  0238                     l1298:
  1668  0238  09F2               	comf	___awdiv@dividend,f
  1669  0239  09F3               	comf	___awdiv@dividend+1,f
  1670  023A  0AF2               	incf	___awdiv@dividend,f
  1671  023B  1903               	skipnz
  1672  023C  0AF3               	incf	___awdiv@dividend+1,f
  1673  023D                     l1300:
  1674  023D  3001               	movlw	1
  1675  023E  00F4               	movwf	??___awdiv
  1676  023F  0874               	movf	??___awdiv,w
  1677  0240  06F6               	xorwf	___awdiv@sign,f
  1678  0241                     l1302:
  1679  0241  01F7               	clrf	___awdiv@quotient
  1680  0242  01F8               	clrf	___awdiv@quotient+1
  1681  0243                     l1304:
  1682  0243  0870               	movf	___awdiv@divisor,w
  1683  0244  0471               	iorwf	___awdiv@divisor+1,w
  1684  0245  1903               	btfsc	3,2
  1685  0246  2A48               	goto	u881
  1686  0247  2A49               	goto	u880
  1687  0248                     u881:
  1688  0248  2A80               	goto	l1324
  1689  0249                     u880:
  1690  0249                     l1306:
  1691  0249  01F5               	clrf	___awdiv@counter
  1692  024A  0AF5               	incf	___awdiv@counter,f
  1693  024B  2A57               	goto	l1312
  1694  024C                     l1308:
  1695  024C  3001               	movlw	1
  1696  024D                     u895:
  1697  024D  1003               	clrc
  1698  024E  0DF0               	rlf	___awdiv@divisor,f
  1699  024F  0DF1               	rlf	___awdiv@divisor+1,f
  1700  0250  3EFF               	addlw	-1
  1701  0251  1D03               	skipz
  1702  0252  2A4D               	goto	u895
  1703  0253                     l1310:
  1704  0253  3001               	movlw	1
  1705  0254  00F4               	movwf	??___awdiv
  1706  0255  0874               	movf	??___awdiv,w
  1707  0256  07F5               	addwf	___awdiv@counter,f
  1708  0257                     l1312:
  1709  0257  1FF1               	btfss	___awdiv@divisor+1,7
  1710  0258  2A5A               	goto	u901
  1711  0259  2A5B               	goto	u900
  1712  025A                     u901:
  1713  025A  2A4C               	goto	l1308
  1714  025B                     u900:
  1715  025B                     l1314:
  1716  025B  3001               	movlw	1
  1717  025C                     u915:
  1718  025C  1003               	clrc
  1719  025D  0DF7               	rlf	___awdiv@quotient,f
  1720  025E  0DF8               	rlf	___awdiv@quotient+1,f
  1721  025F  3EFF               	addlw	-1
  1722  0260  1D03               	skipz
  1723  0261  2A5C               	goto	u915
  1724  0262  0871               	movf	___awdiv@divisor+1,w
  1725  0263  0273               	subwf	___awdiv@dividend+1,w
  1726  0264  1D03               	skipz
  1727  0265  2A68               	goto	u925
  1728  0266  0870               	movf	___awdiv@divisor,w
  1729  0267  0272               	subwf	___awdiv@dividend,w
  1730  0268                     u925:
  1731  0268  1C03               	skipc
  1732  0269  2A6B               	goto	u921
  1733  026A  2A6C               	goto	u920
  1734  026B                     u921:
  1735  026B  2A73               	goto	l1320
  1736  026C                     u920:
  1737  026C                     l1316:
  1738  026C  0870               	movf	___awdiv@divisor,w
  1739  026D  02F2               	subwf	___awdiv@dividend,f
  1740  026E  0871               	movf	___awdiv@divisor+1,w
  1741  026F  1C03               	skipc
  1742  0270  03F3               	decf	___awdiv@dividend+1,f
  1743  0271  02F3               	subwf	___awdiv@dividend+1,f
  1744  0272                     l1318:
  1745  0272  1477               	bsf	___awdiv@quotient,0
  1746  0273                     l1320:
  1747  0273  3001               	movlw	1
  1748  0274                     u935:
  1749  0274  1003               	clrc
  1750  0275  0CF1               	rrf	___awdiv@divisor+1,f
  1751  0276  0CF0               	rrf	___awdiv@divisor,f
  1752  0277  3EFF               	addlw	-1
  1753  0278  1D03               	skipz
  1754  0279  2A74               	goto	u935
  1755  027A                     l1322:
  1756  027A  3001               	movlw	1
  1757  027B  02F5               	subwf	___awdiv@counter,f
  1758  027C  1D03               	btfss	3,2
  1759  027D  2A7F               	goto	u941
  1760  027E  2A80               	goto	u940
  1761  027F                     u941:
  1762  027F  2A5B               	goto	l1314
  1763  0280                     u940:
  1764  0280                     l1324:
  1765  0280  0876               	movf	___awdiv@sign,w
  1766  0281  1903               	btfsc	3,2
  1767  0282  2A84               	goto	u951
  1768  0283  2A85               	goto	u950
  1769  0284                     u951:
  1770  0284  2A8A               	goto	l1328
  1771  0285                     u950:
  1772  0285                     l1326:
  1773  0285  09F7               	comf	___awdiv@quotient,f
  1774  0286  09F8               	comf	___awdiv@quotient+1,f
  1775  0287  0AF7               	incf	___awdiv@quotient,f
  1776  0288  1903               	skipnz
  1777  0289  0AF8               	incf	___awdiv@quotient+1,f
  1778  028A                     l1328:
  1779  028A  0878               	movf	___awdiv@quotient+1,w
  1780  028B  00F1               	movwf	?___awdiv+1
  1781  028C  0877               	movf	___awdiv@quotient,w
  1782  028D  00F0               	movwf	?___awdiv
  1783  028E                     l373:
  1784  028E  0008               	return
  1785  028F                     __end_of___awdiv:
  1786                           
  1787                           	psect	text4
  1788  011E                     __ptext4:	
  1789 ;; *************** function _dist3 *****************
  1790 ;; Defined at:
  1791 ;;		line 47 in file "./sensor.h"
  1792 ;; Parameters:    Size  Location     Type
  1793 ;;		None
  1794 ;; Auto vars:     Size  Location     Type
  1795 ;;  distance3       4   31[BANK0 ] float 
  1796 ;; Return value:  Size  Location     Type
  1797 ;;                  4   26[BANK0 ] float 
  1798 ;; Registers used:
  1799 ;;		wreg, status,2, status,0, btemp+1, pclath, cstack
  1800 ;; Tracked objects:
  1801 ;;		On entry : 0/0
  1802 ;;		On exit  : 0/0
  1803 ;;		Unchanged: 0/0
  1804 ;; Data sizes:     COMMON   BANK0   BANK1   BANK3   BANK2
  1805 ;;      Params:         0       4       0       0       0
  1806 ;;      Locals:         0       4       0       0       0
  1807 ;;      Temps:          0       1       0       0       0
  1808 ;;      Totals:         0       9       0       0       0
  1809 ;;Total ram usage:        9 bytes
  1810 ;; Hardware stack levels used: 1
  1811 ;; Hardware stack levels required when called: 1
  1812 ;; This function calls:
  1813 ;;		___fldiv
  1814 ;;		___xxtofl
  1815 ;; This function is called by:
  1816 ;;		_main
  1817 ;; This function uses a non-reentrant model
  1818 ;;
  1819                           
  1820  011E                     _dist3:	
  1821                           ;psect for function _dist3
  1822                           
  1823  011E                     l1596:	
  1824                           ;incstack = 0
  1825                           ; Regs used in _dist3: [wreg+status,2+status,0+btemp+1+pclath+cstack]
  1826                           
  1827  011E                     l1598:
  1828                           
  1829                           ;./sensor.h: 50:     TMR1 = 0;
  1830  011E  1283               	bcf	3,5	;RP0=0, select bank0
  1831  011F  1303               	bcf	3,6	;RP1=0, select bank0
  1832  0120  018E               	clrf	14	;volatile
  1833  0121  018F               	clrf	15	;volatile
  1834  0122                     l1600:
  1835                           
  1836                           ;./sensor.h: 51:     RC5 = 1;
  1837  0122  1687               	bsf	7,5	;volatile
  1838  0123                     l1602:
  1839                           
  1840                           ;./sensor.h: 52:     _delay((unsigned long)((10)*(4000000/4000000.0)));
  1841  0123  3002               	movlw	2
  1842  0124  1283               	bcf	3,5	;RP0=0, select bank0
  1843  0125  1303               	bcf	3,6	;RP1=0, select bank0
  1844  0126  00BE               	movwf	??_dist3
  1845  0127                     u1777:
  1846  0127  0BBE               	decfsz	??_dist3,f
  1847  0128  2927               	goto	u1777
  1848  0129  0000               	nop
  1849  012A                     l1604:
  1850                           
  1851                           ;./sensor.h: 53:     RC5 = 0;
  1852  012A  1283               	bcf	3,5	;RP0=0, select bank0
  1853  012B  1303               	bcf	3,6	;RP1=0, select bank0
  1854  012C  1287               	bcf	7,5	;volatile
  1855  012D                     l85:	
  1856                           ;./sensor.h: 54:     while(!RC4);
  1857                           
  1858  012D  1E07               	btfss	7,4	;volatile
  1859  012E  2930               	goto	u1521
  1860  012F  2931               	goto	u1520
  1861  0130                     u1521:
  1862  0130  292D               	goto	l85
  1863  0131                     u1520:
  1864  0131                     l87:
  1865                           
  1866                           ;./sensor.h: 55:     TMR1ON = 1;
  1867  0131  1410               	bsf	16,0	;volatile
  1868  0132                     l88:	
  1869                           ;./sensor.h: 56:     while(RC4);
  1870                           
  1871  0132  1A07               	btfsc	7,4	;volatile
  1872  0133  2935               	goto	u1531
  1873  0134  2936               	goto	u1530
  1874  0135                     u1531:
  1875  0135  2932               	goto	l88
  1876  0136                     u1530:
  1877  0136                     l90:
  1878                           
  1879                           ;./sensor.h: 57:     TMR1ON = 0;
  1880  0136  1010               	bcf	16,0	;volatile
  1881  0137                     l1606:
  1882                           
  1883                           ;./sensor.h: 58:     distance3 = TMR1/58.8;
  1884  0137  3042               	movlw	66
  1885  0138  00A3               	movwf	___fldiv@a+3
  1886  0139  306B               	movlw	107
  1887  013A  00A2               	movwf	___fldiv@a+2
  1888  013B  3033               	movlw	51
  1889  013C  00A1               	movwf	___fldiv@a+1
  1890  013D  3033               	movlw	51
  1891  013E  00A0               	movwf	___fldiv@a
  1892  013F  080E               	movf	14,w	;volatile
  1893  0140  00F0               	movwf	___xxtofl@val
  1894  0141  080F               	movf	15,w	;volatile
  1895  0142  00F1               	movwf	___xxtofl@val+1
  1896  0143  01F2               	clrf	___xxtofl@val+2
  1897  0144  01F3               	clrf	___xxtofl@val+3
  1898  0145  3000               	movlw	0
  1899  0146  120A  118A  2331  120A  118A  	fcall	___xxtofl
  1900  014B  0873               	movf	?___xxtofl+3,w
  1901  014C  1283               	bcf	3,5	;RP0=0, select bank0
  1902  014D  1303               	bcf	3,6	;RP1=0, select bank0
  1903  014E  00A7               	movwf	___fldiv@b+3
  1904  014F  0872               	movf	?___xxtofl+2,w
  1905  0150  00A6               	movwf	___fldiv@b+2
  1906  0151  0871               	movf	?___xxtofl+1,w
  1907  0152  00A5               	movwf	___fldiv@b+1
  1908  0153  0870               	movf	?___xxtofl,w
  1909  0154  00A4               	movwf	___fldiv@b
  1910  0155  120A  118A  23EB  120A  118A  	fcall	___fldiv
  1911  015A  1283               	bcf	3,5	;RP0=0, select bank0
  1912  015B  1303               	bcf	3,6	;RP1=0, select bank0
  1913  015C  0823               	movf	?___fldiv+3,w
  1914  015D  00C2               	movwf	dist3@distance3+3
  1915  015E  0822               	movf	?___fldiv+2,w
  1916  015F  00C1               	movwf	dist3@distance3+2
  1917  0160  0821               	movf	?___fldiv+1,w
  1918  0161  00C0               	movwf	dist3@distance3+1
  1919  0162  0820               	movf	?___fldiv,w
  1920  0163  00BF               	movwf	dist3@distance3
  1921  0164                     l1608:
  1922                           
  1923                           ;./sensor.h: 59:     T1CKPS0=0;
  1924  0164  1210               	bcf	16,4	;volatile
  1925  0165                     l1610:
  1926                           
  1927                           ;./sensor.h: 60:     T1CKPS1=0;
  1928  0165  1290               	bcf	16,5	;volatile
  1929  0166                     l1612:
  1930                           
  1931                           ;./sensor.h: 62:     return distance3;
  1932  0166  0842               	movf	dist3@distance3+3,w
  1933  0167  00BD               	movwf	?_dist3+3
  1934  0168  0841               	movf	dist3@distance3+2,w
  1935  0169  00BC               	movwf	?_dist3+2
  1936  016A  0840               	movf	dist3@distance3+1,w
  1937  016B  00BB               	movwf	?_dist3+1
  1938  016C  083F               	movf	dist3@distance3,w
  1939  016D  00BA               	movwf	?_dist3
  1940  016E                     l91:
  1941  016E  0008               	return
  1942  016F                     __end_of_dist3:
  1943                           
  1944                           	psect	text5
  1945  00CD                     __ptext5:	
  1946 ;; *************** function _dist2 *****************
  1947 ;; Defined at:
  1948 ;;		line 29 in file "./sensor.h"
  1949 ;; Parameters:    Size  Location     Type
  1950 ;;		None
  1951 ;; Auto vars:     Size  Location     Type
  1952 ;;  distance2       4   31[BANK0 ] float 
  1953 ;; Return value:  Size  Location     Type
  1954 ;;                  4   26[BANK0 ] float 
  1955 ;; Registers used:
  1956 ;;		wreg, status,2, status,0, btemp+1, pclath, cstack
  1957 ;; Tracked objects:
  1958 ;;		On entry : 0/0
  1959 ;;		On exit  : 0/0
  1960 ;;		Unchanged: 0/0
  1961 ;; Data sizes:     COMMON   BANK0   BANK1   BANK3   BANK2
  1962 ;;      Params:         0       4       0       0       0
  1963 ;;      Locals:         0       4       0       0       0
  1964 ;;      Temps:          0       1       0       0       0
  1965 ;;      Totals:         0       9       0       0       0
  1966 ;;Total ram usage:        9 bytes
  1967 ;; Hardware stack levels used: 1
  1968 ;; Hardware stack levels required when called: 1
  1969 ;; This function calls:
  1970 ;;		___fldiv
  1971 ;;		___xxtofl
  1972 ;; This function is called by:
  1973 ;;		_main
  1974 ;; This function uses a non-reentrant model
  1975 ;;
  1976                           
  1977  00CD                     _dist2:	
  1978                           ;psect for function _dist2
  1979                           
  1980  00CD                     l1576:	
  1981                           ;incstack = 0
  1982                           ; Regs used in _dist2: [wreg+status,2+status,0+btemp+1+pclath+cstack]
  1983                           
  1984  00CD                     l1578:
  1985                           
  1986                           ;./sensor.h: 32:     TMR1 = 0;
  1987  00CD  1283               	bcf	3,5	;RP0=0, select bank0
  1988  00CE  1303               	bcf	3,6	;RP1=0, select bank0
  1989  00CF  018E               	clrf	14	;volatile
  1990  00D0  018F               	clrf	15	;volatile
  1991  00D1                     l1580:
  1992                           
  1993                           ;./sensor.h: 33:     RD5 = 1;
  1994  00D1  1688               	bsf	8,5	;volatile
  1995  00D2                     l1582:
  1996                           
  1997                           ;./sensor.h: 34:     _delay((unsigned long)((10)*(4000000/4000000.0)));
  1998  00D2  3002               	movlw	2
  1999  00D3  1283               	bcf	3,5	;RP0=0, select bank0
  2000  00D4  1303               	bcf	3,6	;RP1=0, select bank0
  2001  00D5  00BE               	movwf	??_dist2
  2002  00D6                     u1787:
  2003  00D6  0BBE               	decfsz	??_dist2,f
  2004  00D7  28D6               	goto	u1787
  2005  00D8  0000               	nop
  2006  00D9                     l1584:
  2007                           
  2008                           ;./sensor.h: 35:     RD5 = 0;
  2009  00D9  1283               	bcf	3,5	;RP0=0, select bank0
  2010  00DA  1303               	bcf	3,6	;RP1=0, select bank0
  2011  00DB  1288               	bcf	8,5	;volatile
  2012  00DC                     l76:	
  2013                           ;./sensor.h: 36:     while(!RD4);
  2014                           
  2015  00DC  1E08               	btfss	8,4	;volatile
  2016  00DD  28DF               	goto	u1501
  2017  00DE  28E0               	goto	u1500
  2018  00DF                     u1501:
  2019  00DF  28DC               	goto	l76
  2020  00E0                     u1500:
  2021  00E0                     l78:
  2022                           
  2023                           ;./sensor.h: 37:     TMR1ON = 1;
  2024  00E0  1410               	bsf	16,0	;volatile
  2025  00E1                     l79:	
  2026                           ;./sensor.h: 38:     while(RD4);
  2027                           
  2028  00E1  1A08               	btfsc	8,4	;volatile
  2029  00E2  28E4               	goto	u1511
  2030  00E3  28E5               	goto	u1510
  2031  00E4                     u1511:
  2032  00E4  28E1               	goto	l79
  2033  00E5                     u1510:
  2034  00E5                     l81:
  2035                           
  2036                           ;./sensor.h: 39:     TMR1ON = 0;
  2037  00E5  1010               	bcf	16,0	;volatile
  2038  00E6                     l1586:
  2039                           
  2040                           ;./sensor.h: 40:     distance2 = TMR1/58.8;
  2041  00E6  3042               	movlw	66
  2042  00E7  00A3               	movwf	___fldiv@a+3
  2043  00E8  306B               	movlw	107
  2044  00E9  00A2               	movwf	___fldiv@a+2
  2045  00EA  3033               	movlw	51
  2046  00EB  00A1               	movwf	___fldiv@a+1
  2047  00EC  3033               	movlw	51
  2048  00ED  00A0               	movwf	___fldiv@a
  2049  00EE  080E               	movf	14,w	;volatile
  2050  00EF  00F0               	movwf	___xxtofl@val
  2051  00F0  080F               	movf	15,w	;volatile
  2052  00F1  00F1               	movwf	___xxtofl@val+1
  2053  00F2  01F2               	clrf	___xxtofl@val+2
  2054  00F3  01F3               	clrf	___xxtofl@val+3
  2055  00F4  3000               	movlw	0
  2056  00F5  120A  118A  2331  120A  118A  	fcall	___xxtofl
  2057  00FA  0873               	movf	?___xxtofl+3,w
  2058  00FB  1283               	bcf	3,5	;RP0=0, select bank0
  2059  00FC  1303               	bcf	3,6	;RP1=0, select bank0
  2060  00FD  00A7               	movwf	___fldiv@b+3
  2061  00FE  0872               	movf	?___xxtofl+2,w
  2062  00FF  00A6               	movwf	___fldiv@b+2
  2063  0100  0871               	movf	?___xxtofl+1,w
  2064  0101  00A5               	movwf	___fldiv@b+1
  2065  0102  0870               	movf	?___xxtofl,w
  2066  0103  00A4               	movwf	___fldiv@b
  2067  0104  120A  118A  23EB  120A  118A  	fcall	___fldiv
  2068  0109  1283               	bcf	3,5	;RP0=0, select bank0
  2069  010A  1303               	bcf	3,6	;RP1=0, select bank0
  2070  010B  0823               	movf	?___fldiv+3,w
  2071  010C  00C2               	movwf	dist2@distance2+3
  2072  010D  0822               	movf	?___fldiv+2,w
  2073  010E  00C1               	movwf	dist2@distance2+2
  2074  010F  0821               	movf	?___fldiv+1,w
  2075  0110  00C0               	movwf	dist2@distance2+1
  2076  0111  0820               	movf	?___fldiv,w
  2077  0112  00BF               	movwf	dist2@distance2
  2078  0113                     l1588:
  2079                           
  2080                           ;./sensor.h: 41:     T1CKPS0 = 0;
  2081  0113  1210               	bcf	16,4	;volatile
  2082  0114                     l1590:
  2083                           
  2084                           ;./sensor.h: 42:     T1CKPS1 = 0;
  2085  0114  1290               	bcf	16,5	;volatile
  2086  0115                     l1592:
  2087                           
  2088                           ;./sensor.h: 44:     return distance2;
  2089  0115  0842               	movf	dist2@distance2+3,w
  2090  0116  00BD               	movwf	?_dist2+3
  2091  0117  0841               	movf	dist2@distance2+2,w
  2092  0118  00BC               	movwf	?_dist2+2
  2093  0119  0840               	movf	dist2@distance2+1,w
  2094  011A  00BB               	movwf	?_dist2+1
  2095  011B  083F               	movf	dist2@distance2,w
  2096  011C  00BA               	movwf	?_dist2
  2097  011D                     l82:
  2098  011D  0008               	return
  2099  011E                     __end_of_dist2:
  2100                           
  2101                           	psect	text6
  2102  007C                     __ptext6:	
  2103 ;; *************** function _dist1 *****************
  2104 ;; Defined at:
  2105 ;;		line 11 in file "./sensor.h"
  2106 ;; Parameters:    Size  Location     Type
  2107 ;;		None
  2108 ;; Auto vars:     Size  Location     Type
  2109 ;;  distance1       4   31[BANK0 ] float 
  2110 ;; Return value:  Size  Location     Type
  2111 ;;                  4   26[BANK0 ] float 
  2112 ;; Registers used:
  2113 ;;		wreg, status,2, status,0, btemp+1, pclath, cstack
  2114 ;; Tracked objects:
  2115 ;;		On entry : 0/0
  2116 ;;		On exit  : 0/0
  2117 ;;		Unchanged: 0/0
  2118 ;; Data sizes:     COMMON   BANK0   BANK1   BANK3   BANK2
  2119 ;;      Params:         0       4       0       0       0
  2120 ;;      Locals:         0       4       0       0       0
  2121 ;;      Temps:          0       1       0       0       0
  2122 ;;      Totals:         0       9       0       0       0
  2123 ;;Total ram usage:        9 bytes
  2124 ;; Hardware stack levels used: 1
  2125 ;; Hardware stack levels required when called: 1
  2126 ;; This function calls:
  2127 ;;		___fldiv
  2128 ;;		___xxtofl
  2129 ;; This function is called by:
  2130 ;;		_main
  2131 ;; This function uses a non-reentrant model
  2132 ;;
  2133                           
  2134  007C                     _dist1:	
  2135                           ;psect for function _dist1
  2136                           
  2137  007C                     l1556:	
  2138                           ;incstack = 0
  2139                           ; Regs used in _dist1: [wreg+status,2+status,0+btemp+1+pclath+cstack]
  2140                           
  2141  007C                     l1558:
  2142                           
  2143                           ;./sensor.h: 14:     TMR1 = 0;
  2144  007C  1283               	bcf	3,5	;RP0=0, select bank0
  2145  007D  1303               	bcf	3,6	;RP1=0, select bank0
  2146  007E  018E               	clrf	14	;volatile
  2147  007F  018F               	clrf	15	;volatile
  2148  0080                     l1560:
  2149                           
  2150                           ;./sensor.h: 15:     RD7 = 1;
  2151  0080  1788               	bsf	8,7	;volatile
  2152  0081                     l1562:
  2153                           
  2154                           ;./sensor.h: 16:     _delay((unsigned long)((10)*(4000000/4000000.0)));
  2155  0081  3002               	movlw	2
  2156  0082  1283               	bcf	3,5	;RP0=0, select bank0
  2157  0083  1303               	bcf	3,6	;RP1=0, select bank0
  2158  0084  00BE               	movwf	??_dist1
  2159  0085                     u1797:
  2160  0085  0BBE               	decfsz	??_dist1,f
  2161  0086  2885               	goto	u1797
  2162  0087  0000               	nop
  2163  0088                     l1564:
  2164                           
  2165                           ;./sensor.h: 17:     RD7 = 0;
  2166  0088  1283               	bcf	3,5	;RP0=0, select bank0
  2167  0089  1303               	bcf	3,6	;RP1=0, select bank0
  2168  008A  1388               	bcf	8,7	;volatile
  2169  008B                     l67:	
  2170                           ;./sensor.h: 18:     while(!RD6);
  2171                           
  2172  008B  1F08               	btfss	8,6	;volatile
  2173  008C  288E               	goto	u1481
  2174  008D  288F               	goto	u1480
  2175  008E                     u1481:
  2176  008E  288B               	goto	l67
  2177  008F                     u1480:
  2178  008F                     l69:
  2179                           
  2180                           ;./sensor.h: 19:     TMR1ON = 1;
  2181  008F  1410               	bsf	16,0	;volatile
  2182  0090                     l70:	
  2183                           ;./sensor.h: 20:     while(RD6);
  2184                           
  2185  0090  1B08               	btfsc	8,6	;volatile
  2186  0091  2893               	goto	u1491
  2187  0092  2894               	goto	u1490
  2188  0093                     u1491:
  2189  0093  2890               	goto	l70
  2190  0094                     u1490:
  2191  0094                     l72:
  2192                           
  2193                           ;./sensor.h: 21:     TMR1ON = 0;
  2194  0094  1010               	bcf	16,0	;volatile
  2195  0095                     l1566:
  2196                           
  2197                           ;./sensor.h: 22:     distance1 = TMR1/58.8;
  2198  0095  3042               	movlw	66
  2199  0096  00A3               	movwf	___fldiv@a+3
  2200  0097  306B               	movlw	107
  2201  0098  00A2               	movwf	___fldiv@a+2
  2202  0099  3033               	movlw	51
  2203  009A  00A1               	movwf	___fldiv@a+1
  2204  009B  3033               	movlw	51
  2205  009C  00A0               	movwf	___fldiv@a
  2206  009D  080E               	movf	14,w	;volatile
  2207  009E  00F0               	movwf	___xxtofl@val
  2208  009F  080F               	movf	15,w	;volatile
  2209  00A0  00F1               	movwf	___xxtofl@val+1
  2210  00A1  01F2               	clrf	___xxtofl@val+2
  2211  00A2  01F3               	clrf	___xxtofl@val+3
  2212  00A3  3000               	movlw	0
  2213  00A4  120A  118A  2331  120A  118A  	fcall	___xxtofl
  2214  00A9  0873               	movf	?___xxtofl+3,w
  2215  00AA  1283               	bcf	3,5	;RP0=0, select bank0
  2216  00AB  1303               	bcf	3,6	;RP1=0, select bank0
  2217  00AC  00A7               	movwf	___fldiv@b+3
  2218  00AD  0872               	movf	?___xxtofl+2,w
  2219  00AE  00A6               	movwf	___fldiv@b+2
  2220  00AF  0871               	movf	?___xxtofl+1,w
  2221  00B0  00A5               	movwf	___fldiv@b+1
  2222  00B1  0870               	movf	?___xxtofl,w
  2223  00B2  00A4               	movwf	___fldiv@b
  2224  00B3  120A  118A  23EB  120A  118A  	fcall	___fldiv
  2225  00B8  1283               	bcf	3,5	;RP0=0, select bank0
  2226  00B9  1303               	bcf	3,6	;RP1=0, select bank0
  2227  00BA  0823               	movf	?___fldiv+3,w
  2228  00BB  00C2               	movwf	dist1@distance1+3
  2229  00BC  0822               	movf	?___fldiv+2,w
  2230  00BD  00C1               	movwf	dist1@distance1+2
  2231  00BE  0821               	movf	?___fldiv+1,w
  2232  00BF  00C0               	movwf	dist1@distance1+1
  2233  00C0  0820               	movf	?___fldiv,w
  2234  00C1  00BF               	movwf	dist1@distance1
  2235  00C2                     l1568:
  2236                           
  2237                           ;./sensor.h: 23:     T1CKPS0 = 0;
  2238  00C2  1210               	bcf	16,4	;volatile
  2239  00C3                     l1570:
  2240                           
  2241                           ;./sensor.h: 24:     T1CKPS1 = 0;
  2242  00C3  1290               	bcf	16,5	;volatile
  2243  00C4                     l1572:
  2244                           
  2245                           ;./sensor.h: 26:     return distance1;
  2246  00C4  0842               	movf	dist1@distance1+3,w
  2247  00C5  00BD               	movwf	?_dist1+3
  2248  00C6  0841               	movf	dist1@distance1+2,w
  2249  00C7  00BC               	movwf	?_dist1+2
  2250  00C8  0840               	movf	dist1@distance1+1,w
  2251  00C9  00BB               	movwf	?_dist1+1
  2252  00CA  083F               	movf	dist1@distance1,w
  2253  00CB  00BA               	movwf	?_dist1
  2254  00CC                     l73:
  2255  00CC  0008               	return
  2256  00CD                     __end_of_dist1:
  2257                           
  2258                           	psect	text7
  2259  0331                     __ptext7:	
  2260 ;; *************** function ___xxtofl *****************
  2261 ;; Defined at:
  2262 ;;		line 10 in file "C:\Program Files\Microchip\xc8\v2.36\pic\sources\c90\common\xxtofl.c"
  2263 ;; Parameters:    Size  Location     Type
  2264 ;;  sign            1    wreg     unsigned char 
  2265 ;;  val             4    0[COMMON] long 
  2266 ;; Auto vars:     Size  Location     Type
  2267 ;;  sign            1    8[COMMON] unsigned char 
  2268 ;;  arg             4   10[COMMON] unsigned long 
  2269 ;;  exp             1    9[COMMON] unsigned char 
  2270 ;; Return value:  Size  Location     Type
  2271 ;;                  4    0[COMMON] unsigned char 
  2272 ;; Registers used:
  2273 ;;		wreg, status,2, status,0
  2274 ;; Tracked objects:
  2275 ;;		On entry : 0/0
  2276 ;;		On exit  : 0/0
  2277 ;;		Unchanged: 0/0
  2278 ;; Data sizes:     COMMON   BANK0   BANK1   BANK3   BANK2
  2279 ;;      Params:         4       0       0       0       0
  2280 ;;      Locals:         6       0       0       0       0
  2281 ;;      Temps:          4       0       0       0       0
  2282 ;;      Totals:        14       0       0       0       0
  2283 ;;Total ram usage:       14 bytes
  2284 ;; Hardware stack levels used: 1
  2285 ;; This function calls:
  2286 ;;		Nothing
  2287 ;; This function is called by:
  2288 ;;		_dist1
  2289 ;;		_dist2
  2290 ;;		_dist3
  2291 ;; This function uses a non-reentrant model
  2292 ;;
  2293                           
  2294  0331                     ___xxtofl:	
  2295                           ;psect for function ___xxtofl
  2296                           
  2297                           
  2298                           ;incstack = 0
  2299                           ; Regs used in ___xxtofl: [wreg+status,2+status,0]
  2300                           ;___xxtofl@sign stored from wreg
  2301  0331  00F8               	movwf	___xxtofl@sign
  2302  0332                     l1512:
  2303  0332  0878               	movf	___xxtofl@sign,w
  2304  0333  1903               	btfsc	3,2
  2305  0334  2B36               	goto	u1341
  2306  0335  2B37               	goto	u1340
  2307  0336                     u1341:
  2308  0336  2B4B               	goto	l1518
  2309  0337                     u1340:
  2310  0337                     l1514:
  2311  0337  1FF3               	btfss	___xxtofl@val+3,7
  2312  0338  2B3A               	goto	u1351
  2313  0339  2B3B               	goto	u1350
  2314  033A                     u1351:
  2315  033A  2B4B               	goto	l1518
  2316  033B                     u1350:
  2317  033B                     l1516:
  2318  033B  0970               	comf	___xxtofl@val,w
  2319  033C  00FA               	movwf	___xxtofl@arg
  2320  033D  0971               	comf	___xxtofl@val+1,w
  2321  033E  00FB               	movwf	___xxtofl@arg+1
  2322  033F  0972               	comf	___xxtofl@val+2,w
  2323  0340  00FC               	movwf	___xxtofl@arg+2
  2324  0341  0973               	comf	___xxtofl@val+3,w
  2325  0342  00FD               	movwf	___xxtofl@arg+3
  2326  0343  0AFA               	incf	___xxtofl@arg,f
  2327  0344  1903               	skipnz
  2328  0345  0AFB               	incf	___xxtofl@arg+1,f
  2329  0346  1903               	skipnz
  2330  0347  0AFC               	incf	___xxtofl@arg+2,f
  2331  0348  1903               	skipnz
  2332  0349  0AFD               	incf	___xxtofl@arg+3,f
  2333  034A  2B53               	goto	l653
  2334  034B                     l1518:
  2335  034B  0873               	movf	___xxtofl@val+3,w
  2336  034C  00FD               	movwf	___xxtofl@arg+3
  2337  034D  0872               	movf	___xxtofl@val+2,w
  2338  034E  00FC               	movwf	___xxtofl@arg+2
  2339  034F  0871               	movf	___xxtofl@val+1,w
  2340  0350  00FB               	movwf	___xxtofl@arg+1
  2341  0351  0870               	movf	___xxtofl@val,w
  2342  0352  00FA               	movwf	___xxtofl@arg
  2343  0353                     l653:
  2344  0353  0873               	movf	___xxtofl@val+3,w
  2345  0354  0472               	iorwf	___xxtofl@val+2,w
  2346  0355  0471               	iorwf	___xxtofl@val+1,w
  2347  0356  0470               	iorwf	___xxtofl@val,w
  2348  0357  1D03               	skipz
  2349  0358  2B5A               	goto	u1361
  2350  0359  2B5B               	goto	u1360
  2351  035A                     u1361:
  2352  035A  2B64               	goto	l1524
  2353  035B                     u1360:
  2354  035B                     l1520:
  2355  035B  3000               	movlw	0
  2356  035C  00F3               	movwf	?___xxtofl+3
  2357  035D  3000               	movlw	0
  2358  035E  00F2               	movwf	?___xxtofl+2
  2359  035F  3000               	movlw	0
  2360  0360  00F1               	movwf	?___xxtofl+1
  2361  0361  3000               	movlw	0
  2362  0362  00F0               	movwf	?___xxtofl
  2363  0363  2BEA               	goto	l655
  2364  0364                     l1524:
  2365  0364  3096               	movlw	150
  2366  0365  00F4               	movwf	??___xxtofl
  2367  0366  0874               	movf	??___xxtofl,w
  2368  0367  00F9               	movwf	___xxtofl@exp
  2369  0368  2B76               	goto	l1528
  2370  0369                     l1526:
  2371  0369  3001               	movlw	1
  2372  036A  00F4               	movwf	??___xxtofl
  2373  036B  0874               	movf	??___xxtofl,w
  2374  036C  07F9               	addwf	___xxtofl@exp,f
  2375  036D  3001               	movlw	1
  2376  036E                     u1375:
  2377  036E  1003               	clrc
  2378  036F  0CFD               	rrf	___xxtofl@arg+3,f
  2379  0370  0CFC               	rrf	___xxtofl@arg+2,f
  2380  0371  0CFB               	rrf	___xxtofl@arg+1,f
  2381  0372  0CFA               	rrf	___xxtofl@arg,f
  2382  0373  3EFF               	addlw	-1
  2383  0374  1D03               	skipz
  2384  0375  2B6E               	goto	u1375
  2385  0376                     l1528:
  2386  0376  30FE               	movlw	254
  2387  0377  057D               	andwf	___xxtofl@arg+3,w
  2388  0378  1D03               	btfss	3,2
  2389  0379  2B7B               	goto	u1381
  2390  037A  2B7C               	goto	u1380
  2391  037B                     u1381:
  2392  037B  2B69               	goto	l1526
  2393  037C                     u1380:
  2394  037C  2B98               	goto	l659
  2395  037D                     l1530:
  2396  037D  3001               	movlw	1
  2397  037E  00F4               	movwf	??___xxtofl
  2398  037F  0874               	movf	??___xxtofl,w
  2399  0380  07F9               	addwf	___xxtofl@exp,f
  2400  0381                     l1532:
  2401  0381  3001               	movlw	1
  2402  0382  07FA               	addwf	___xxtofl@arg,f
  2403  0383  3000               	movlw	0
  2404  0384  1803               	skipnc
  2405  0385  3001               	movlw	1
  2406  0386  07FB               	addwf	___xxtofl@arg+1,f
  2407  0387  3000               	movlw	0
  2408  0388  1803               	skipnc
  2409  0389  3001               	movlw	1
  2410  038A  07FC               	addwf	___xxtofl@arg+2,f
  2411  038B  3000               	movlw	0
  2412  038C  1803               	skipnc
  2413  038D  3001               	movlw	1
  2414  038E  07FD               	addwf	___xxtofl@arg+3,f
  2415  038F                     l1534:
  2416  038F  3001               	movlw	1
  2417  0390                     u1395:
  2418  0390  1003               	clrc
  2419  0391  0CFD               	rrf	___xxtofl@arg+3,f
  2420  0392  0CFC               	rrf	___xxtofl@arg+2,f
  2421  0393  0CFB               	rrf	___xxtofl@arg+1,f
  2422  0394  0CFA               	rrf	___xxtofl@arg,f
  2423  0395  3EFF               	addlw	-1
  2424  0396  1D03               	skipz
  2425  0397  2B90               	goto	u1395
  2426  0398                     l659:
  2427  0398  30FF               	movlw	255
  2428  0399  057D               	andwf	___xxtofl@arg+3,w
  2429  039A  1D03               	btfss	3,2
  2430  039B  2B9D               	goto	u1401
  2431  039C  2B9E               	goto	u1400
  2432  039D                     u1401:
  2433  039D  2B7D               	goto	l1530
  2434  039E                     u1400:
  2435  039E  2BAA               	goto	l1538
  2436  039F                     l1536:
  2437  039F  3001               	movlw	1
  2438  03A0  02F9               	subwf	___xxtofl@exp,f
  2439  03A1  3001               	movlw	1
  2440  03A2  00F4               	movwf	??___xxtofl
  2441  03A3                     u1415:
  2442  03A3  1003               	clrc
  2443  03A4  0DFA               	rlf	___xxtofl@arg,f
  2444  03A5  0DFB               	rlf	___xxtofl@arg+1,f
  2445  03A6  0DFC               	rlf	___xxtofl@arg+2,f
  2446  03A7  0DFD               	rlf	___xxtofl@arg+3,f
  2447  03A8  0BF4               	decfsz	??___xxtofl,f
  2448  03A9  2BA3               	goto	u1415
  2449  03AA                     l1538:
  2450  03AA  1BFC               	btfsc	___xxtofl@arg+2,7
  2451  03AB  2BAD               	goto	u1421
  2452  03AC  2BAE               	goto	u1420
  2453  03AD                     u1421:
  2454  03AD  2BB4               	goto	l666
  2455  03AE                     u1420:
  2456  03AE                     l1540:
  2457  03AE  3002               	movlw	2
  2458  03AF  0279               	subwf	___xxtofl@exp,w
  2459  03B0  1803               	skipnc
  2460  03B1  2BB3               	goto	u1431
  2461  03B2  2BB4               	goto	u1430
  2462  03B3                     u1431:
  2463  03B3  2B9F               	goto	l1536
  2464  03B4                     u1430:
  2465  03B4                     l666:
  2466  03B4  1879               	btfsc	___xxtofl@exp,0
  2467  03B5  2BB7               	goto	u1441
  2468  03B6  2BB8               	goto	u1440
  2469  03B7                     u1441:
  2470  03B7  2BC0               	goto	l667
  2471  03B8                     u1440:
  2472  03B8                     l1542:
  2473  03B8  30FF               	movlw	255
  2474  03B9  05FA               	andwf	___xxtofl@arg,f
  2475  03BA  30FF               	movlw	255
  2476  03BB  05FB               	andwf	___xxtofl@arg+1,f
  2477  03BC  307F               	movlw	127
  2478  03BD  05FC               	andwf	___xxtofl@arg+2,f
  2479  03BE  30FF               	movlw	255
  2480  03BF  05FD               	andwf	___xxtofl@arg+3,f
  2481  03C0                     l667:
  2482  03C0  1003               	clrc
  2483  03C1  0CF9               	rrf	___xxtofl@exp,f
  2484  03C2                     l1544:
  2485  03C2  0879               	movf	___xxtofl@exp,w
  2486  03C3  00F4               	movwf	??___xxtofl
  2487  03C4  01F5               	clrf	??___xxtofl+1
  2488  03C5  01F6               	clrf	??___xxtofl+2
  2489  03C6  01F7               	clrf	??___xxtofl+3
  2490  03C7  3018               	movlw	24
  2491  03C8                     u1455:
  2492  03C8  1003               	clrc
  2493  03C9  0DF4               	rlf	??___xxtofl,f
  2494  03CA  0DF5               	rlf	??___xxtofl+1,f
  2495  03CB  0DF6               	rlf	??___xxtofl+2,f
  2496  03CC  0DF7               	rlf	??___xxtofl+3,f
  2497  03CD                     u1450:
  2498  03CD  3EFF               	addlw	-1
  2499  03CE  1D03               	skipz
  2500  03CF  2BC8               	goto	u1455
  2501  03D0  0874               	movf	??___xxtofl,w
  2502  03D1  04FA               	iorwf	___xxtofl@arg,f
  2503  03D2  0875               	movf	??___xxtofl+1,w
  2504  03D3  04FB               	iorwf	___xxtofl@arg+1,f
  2505  03D4  0876               	movf	??___xxtofl+2,w
  2506  03D5  04FC               	iorwf	___xxtofl@arg+2,f
  2507  03D6  0877               	movf	??___xxtofl+3,w
  2508  03D7  04FD               	iorwf	___xxtofl@arg+3,f
  2509  03D8                     l1546:
  2510  03D8  0878               	movf	___xxtofl@sign,w
  2511  03D9  1903               	btfsc	3,2
  2512  03DA  2BDC               	goto	u1461
  2513  03DB  2BDD               	goto	u1460
  2514  03DC                     u1461:
  2515  03DC  2BE2               	goto	l1552
  2516  03DD                     u1460:
  2517  03DD                     l1548:
  2518  03DD  1FF3               	btfss	___xxtofl@val+3,7
  2519  03DE  2BE0               	goto	u1471
  2520  03DF  2BE1               	goto	u1470
  2521  03E0                     u1471:
  2522  03E0  2BE2               	goto	l1552
  2523  03E1                     u1470:
  2524  03E1                     l1550:
  2525  03E1  17FD               	bsf	___xxtofl@arg+3,7
  2526  03E2                     l1552:
  2527  03E2  087D               	movf	___xxtofl@arg+3,w
  2528  03E3  00F3               	movwf	?___xxtofl+3
  2529  03E4  087C               	movf	___xxtofl@arg+2,w
  2530  03E5  00F2               	movwf	?___xxtofl+2
  2531  03E6  087B               	movf	___xxtofl@arg+1,w
  2532  03E7  00F1               	movwf	?___xxtofl+1
  2533  03E8  087A               	movf	___xxtofl@arg,w
  2534  03E9  00F0               	movwf	?___xxtofl
  2535  03EA                     l655:
  2536  03EA  0008               	return
  2537  03EB                     __end_of___xxtofl:
  2538                           
  2539                           	psect	text8
  2540  03EB                     __ptext8:	
  2541 ;; *************** function ___fldiv *****************
  2542 ;; Defined at:
  2543 ;;		line 8 in file "C:\Program Files\Microchip\xc8\v2.36\pic\sources\c90\common\sprcdiv.c"
  2544 ;; Parameters:    Size  Location     Type
  2545 ;;  a               4    0[BANK0 ] unsigned char 
  2546 ;;  b               4    4[BANK0 ] unsigned char 
  2547 ;; Auto vars:     Size  Location     Type
  2548 ;;  grs             4   20[BANK0 ] unsigned long 
  2549 ;;  rem             4   13[BANK0 ] unsigned long 
  2550 ;;  new_exp         2   18[BANK0 ] int 
  2551 ;;  aexp            1   25[BANK0 ] unsigned char 
  2552 ;;  bexp            1   24[BANK0 ] unsigned char 
  2553 ;;  sign            1   17[BANK0 ] unsigned char 
  2554 ;; Return value:  Size  Location     Type
  2555 ;;                  4    0[BANK0 ] unsigned char 
  2556 ;; Registers used:
  2557 ;;		wreg, status,2, status,0, btemp+1
  2558 ;; Tracked objects:
  2559 ;;		On entry : 0/0
  2560 ;;		On exit  : 0/0
  2561 ;;		Unchanged: 0/0
  2562 ;; Data sizes:     COMMON   BANK0   BANK1   BANK3   BANK2
  2563 ;;      Params:         0       8       0       0       0
  2564 ;;      Locals:         0      13       0       0       0
  2565 ;;      Temps:          0       5       0       0       0
  2566 ;;      Totals:         0      26       0       0       0
  2567 ;;Total ram usage:       26 bytes
  2568 ;; Hardware stack levels used: 1
  2569 ;; This function calls:
  2570 ;;		Nothing
  2571 ;; This function is called by:
  2572 ;;		_dist1
  2573 ;;		_dist2
  2574 ;;		_dist3
  2575 ;; This function uses a non-reentrant model
  2576 ;;
  2577                           
  2578  03EB                     ___fldiv:	
  2579                           ;psect for function ___fldiv
  2580                           
  2581  03EB                     l1370:	
  2582                           ;incstack = 0
  2583                           ; Regs used in ___fldiv: [wreg+status,2+status,0+btemp+1]
  2584                           
  2585  03EB  1283               	bcf	3,5	;RP0=0, select bank0
  2586  03EC  1303               	bcf	3,6	;RP1=0, select bank0
  2587  03ED  0827               	movf	___fldiv@b+3,w
  2588  03EE  3980               	andlw	128
  2589  03EF  00A8               	movwf	??___fldiv
  2590  03F0  0828               	movf	??___fldiv,w
  2591  03F1  00B1               	movwf	___fldiv@sign
  2592  03F2                     l1372:
  2593  03F2  0827               	movf	___fldiv@b+3,w
  2594  03F3  00A8               	movwf	??___fldiv
  2595  03F4  0728               	addwf	??___fldiv,w
  2596  03F5  00A9               	movwf	??___fldiv+1
  2597  03F6  0829               	movf	??___fldiv+1,w
  2598  03F7  00B8               	movwf	___fldiv@bexp
  2599  03F8                     l1374:
  2600  03F8  1FA6               	btfss	___fldiv@b+2,7
  2601  03F9  2BFB               	goto	u1051
  2602  03FA  2BFC               	goto	u1050
  2603  03FB                     u1051:
  2604  03FB  2BFD               	goto	l1378
  2605  03FC                     u1050:
  2606  03FC                     l1376:
  2607  03FC  1438               	bsf	___fldiv@bexp,0
  2608  03FD                     l1378:
  2609  03FD  0838               	movf	___fldiv@bexp,w
  2610  03FE  1903               	btfsc	3,2
  2611  03FF  2C01               	goto	u1061
  2612  0400  2C02               	goto	u1060
  2613  0401                     u1061:
  2614  0401  2C12               	goto	l1388
  2615  0402                     u1060:
  2616  0402                     l1380:
  2617  0402  0A38               	incf	___fldiv@bexp,w
  2618  0403  1D03               	btfss	3,2
  2619  0404  2C06               	goto	u1071
  2620  0405  2C07               	goto	u1070
  2621  0406                     u1071:
  2622  0406  2C0F               	goto	l1384
  2623  0407                     u1070:
  2624  0407                     l1382:
  2625  0407  3000               	movlw	0
  2626  0408  00A7               	movwf	___fldiv@b+3
  2627  0409  3000               	movlw	0
  2628  040A  00A6               	movwf	___fldiv@b+2
  2629  040B  3000               	movlw	0
  2630  040C  00A5               	movwf	___fldiv@b+1
  2631  040D  3000               	movlw	0
  2632  040E  00A4               	movwf	___fldiv@b
  2633  040F                     l1384:
  2634  040F  17A6               	bsf	___fldiv@b+2,7
  2635  0410                     l1386:
  2636  0410  01A7               	clrf	___fldiv@b+3
  2637  0411  2C1A               	goto	l1390
  2638  0412                     l1388:
  2639  0412  3000               	movlw	0
  2640  0413  00A7               	movwf	___fldiv@b+3
  2641  0414  3000               	movlw	0
  2642  0415  00A6               	movwf	___fldiv@b+2
  2643  0416  3000               	movlw	0
  2644  0417  00A5               	movwf	___fldiv@b+1
  2645  0418  3000               	movlw	0
  2646  0419  00A4               	movwf	___fldiv@b
  2647  041A                     l1390:
  2648  041A  0823               	movf	___fldiv@a+3,w
  2649  041B  3980               	andlw	128
  2650  041C  00A8               	movwf	??___fldiv
  2651  041D  0828               	movf	??___fldiv,w
  2652  041E  06B1               	xorwf	___fldiv@sign,f
  2653  041F                     l1392:
  2654  041F  0823               	movf	___fldiv@a+3,w
  2655  0420  00A8               	movwf	??___fldiv
  2656  0421  0728               	addwf	??___fldiv,w
  2657  0422  00A9               	movwf	??___fldiv+1
  2658  0423  0829               	movf	??___fldiv+1,w
  2659  0424  00B9               	movwf	___fldiv@aexp
  2660  0425                     l1394:
  2661  0425  1FA2               	btfss	___fldiv@a+2,7
  2662  0426  2C28               	goto	u1081
  2663  0427  2C29               	goto	u1080
  2664  0428                     u1081:
  2665  0428  2C2A               	goto	l1398
  2666  0429                     u1080:
  2667  0429                     l1396:
  2668  0429  1439               	bsf	___fldiv@aexp,0
  2669  042A                     l1398:
  2670  042A  0839               	movf	___fldiv@aexp,w
  2671  042B  1903               	btfsc	3,2
  2672  042C  2C2E               	goto	u1091
  2673  042D  2C2F               	goto	u1090
  2674  042E                     u1091:
  2675  042E  2C3F               	goto	l1408
  2676  042F                     u1090:
  2677  042F                     l1400:
  2678  042F  0A39               	incf	___fldiv@aexp,w
  2679  0430  1D03               	btfss	3,2
  2680  0431  2C33               	goto	u1101
  2681  0432  2C34               	goto	u1100
  2682  0433                     u1101:
  2683  0433  2C3C               	goto	l1404
  2684  0434                     u1100:
  2685  0434                     l1402:
  2686  0434  3000               	movlw	0
  2687  0435  00A3               	movwf	___fldiv@a+3
  2688  0436  3000               	movlw	0
  2689  0437  00A2               	movwf	___fldiv@a+2
  2690  0438  3000               	movlw	0
  2691  0439  00A1               	movwf	___fldiv@a+1
  2692  043A  3000               	movlw	0
  2693  043B  00A0               	movwf	___fldiv@a
  2694  043C                     l1404:
  2695  043C  17A2               	bsf	___fldiv@a+2,7
  2696  043D                     l1406:
  2697  043D  01A3               	clrf	___fldiv@a+3
  2698  043E  2C47               	goto	l569
  2699  043F                     l1408:
  2700  043F  3000               	movlw	0
  2701  0440  00A3               	movwf	___fldiv@a+3
  2702  0441  3000               	movlw	0
  2703  0442  00A2               	movwf	___fldiv@a+2
  2704  0443  3000               	movlw	0
  2705  0444  00A1               	movwf	___fldiv@a+1
  2706  0445  3000               	movlw	0
  2707  0446  00A0               	movwf	___fldiv@a
  2708  0447                     l569:
  2709  0447  0823               	movf	___fldiv@a+3,w
  2710  0448  0422               	iorwf	___fldiv@a+2,w
  2711  0449  0421               	iorwf	___fldiv@a+1,w
  2712  044A  0420               	iorwf	___fldiv@a,w
  2713  044B  1D03               	skipz
  2714  044C  2C4E               	goto	u1111
  2715  044D  2C4F               	goto	u1110
  2716  044E                     u1111:
  2717  044E  2C68               	goto	l1418
  2718  044F                     u1110:
  2719  044F                     l1410:
  2720  044F  3000               	movlw	0
  2721  0450  00A7               	movwf	___fldiv@b+3
  2722  0451  3000               	movlw	0
  2723  0452  00A6               	movwf	___fldiv@b+2
  2724  0453  3000               	movlw	0
  2725  0454  00A5               	movwf	___fldiv@b+1
  2726  0455  3000               	movlw	0
  2727  0456  00A4               	movwf	___fldiv@b
  2728  0457  3080               	movlw	128
  2729  0458  04A6               	iorwf	___fldiv@b+2,f
  2730  0459  307F               	movlw	127
  2731  045A  04A7               	iorwf	___fldiv@b+3,f
  2732  045B                     l1412:
  2733  045B  0831               	movf	___fldiv@sign,w
  2734  045C  00A8               	movwf	??___fldiv
  2735  045D  0828               	movf	??___fldiv,w
  2736  045E  04A7               	iorwf	___fldiv@b+3,f
  2737  045F                     l1414:
  2738  045F  0827               	movf	___fldiv@b+3,w
  2739  0460  00A3               	movwf	?___fldiv+3
  2740  0461  0826               	movf	___fldiv@b+2,w
  2741  0462  00A2               	movwf	?___fldiv+2
  2742  0463  0825               	movf	___fldiv@b+1,w
  2743  0464  00A1               	movwf	?___fldiv+1
  2744  0465  0824               	movf	___fldiv@b,w
  2745  0466  00A0               	movwf	?___fldiv
  2746  0467  2DC7               	goto	l571
  2747  0468                     l1418:
  2748  0468  0838               	movf	___fldiv@bexp,w
  2749  0469  1D03               	btfss	3,2
  2750  046A  2C6C               	goto	u1121
  2751  046B  2C6D               	goto	u1120
  2752  046C                     u1121:
  2753  046C  2C76               	goto	l1424
  2754  046D                     u1120:
  2755  046D                     l1420:
  2756  046D  3000               	movlw	0
  2757  046E  00A3               	movwf	?___fldiv+3
  2758  046F  3000               	movlw	0
  2759  0470  00A2               	movwf	?___fldiv+2
  2760  0471  3000               	movlw	0
  2761  0472  00A1               	movwf	?___fldiv+1
  2762  0473  3000               	movlw	0
  2763  0474  00A0               	movwf	?___fldiv
  2764  0475  2DC7               	goto	l571
  2765  0476                     l1424:
  2766  0476  0838               	movf	___fldiv@bexp,w
  2767  0477  00A8               	movwf	??___fldiv
  2768  0478  01A9               	clrf	??___fldiv+1
  2769  0479  0829               	movf	??___fldiv+1,w
  2770  047A  00AB               	movwf	??___fldiv+3
  2771  047B  0839               	movf	___fldiv@aexp,w
  2772  047C  0228               	subwf	??___fldiv,w
  2773  047D  00AA               	movwf	??___fldiv+2
  2774  047E  1C03               	skipc
  2775  047F  03AB               	decf	??___fldiv+3,f
  2776  0480  082A               	movf	??___fldiv+2,w
  2777  0481  3E7F               	addlw	127
  2778  0482  00B2               	movwf	___fldiv@new_exp
  2779  0483  082B               	movf	??___fldiv+3,w
  2780  0484  1803               	skipnc
  2781  0485  3E01               	addlw	1
  2782  0486  3E00               	addlw	0
  2783  0487  00B3               	movwf	___fldiv@new_exp+1
  2784  0488                     l1426:
  2785  0488  0827               	movf	___fldiv@b+3,w
  2786  0489  00B0               	movwf	___fldiv@rem+3
  2787  048A  0826               	movf	___fldiv@b+2,w
  2788  048B  00AF               	movwf	___fldiv@rem+2
  2789  048C  0825               	movf	___fldiv@b+1,w
  2790  048D  00AE               	movwf	___fldiv@rem+1
  2791  048E  0824               	movf	___fldiv@b,w
  2792  048F  00AD               	movwf	___fldiv@rem
  2793  0490                     l1428:
  2794  0490  3000               	movlw	0
  2795  0491  00A7               	movwf	___fldiv@b+3
  2796  0492  3000               	movlw	0
  2797  0493  00A6               	movwf	___fldiv@b+2
  2798  0494  3000               	movlw	0
  2799  0495  00A5               	movwf	___fldiv@b+1
  2800  0496  3000               	movlw	0
  2801  0497  00A4               	movwf	___fldiv@b
  2802  0498                     l1430:
  2803  0498  3000               	movlw	0
  2804  0499  00B7               	movwf	___fldiv@grs+3
  2805  049A  3000               	movlw	0
  2806  049B  00B6               	movwf	___fldiv@grs+2
  2807  049C  3000               	movlw	0
  2808  049D  00B5               	movwf	___fldiv@grs+1
  2809  049E  3000               	movlw	0
  2810  049F  00B4               	movwf	___fldiv@grs
  2811  04A0                     l1432:
  2812  04A0  01B9               	clrf	___fldiv@aexp
  2813  04A1  2CEC               	goto	l1452
  2814  04A2                     l1434:
  2815  04A2  0839               	movf	___fldiv@aexp,w
  2816  04A3  1903               	btfsc	3,2
  2817  04A4  2CA6               	goto	u1131
  2818  04A5  2CA7               	goto	u1130
  2819  04A6                     u1131:
  2820  04A6  2CC7               	goto	l1444
  2821  04A7                     u1130:
  2822  04A7                     l1436:
  2823  04A7  3001               	movlw	1
  2824  04A8  00A8               	movwf	??___fldiv
  2825  04A9                     u1145:
  2826  04A9  1003               	clrc
  2827  04AA  0DAD               	rlf	___fldiv@rem,f
  2828  04AB  0DAE               	rlf	___fldiv@rem+1,f
  2829  04AC  0DAF               	rlf	___fldiv@rem+2,f
  2830  04AD  0DB0               	rlf	___fldiv@rem+3,f
  2831  04AE  0BA8               	decfsz	??___fldiv,f
  2832  04AF  2CA9               	goto	u1145
  2833  04B0  3001               	movlw	1
  2834  04B1  00A8               	movwf	??___fldiv
  2835  04B2                     u1155:
  2836  04B2  1003               	clrc
  2837  04B3  0DA4               	rlf	___fldiv@b,f
  2838  04B4  0DA5               	rlf	___fldiv@b+1,f
  2839  04B5  0DA6               	rlf	___fldiv@b+2,f
  2840  04B6  0DA7               	rlf	___fldiv@b+3,f
  2841  04B7  0BA8               	decfsz	??___fldiv,f
  2842  04B8  2CB2               	goto	u1155
  2843  04B9                     l1438:
  2844  04B9  1FB7               	btfss	___fldiv@grs+3,7
  2845  04BA  2CBC               	goto	u1161
  2846  04BB  2CBD               	goto	u1160
  2847  04BC                     u1161:
  2848  04BC  2CBE               	goto	l1442
  2849  04BD                     u1160:
  2850  04BD                     l1440:
  2851  04BD  1424               	bsf	___fldiv@b,0
  2852  04BE                     l1442:
  2853  04BE  3001               	movlw	1
  2854  04BF  00A8               	movwf	??___fldiv
  2855  04C0                     u1175:
  2856  04C0  1003               	clrc
  2857  04C1  0DB4               	rlf	___fldiv@grs,f
  2858  04C2  0DB5               	rlf	___fldiv@grs+1,f
  2859  04C3  0DB6               	rlf	___fldiv@grs+2,f
  2860  04C4  0DB7               	rlf	___fldiv@grs+3,f
  2861  04C5  0BA8               	decfsz	??___fldiv,f
  2862  04C6  2CC0               	goto	u1175
  2863  04C7                     l1444:
  2864  04C7  0823               	movf	___fldiv@a+3,w
  2865  04C8  0230               	subwf	___fldiv@rem+3,w
  2866  04C9  1D03               	skipz
  2867  04CA  2CD5               	goto	u1185
  2868  04CB  0822               	movf	___fldiv@a+2,w
  2869  04CC  022F               	subwf	___fldiv@rem+2,w
  2870  04CD  1D03               	skipz
  2871  04CE  2CD5               	goto	u1185
  2872  04CF  0821               	movf	___fldiv@a+1,w
  2873  04D0  022E               	subwf	___fldiv@rem+1,w
  2874  04D1  1D03               	skipz
  2875  04D2  2CD5               	goto	u1185
  2876  04D3  0820               	movf	___fldiv@a,w
  2877  04D4  022D               	subwf	___fldiv@rem,w
  2878  04D5                     u1185:
  2879  04D5  1C03               	skipc
  2880  04D6  2CD8               	goto	u1181
  2881  04D7  2CD9               	goto	u1180
  2882  04D8                     u1181:
  2883  04D8  2CE8               	goto	l1450
  2884  04D9                     u1180:
  2885  04D9                     l1446:
  2886  04D9  1737               	bsf	___fldiv@grs+3,6
  2887  04DA                     l1448:
  2888  04DA  0820               	movf	___fldiv@a,w
  2889  04DB  02AD               	subwf	___fldiv@rem,f
  2890  04DC  0821               	movf	___fldiv@a+1,w
  2891  04DD  1C03               	skipc
  2892  04DE  0F21               	incfsz	___fldiv@a+1,w
  2893  04DF  02AE               	subwf	___fldiv@rem+1,f
  2894  04E0  0822               	movf	___fldiv@a+2,w
  2895  04E1  1C03               	skipc
  2896  04E2  0F22               	incfsz	___fldiv@a+2,w
  2897  04E3  02AF               	subwf	___fldiv@rem+2,f
  2898  04E4  0823               	movf	___fldiv@a+3,w
  2899  04E5  1C03               	skipc
  2900  04E6  0F23               	incfsz	___fldiv@a+3,w
  2901  04E7  02B0               	subwf	___fldiv@rem+3,f
  2902  04E8                     l1450:
  2903  04E8  3001               	movlw	1
  2904  04E9  00A8               	movwf	??___fldiv
  2905  04EA  0828               	movf	??___fldiv,w
  2906  04EB  07B9               	addwf	___fldiv@aexp,f
  2907  04EC                     l1452:
  2908  04EC  301A               	movlw	26
  2909  04ED  0239               	subwf	___fldiv@aexp,w
  2910  04EE  1C03               	skipc
  2911  04EF  2CF1               	goto	u1191
  2912  04F0  2CF2               	goto	u1190
  2913  04F1                     u1191:
  2914  04F1  2CA2               	goto	l1434
  2915  04F2                     u1190:
  2916  04F2                     l1454:
  2917  04F2  0830               	movf	___fldiv@rem+3,w
  2918  04F3  042F               	iorwf	___fldiv@rem+2,w
  2919  04F4  042E               	iorwf	___fldiv@rem+1,w
  2920  04F5  042D               	iorwf	___fldiv@rem,w
  2921  04F6  1903               	skipnz
  2922  04F7  2CF9               	goto	u1201
  2923  04F8  2CFA               	goto	u1200
  2924  04F9                     u1201:
  2925  04F9  2D19               	goto	l1468
  2926  04FA                     u1200:
  2927  04FA                     l1456:
  2928  04FA  1434               	bsf	___fldiv@grs,0
  2929  04FB  2D19               	goto	l1468
  2930  04FC                     l1458:
  2931  04FC  3001               	movlw	1
  2932  04FD  00A8               	movwf	??___fldiv
  2933  04FE                     u1215:
  2934  04FE  1003               	clrc
  2935  04FF  0DA4               	rlf	___fldiv@b,f
  2936  0500  0DA5               	rlf	___fldiv@b+1,f
  2937  0501  0DA6               	rlf	___fldiv@b+2,f
  2938  0502  0DA7               	rlf	___fldiv@b+3,f
  2939  0503  0BA8               	decfsz	??___fldiv,f
  2940  0504  2CFE               	goto	u1215
  2941  0505                     l1460:
  2942  0505  1FB7               	btfss	___fldiv@grs+3,7
  2943  0506  2D08               	goto	u1221
  2944  0507  2D09               	goto	u1220
  2945  0508                     u1221:
  2946  0508  2D0A               	goto	l1464
  2947  0509                     u1220:
  2948  0509                     l1462:
  2949  0509  1424               	bsf	___fldiv@b,0
  2950  050A                     l1464:
  2951  050A  3001               	movlw	1
  2952  050B  00A8               	movwf	??___fldiv
  2953  050C                     u1235:
  2954  050C  1003               	clrc
  2955  050D  0DB4               	rlf	___fldiv@grs,f
  2956  050E  0DB5               	rlf	___fldiv@grs+1,f
  2957  050F  0DB6               	rlf	___fldiv@grs+2,f
  2958  0510  0DB7               	rlf	___fldiv@grs+3,f
  2959  0511  0BA8               	decfsz	??___fldiv,f
  2960  0512  2D0C               	goto	u1235
  2961  0513                     l1466:
  2962  0513  30FF               	movlw	255
  2963  0514  07B2               	addwf	___fldiv@new_exp,f
  2964  0515  1803               	skipnc
  2965  0516  0AB3               	incf	___fldiv@new_exp+1,f
  2966  0517  30FF               	movlw	255
  2967  0518  07B3               	addwf	___fldiv@new_exp+1,f
  2968  0519                     l1468:
  2969  0519  1FA6               	btfss	___fldiv@b+2,7
  2970  051A  2D1C               	goto	u1241
  2971  051B  2D1D               	goto	u1240
  2972  051C                     u1241:
  2973  051C  2CFC               	goto	l1458
  2974  051D                     u1240:
  2975  051D                     l1470:
  2976  051D  01B9               	clrf	___fldiv@aexp
  2977  051E                     l1472:
  2978  051E  1FB7               	btfss	___fldiv@grs+3,7
  2979  051F  2D21               	goto	u1251
  2980  0520  2D22               	goto	u1250
  2981  0521                     u1251:
  2982  0521  2D3E               	goto	l1480
  2983  0522                     u1250:
  2984  0522                     l1474:
  2985  0522  30FF               	movlw	255
  2986  0523  0534               	andwf	___fldiv@grs,w
  2987  0524  00A8               	movwf	??___fldiv
  2988  0525  30FF               	movlw	255
  2989  0526  0535               	andwf	___fldiv@grs+1,w
  2990  0527  00A9               	movwf	??___fldiv+1
  2991  0528  30FF               	movlw	255
  2992  0529  0536               	andwf	___fldiv@grs+2,w
  2993  052A  00AA               	movwf	??___fldiv+2
  2994  052B  307F               	movlw	127
  2995  052C  0537               	andwf	___fldiv@grs+3,w
  2996  052D  00AB               	movwf	??___fldiv+3
  2997  052E  082B               	movf	??___fldiv+3,w
  2998  052F  042A               	iorwf	??___fldiv+2,w
  2999  0530  0429               	iorwf	??___fldiv+1,w
  3000  0531  0428               	iorwf	??___fldiv,w
  3001  0532  1903               	skipnz
  3002  0533  2D35               	goto	u1261
  3003  0534  2D36               	goto	u1260
  3004  0535                     u1261:
  3005  0535  2D39               	goto	l585
  3006  0536                     u1260:
  3007  0536                     l1476:
  3008  0536  01B9               	clrf	___fldiv@aexp
  3009  0537  0AB9               	incf	___fldiv@aexp,f
  3010  0538  2D3E               	goto	l1480
  3011  0539                     l585:
  3012  0539  1C24               	btfss	___fldiv@b,0
  3013  053A  2D3C               	goto	u1271
  3014  053B  2D3D               	goto	u1270
  3015  053C                     u1271:
  3016  053C  2D3E               	goto	l1480
  3017  053D                     u1270:
  3018  053D  2D36               	goto	l1476
  3019  053E                     l1480:
  3020  053E  0839               	movf	___fldiv@aexp,w
  3021  053F  1903               	btfsc	3,2
  3022  0540  2D42               	goto	u1281
  3023  0541  2D43               	goto	u1280
  3024  0542                     u1281:
  3025  0542  2D74               	goto	l1490
  3026  0543                     u1280:
  3027  0543                     l1482:
  3028  0543  3001               	movlw	1
  3029  0544  07A4               	addwf	___fldiv@b,f
  3030  0545  3000               	movlw	0
  3031  0546  1803               	skipnc
  3032  0547  3001               	movlw	1
  3033  0548  07A5               	addwf	___fldiv@b+1,f
  3034  0549  3000               	movlw	0
  3035  054A  1803               	skipnc
  3036  054B  3001               	movlw	1
  3037  054C  07A6               	addwf	___fldiv@b+2,f
  3038  054D  3000               	movlw	0
  3039  054E  1803               	skipnc
  3040  054F  3001               	movlw	1
  3041  0550  07A7               	addwf	___fldiv@b+3,f
  3042  0551                     l1484:
  3043  0551  1C27               	btfss	___fldiv@b+3,0
  3044  0552  2D54               	goto	u1291
  3045  0553  2D55               	goto	u1290
  3046  0554                     u1291:
  3047  0554  2D74               	goto	l1490
  3048  0555                     u1290:
  3049  0555                     l1486:
  3050  0555  0824               	movf	___fldiv@b,w
  3051  0556  00A8               	movwf	??___fldiv
  3052  0557  0825               	movf	___fldiv@b+1,w
  3053  0558  00A9               	movwf	??___fldiv+1
  3054  0559  0826               	movf	___fldiv@b+2,w
  3055  055A  00AA               	movwf	??___fldiv+2
  3056  055B  0827               	movf	___fldiv@b+3,w
  3057  055C  00AB               	movwf	??___fldiv+3
  3058  055D  3001               	movlw	1
  3059  055E  00AC               	movwf	??___fldiv+4
  3060  055F                     u1305:
  3061  055F  0D2B               	rlf	??___fldiv+3,w
  3062  0560  0CAB               	rrf	??___fldiv+3,f
  3063  0561  0CAA               	rrf	??___fldiv+2,f
  3064  0562  0CA9               	rrf	??___fldiv+1,f
  3065  0563  0CA8               	rrf	??___fldiv,f
  3066  0564                     u1300:
  3067  0564  0BAC               	decfsz	??___fldiv+4,f
  3068  0565  2D5F               	goto	u1305
  3069  0566  082B               	movf	??___fldiv+3,w
  3070  0567  00A7               	movwf	___fldiv@b+3
  3071  0568  082A               	movf	??___fldiv+2,w
  3072  0569  00A6               	movwf	___fldiv@b+2
  3073  056A  0829               	movf	??___fldiv+1,w
  3074  056B  00A5               	movwf	___fldiv@b+1
  3075  056C  0828               	movf	??___fldiv,w
  3076  056D  00A4               	movwf	___fldiv@b
  3077  056E                     l1488:
  3078  056E  3001               	movlw	1
  3079  056F  07B2               	addwf	___fldiv@new_exp,f
  3080  0570  1803               	skipnc
  3081  0571  0AB3               	incf	___fldiv@new_exp+1,f
  3082  0572  3000               	movlw	0
  3083  0573  07B3               	addwf	___fldiv@new_exp+1,f
  3084  0574                     l1490:
  3085  0574  0833               	movf	___fldiv@new_exp+1,w
  3086  0575  3A80               	xorlw	128
  3087  0576  00FF               	movwf	btemp+1
  3088  0577  3080               	movlw	128
  3089  0578  027F               	subwf	btemp+1,w
  3090  0579  1D03               	skipz
  3091  057A  2D7D               	goto	u1315
  3092  057B  30FF               	movlw	255
  3093  057C  0232               	subwf	___fldiv@new_exp,w
  3094  057D                     u1315:
  3095  057D  1C03               	skipc
  3096  057E  2D80               	goto	u1311
  3097  057F  2D81               	goto	u1310
  3098  0580                     u1311:
  3099  0580  2D8F               	goto	l1494
  3100  0581                     u1310:
  3101  0581                     l1492:
  3102  0581  30FF               	movlw	255
  3103  0582  1283               	bcf	3,5	;RP0=0, select bank0
  3104  0583  1303               	bcf	3,6	;RP1=0, select bank0
  3105  0584  00B2               	movwf	___fldiv@new_exp
  3106  0585  3000               	movlw	0
  3107  0586  00B3               	movwf	___fldiv@new_exp+1
  3108  0587  3000               	movlw	0
  3109  0588  00A7               	movwf	___fldiv@b+3
  3110  0589  3000               	movlw	0
  3111  058A  00A6               	movwf	___fldiv@b+2
  3112  058B  3000               	movlw	0
  3113  058C  00A5               	movwf	___fldiv@b+1
  3114  058D  3000               	movlw	0
  3115  058E  00A4               	movwf	___fldiv@b
  3116  058F                     l1494:
  3117  058F  1283               	bcf	3,5	;RP0=0, select bank0
  3118  0590  1303               	bcf	3,6	;RP1=0, select bank0
  3119  0591  0833               	movf	___fldiv@new_exp+1,w
  3120  0592  3A80               	xorlw	128
  3121  0593  00FF               	movwf	btemp+1
  3122  0594  3080               	movlw	128
  3123  0595  027F               	subwf	btemp+1,w
  3124  0596  1D03               	skipz
  3125  0597  2D9A               	goto	u1325
  3126  0598  3001               	movlw	1
  3127  0599  0232               	subwf	___fldiv@new_exp,w
  3128  059A                     u1325:
  3129  059A  1803               	skipnc
  3130  059B  2D9D               	goto	u1321
  3131  059C  2D9E               	goto	u1320
  3132  059D                     u1321:
  3133  059D  2DAB               	goto	l591
  3134  059E                     u1320:
  3135  059E                     l1496:
  3136  059E  1283               	bcf	3,5	;RP0=0, select bank0
  3137  059F  1303               	bcf	3,6	;RP1=0, select bank0
  3138  05A0  01B2               	clrf	___fldiv@new_exp
  3139  05A1  01B3               	clrf	___fldiv@new_exp+1
  3140  05A2                     l1498:
  3141  05A2  3000               	movlw	0
  3142  05A3  00A7               	movwf	___fldiv@b+3
  3143  05A4  3000               	movlw	0
  3144  05A5  00A6               	movwf	___fldiv@b+2
  3145  05A6  3000               	movlw	0
  3146  05A7  00A5               	movwf	___fldiv@b+1
  3147  05A8  3000               	movlw	0
  3148  05A9  00A4               	movwf	___fldiv@b
  3149  05AA                     l1500:
  3150  05AA  01B1               	clrf	___fldiv@sign
  3151  05AB                     l591:
  3152  05AB  1283               	bcf	3,5	;RP0=0, select bank0
  3153  05AC  1303               	bcf	3,6	;RP1=0, select bank0
  3154  05AD  0832               	movf	___fldiv@new_exp,w
  3155  05AE  00A8               	movwf	??___fldiv
  3156  05AF  0828               	movf	??___fldiv,w
  3157  05B0  00B8               	movwf	___fldiv@bexp
  3158  05B1                     l1502:
  3159  05B1  1C38               	btfss	___fldiv@bexp,0
  3160  05B2  2DB4               	goto	u1331
  3161  05B3  2DB5               	goto	u1330
  3162  05B4                     u1331:
  3163  05B4  2DB7               	goto	l1506
  3164  05B5                     u1330:
  3165  05B5                     l1504:
  3166  05B5  17A6               	bsf	___fldiv@b+2,7
  3167  05B6  2DBB               	goto	l593
  3168  05B7                     l1506:
  3169  05B7  307F               	movlw	127
  3170  05B8  00A8               	movwf	??___fldiv
  3171  05B9  0828               	movf	??___fldiv,w
  3172  05BA  05A6               	andwf	___fldiv@b+2,f
  3173  05BB                     l593:
  3174  05BB  0838               	movf	___fldiv@bexp,w
  3175  05BC  00A8               	movwf	??___fldiv
  3176  05BD  1003               	clrc
  3177  05BE  0C28               	rrf	??___fldiv,w
  3178  05BF  00A9               	movwf	??___fldiv+1
  3179  05C0  0829               	movf	??___fldiv+1,w
  3180  05C1  00A7               	movwf	___fldiv@b+3
  3181  05C2  0831               	movf	___fldiv@sign,w
  3182  05C3  00A8               	movwf	??___fldiv
  3183  05C4  0828               	movf	??___fldiv,w
  3184  05C5  04A7               	iorwf	___fldiv@b+3,f
  3185  05C6  2C5F               	goto	l1414
  3186  05C7                     l571:
  3187  05C7  0008               	return
  3188  05C8                     __end_of___fldiv:
  3189                           
  3190                           	psect	text9
  3191  028F                     __ptext9:	
  3192 ;; *************** function ___flge *****************
  3193 ;; Defined at:
  3194 ;;		line 4 in file "C:\Program Files\Microchip\xc8\v2.36\pic\sources\c90\common\flge.c"
  3195 ;; Parameters:    Size  Location     Type
  3196 ;;  ff1             4    0[COMMON] unsigned char 
  3197 ;;  ff2             4    4[COMMON] unsigned char 
  3198 ;; Auto vars:     Size  Location     Type
  3199 ;;		None
  3200 ;; Return value:  Size  Location     Type
  3201 ;;		None               void
  3202 ;; Registers used:
  3203 ;;		wreg, status,2, status,0
  3204 ;; Tracked objects:
  3205 ;;		On entry : 0/0
  3206 ;;		On exit  : 0/0
  3207 ;;		Unchanged: 0/0
  3208 ;; Data sizes:     COMMON   BANK0   BANK1   BANK3   BANK2
  3209 ;;      Params:         8       0       0       0       0
  3210 ;;      Locals:         0       0       0       0       0
  3211 ;;      Temps:          4       0       0       0       0
  3212 ;;      Totals:        12       0       0       0       0
  3213 ;;Total ram usage:       12 bytes
  3214 ;; Hardware stack levels used: 1
  3215 ;; This function calls:
  3216 ;;		Nothing
  3217 ;; This function is called by:
  3218 ;;		_main
  3219 ;; This function uses a non-reentrant model
  3220 ;;
  3221                           
  3222  028F                     ___flge:	
  3223                           ;psect for function ___flge
  3224                           
  3225  028F                     l1648:	
  3226                           ;incstack = 0
  3227                           ; Regs used in ___flge: [wreg+status,2+status,0]
  3228                           
  3229  028F  3000               	movlw	0
  3230  0290  0570               	andwf	___flge@ff1,w
  3231  0291  00F8               	movwf	??___flge
  3232  0292  3000               	movlw	0
  3233  0293  0571               	andwf	___flge@ff1+1,w
  3234  0294  00F9               	movwf	??___flge+1
  3235  0295  3080               	movlw	128
  3236  0296  0572               	andwf	___flge@ff1+2,w
  3237  0297  00FA               	movwf	??___flge+2
  3238  0298  307F               	movlw	127
  3239  0299  0573               	andwf	___flge@ff1+3,w
  3240  029A  00FB               	movwf	??___flge+3
  3241  029B  087B               	movf	??___flge+3,w
  3242  029C  047A               	iorwf	??___flge+2,w
  3243  029D  0479               	iorwf	??___flge+1,w
  3244  029E  0478               	iorwf	??___flge,w
  3245  029F  1D03               	skipz
  3246  02A0  2AA2               	goto	u1581
  3247  02A1  2AA3               	goto	u1580
  3248  02A2                     u1581:
  3249  02A2  2AAB               	goto	l394
  3250  02A3                     u1580:
  3251  02A3                     l1650:
  3252  02A3  3000               	movlw	0
  3253  02A4  00F3               	movwf	___flge@ff1+3
  3254  02A5  3000               	movlw	0
  3255  02A6  00F2               	movwf	___flge@ff1+2
  3256  02A7  3000               	movlw	0
  3257  02A8  00F1               	movwf	___flge@ff1+1
  3258  02A9  3000               	movlw	0
  3259  02AA  00F0               	movwf	___flge@ff1
  3260  02AB                     l394:
  3261  02AB  3000               	movlw	0
  3262  02AC  0574               	andwf	___flge@ff2,w
  3263  02AD  00F8               	movwf	??___flge
  3264  02AE  3000               	movlw	0
  3265  02AF  0575               	andwf	___flge@ff2+1,w
  3266  02B0  00F9               	movwf	??___flge+1
  3267  02B1  3080               	movlw	128
  3268  02B2  0576               	andwf	___flge@ff2+2,w
  3269  02B3  00FA               	movwf	??___flge+2
  3270  02B4  307F               	movlw	127
  3271  02B5  0577               	andwf	___flge@ff2+3,w
  3272  02B6  00FB               	movwf	??___flge+3
  3273  02B7  087B               	movf	??___flge+3,w
  3274  02B8  047A               	iorwf	??___flge+2,w
  3275  02B9  0479               	iorwf	??___flge+1,w
  3276  02BA  0478               	iorwf	??___flge,w
  3277  02BB  1D03               	skipz
  3278  02BC  2ABE               	goto	u1591
  3279  02BD  2ABF               	goto	u1590
  3280  02BE                     u1591:
  3281  02BE  2AC7               	goto	l1654
  3282  02BF                     u1590:
  3283  02BF                     l1652:
  3284  02BF  3000               	movlw	0
  3285  02C0  00F7               	movwf	___flge@ff2+3
  3286  02C1  3000               	movlw	0
  3287  02C2  00F6               	movwf	___flge@ff2+2
  3288  02C3  3000               	movlw	0
  3289  02C4  00F5               	movwf	___flge@ff2+1
  3290  02C5  3000               	movlw	0
  3291  02C6  00F4               	movwf	___flge@ff2
  3292  02C7                     l1654:
  3293  02C7  1FF3               	btfss	___flge@ff1+3,7
  3294  02C8  2ACA               	goto	u1601
  3295  02C9  2ACB               	goto	u1600
  3296  02CA                     u1601:
  3297  02CA  2AEF               	goto	l1658
  3298  02CB                     u1600:
  3299  02CB                     l1656:
  3300  02CB  3000               	movlw	0
  3301  02CC  00F8               	movwf	??___flge
  3302  02CD  3000               	movlw	0
  3303  02CE  00F9               	movwf	??___flge+1
  3304  02CF  3000               	movlw	0
  3305  02D0  00FA               	movwf	??___flge+2
  3306  02D1  3080               	movlw	128
  3307  02D2  00FB               	movwf	??___flge+3
  3308  02D3  0870               	movf	___flge@ff1,w
  3309  02D4  02F8               	subwf	??___flge,f
  3310  02D5  0871               	movf	___flge@ff1+1,w
  3311  02D6  1C03               	skipc
  3312  02D7  0F71               	incfsz	___flge@ff1+1,w
  3313  02D8  2ADA               	goto	u1611
  3314  02D9  2ADB               	goto	u1612
  3315  02DA                     u1611:
  3316  02DA  02F9               	subwf	??___flge+1,f
  3317  02DB                     u1612:
  3318  02DB  0872               	movf	___flge@ff1+2,w
  3319  02DC  1C03               	skipc
  3320  02DD  0F72               	incfsz	___flge@ff1+2,w
  3321  02DE  2AE0               	goto	u1613
  3322  02DF  2AE1               	goto	u1614
  3323  02E0                     u1613:
  3324  02E0  02FA               	subwf	??___flge+2,f
  3325  02E1                     u1614:
  3326  02E1  0873               	movf	___flge@ff1+3,w
  3327  02E2  1C03               	skipc
  3328  02E3  0F73               	incfsz	___flge@ff1+3,w
  3329  02E4  2AE6               	goto	u1615
  3330  02E5  2AE7               	goto	u1616
  3331  02E6                     u1615:
  3332  02E6  02FB               	subwf	??___flge+3,f
  3333  02E7                     u1616:
  3334  02E7  087B               	movf	??___flge+3,w
  3335  02E8  00F3               	movwf	___flge@ff1+3
  3336  02E9  087A               	movf	??___flge+2,w
  3337  02EA  00F2               	movwf	___flge@ff1+2
  3338  02EB  0879               	movf	??___flge+1,w
  3339  02EC  00F1               	movwf	___flge@ff1+1
  3340  02ED  0878               	movf	??___flge,w
  3341  02EE  00F0               	movwf	___flge@ff1
  3342  02EF                     l1658:
  3343  02EF  1FF7               	btfss	___flge@ff2+3,7
  3344  02F0  2AF2               	goto	u1621
  3345  02F1  2AF3               	goto	u1620
  3346  02F2                     u1621:
  3347  02F2  2B17               	goto	l397
  3348  02F3                     u1620:
  3349  02F3                     l1660:
  3350  02F3  3000               	movlw	0
  3351  02F4  00F8               	movwf	??___flge
  3352  02F5  3000               	movlw	0
  3353  02F6  00F9               	movwf	??___flge+1
  3354  02F7  3000               	movlw	0
  3355  02F8  00FA               	movwf	??___flge+2
  3356  02F9  3080               	movlw	128
  3357  02FA  00FB               	movwf	??___flge+3
  3358  02FB  0874               	movf	___flge@ff2,w
  3359  02FC  02F8               	subwf	??___flge,f
  3360  02FD  0875               	movf	___flge@ff2+1,w
  3361  02FE  1C03               	skipc
  3362  02FF  0F75               	incfsz	___flge@ff2+1,w
  3363  0300  2B02               	goto	u1631
  3364  0301  2B03               	goto	u1632
  3365  0302                     u1631:
  3366  0302  02F9               	subwf	??___flge+1,f
  3367  0303                     u1632:
  3368  0303  0876               	movf	___flge@ff2+2,w
  3369  0304  1C03               	skipc
  3370  0305  0F76               	incfsz	___flge@ff2+2,w
  3371  0306  2B08               	goto	u1633
  3372  0307  2B09               	goto	u1634
  3373  0308                     u1633:
  3374  0308  02FA               	subwf	??___flge+2,f
  3375  0309                     u1634:
  3376  0309  0877               	movf	___flge@ff2+3,w
  3377  030A  1C03               	skipc
  3378  030B  0F77               	incfsz	___flge@ff2+3,w
  3379  030C  2B0E               	goto	u1635
  3380  030D  2B0F               	goto	u1636
  3381  030E                     u1635:
  3382  030E  02FB               	subwf	??___flge+3,f
  3383  030F                     u1636:
  3384  030F  087B               	movf	??___flge+3,w
  3385  0310  00F7               	movwf	___flge@ff2+3
  3386  0311  087A               	movf	??___flge+2,w
  3387  0312  00F6               	movwf	___flge@ff2+2
  3388  0313  0879               	movf	??___flge+1,w
  3389  0314  00F5               	movwf	___flge@ff2+1
  3390  0315  0878               	movf	??___flge,w
  3391  0316  00F4               	movwf	___flge@ff2
  3392  0317                     l397:
  3393  0317  3080               	movlw	128
  3394  0318  06F3               	xorwf	___flge@ff1+3,f
  3395  0319  3080               	movlw	128
  3396  031A  06F7               	xorwf	___flge@ff2+3,f
  3397  031B  0877               	movf	___flge@ff2+3,w
  3398  031C  0273               	subwf	___flge@ff1+3,w
  3399  031D  1D03               	skipz
  3400  031E  2B29               	goto	u1645
  3401  031F  0876               	movf	___flge@ff2+2,w
  3402  0320  0272               	subwf	___flge@ff1+2,w
  3403  0321  1D03               	skipz
  3404  0322  2B29               	goto	u1645
  3405  0323  0875               	movf	___flge@ff2+1,w
  3406  0324  0271               	subwf	___flge@ff1+1,w
  3407  0325  1D03               	skipz
  3408  0326  2B29               	goto	u1645
  3409  0327  0874               	movf	___flge@ff2,w
  3410  0328  0270               	subwf	___flge@ff1,w
  3411  0329                     u1645:
  3412  0329  1803               	skipnc
  3413  032A  2B2C               	goto	u1641
  3414  032B  2B2D               	goto	u1640
  3415  032C                     u1641:
  3416  032C  2B2F               	goto	l1664
  3417  032D                     u1640:
  3418  032D                     l1662:
  3419  032D  1003               	clrc
  3420  032E  2B30               	goto	l398
  3421  032F                     l1664:
  3422  032F  1403               	setc
  3423  0330                     l398:
  3424  0330  0008               	return
  3425  0331                     __end_of___flge:
  3426                           
  3427                           	psect	text10
  3428  004C                     __ptext10:	
  3429 ;; *************** function _LCD_string *****************
  3430 ;; Defined at:
  3431 ;;		line 46 in file "./LCD.h"
  3432 ;; Parameters:    Size  Location     Type
  3433 ;;  str             2    3[COMMON] PTR unsigned char 
  3434 ;;		 -> RAM(512), STR_5(2), STR_4(2), STR_3(2), 
  3435 ;;		 -> STR_2(15), STR_1(13), 
  3436 ;; Auto vars:     Size  Location     Type
  3437 ;;  i               2    5[COMMON] int 
  3438 ;; Return value:  Size  Location     Type
  3439 ;;                  1    wreg      void 
  3440 ;; Registers used:
  3441 ;;		wreg, fsr0l, fsr0h, status,2, status,0, btemp+1, pclath, cstack
  3442 ;; Tracked objects:
  3443 ;;		On entry : 0/0
  3444 ;;		On exit  : 0/0
  3445 ;;		Unchanged: 0/0
  3446 ;; Data sizes:     COMMON   BANK0   BANK1   BANK3   BANK2
  3447 ;;      Params:         2       0       0       0       0
  3448 ;;      Locals:         2       0       0       0       0
  3449 ;;      Temps:          0       0       0       0       0
  3450 ;;      Totals:         4       0       0       0       0
  3451 ;;Total ram usage:        4 bytes
  3452 ;; Hardware stack levels used: 1
  3453 ;; Hardware stack levels required when called: 1
  3454 ;; This function calls:
  3455 ;;		_LCD_Data
  3456 ;; This function is called by:
  3457 ;;		_main
  3458 ;; This function uses a non-reentrant model
  3459 ;;
  3460                           
  3461  004C                     _LCD_string:	
  3462                           ;psect for function _LCD_string
  3463                           
  3464  004C                     l1618:	
  3465                           ;incstack = 0
  3466                           ; Regs used in _LCD_string: [wreg-fsr0h+status,2+status,0+btemp+1+pclath+cstack]
  3467                           
  3468                           
  3469                           ;./LCD.h: 46: void LCD_string (unsigned char *str);./LCD.h: 47: {;./LCD.h: 48: int i;;./
      +                          LCD.h: 49: for(i=0;str[i]!='\0';i++)
  3470  004C  01F5               	clrf	LCD_string@i
  3471  004D  01F6               	clrf	LCD_string@i+1
  3472  004E  2867               	goto	l1624
  3473  004F                     l1620:
  3474                           
  3475                           ;./LCD.h: 50:   LCD_Data(str[i]);
  3476  004F  0875               	movf	LCD_string@i,w
  3477  0050  0773               	addwf	LCD_string@str,w
  3478  0051  0084               	movwf	4
  3479  0052  0876               	movf	LCD_string@i+1,w
  3480  0053  1803               	skipnc
  3481  0054  0A76               	incf	LCD_string@i+1,w
  3482  0055  0774               	addwf	LCD_string@str+1,w
  3483  0056  00FF               	movwf	btemp+1
  3484  0057  120A  118A  2003  120A  118A  	fcall	stringtab
  3485  005C  120A  158A  27EC  120A  118A  	fcall	_LCD_Data
  3486  0061                     l1622:
  3487  0061  3001               	movlw	1
  3488  0062  07F5               	addwf	LCD_string@i,f
  3489  0063  1803               	skipnc
  3490  0064  0AF6               	incf	LCD_string@i+1,f
  3491  0065  3000               	movlw	0
  3492  0066  07F6               	addwf	LCD_string@i+1,f
  3493  0067                     l1624:
  3494  0067  0875               	movf	LCD_string@i,w
  3495  0068  0773               	addwf	LCD_string@str,w
  3496  0069  0084               	movwf	4
  3497  006A  0876               	movf	LCD_string@i+1,w
  3498  006B  1803               	skipnc
  3499  006C  0A76               	incf	LCD_string@i+1,w
  3500  006D  0774               	addwf	LCD_string@str+1,w
  3501  006E  1283               	bcf	3,5	;RP0=0, select bank0
  3502  006F  1303               	bcf	3,6	;RP1=0, select bank0
  3503  0070  00FF               	movwf	btemp+1
  3504  0071  120A  118A  2003  120A  118A  	fcall	stringtab
  3505  0076  3A00               	xorlw	0
  3506  0077  1D03               	skipz
  3507  0078  287A               	goto	u1541
  3508  0079  287B               	goto	u1540
  3509  007A                     u1541:
  3510  007A  284F               	goto	l1620
  3511  007B                     u1540:
  3512  007B                     l106:
  3513  007B  0008               	return
  3514  007C                     __end_of_LCD_string:
  3515                           
  3516                           	psect	text11
  3517  0FEC                     __ptext11:	
  3518 ;; *************** function _LCD_Data *****************
  3519 ;; Defined at:
  3520 ;;		line 16 in file "./LCD.h"
  3521 ;; Parameters:    Size  Location     Type
  3522 ;;  data            1    wreg     unsigned char 
  3523 ;; Auto vars:     Size  Location     Type
  3524 ;;  data            1    2[COMMON] unsigned char 
  3525 ;; Return value:  Size  Location     Type
  3526 ;;                  1    wreg      void 
  3527 ;; Registers used:
  3528 ;;		wreg
  3529 ;; Tracked objects:
  3530 ;;		On entry : 0/0
  3531 ;;		On exit  : 0/0
  3532 ;;		Unchanged: 0/0
  3533 ;; Data sizes:     COMMON   BANK0   BANK1   BANK3   BANK2
  3534 ;;      Params:         0       0       0       0       0
  3535 ;;      Locals:         1       0       0       0       0
  3536 ;;      Temps:          2       0       0       0       0
  3537 ;;      Totals:         3       0       0       0       0
  3538 ;;Total ram usage:        3 bytes
  3539 ;; Hardware stack levels used: 1
  3540 ;; This function calls:
  3541 ;;		Nothing
  3542 ;; This function is called by:
  3543 ;;		_LCD_string
  3544 ;; This function uses a non-reentrant model
  3545 ;;
  3546                           
  3547  0FEC                     _LCD_Data:	
  3548                           ;psect for function _LCD_Data
  3549                           
  3550                           
  3551                           ;incstack = 0
  3552                           ; Regs used in _LCD_Data: [wreg]
  3553                           ;LCD_Data@data stored from wreg
  3554  0FEC  00F2               	movwf	LCD_Data@data
  3555  0FED                     l1268:
  3556                           
  3557                           ;./LCD.h: 16: void LCD_Data(unsigned char data);./LCD.h: 17: {;./LCD.h: 18: PORTB = data
      +                          ;
  3558  0FED  0872               	movf	LCD_Data@data,w
  3559  0FEE  1283               	bcf	3,5	;RP0=0, select bank0
  3560  0FEF  1303               	bcf	3,6	;RP1=0, select bank0
  3561  0FF0  0086               	movwf	6	;volatile
  3562  0FF1                     l1270:
  3563                           
  3564                           ;./LCD.h: 19: RC2 = 1 ;
  3565  0FF1  1507               	bsf	7,2	;volatile
  3566  0FF2                     l1272:
  3567                           
  3568                           ;./LCD.h: 20: RC3 = 0 ;
  3569  0FF2  1187               	bcf	7,3	;volatile
  3570  0FF3                     l1274:
  3571                           
  3572                           ;./LCD.h: 21: RD0 = 1;
  3573  0FF3  1408               	bsf	8,0	;volatile
  3574                           
  3575                           ;./LCD.h: 22: _delay((unsigned long)((5)*(4000000/4000.0)));
  3576  0FF4  3007               	movlw	7
  3577  0FF5  00F1               	movwf	??_LCD_Data+1
  3578  0FF6  307D               	movlw	125
  3579  0FF7  00F0               	movwf	??_LCD_Data
  3580  0FF8                     u1807:
  3581  0FF8  0BF0               	decfsz	??_LCD_Data,f
  3582  0FF9  2FF8               	goto	u1807
  3583  0FFA  0BF1               	decfsz	??_LCD_Data+1,f
  3584  0FFB  2FF8               	goto	u1807
  3585  0FFC                     l1276:
  3586                           
  3587                           ;./LCD.h: 23: RD0 = 0;
  3588  0FFC  1283               	bcf	3,5	;RP0=0, select bank0
  3589  0FFD  1303               	bcf	3,6	;RP1=0, select bank0
  3590  0FFE  1008               	bcf	8,0	;volatile
  3591  0FFF                     l94:
  3592  0FFF  0008               	return
  3593  1000                     __end_of_LCD_Data:
  3594                           
  3595                           	psect	text12
  3596  0033                     __ptext12:	
  3597 ;; *************** function _LCD_init *****************
  3598 ;; Defined at:
  3599 ;;		line 37 in file "./LCD.h"
  3600 ;; Parameters:    Size  Location     Type
  3601 ;;		None
  3602 ;; Auto vars:     Size  Location     Type
  3603 ;;		None
  3604 ;; Return value:  Size  Location     Type
  3605 ;;                  1    wreg      void 
  3606 ;; Registers used:
  3607 ;;		wreg, status,2, status,0, pclath, cstack
  3608 ;; Tracked objects:
  3609 ;;		On entry : 0/0
  3610 ;;		On exit  : 0/0
  3611 ;;		Unchanged: 0/0
  3612 ;; Data sizes:     COMMON   BANK0   BANK1   BANK3   BANK2
  3613 ;;      Params:         0       0       0       0       0
  3614 ;;      Locals:         0       0       0       0       0
  3615 ;;      Temps:          0       0       0       0       0
  3616 ;;      Totals:         0       0       0       0       0
  3617 ;;Total ram usage:        0 bytes
  3618 ;; Hardware stack levels used: 1
  3619 ;; Hardware stack levels required when called: 1
  3620 ;; This function calls:
  3621 ;;		_LCD_Command
  3622 ;; This function is called by:
  3623 ;;		_main
  3624 ;; This function uses a non-reentrant model
  3625 ;;
  3626                           
  3627  0033                     _LCD_init:	
  3628                           ;psect for function _LCD_init
  3629                           
  3630  0033                     l1616:	
  3631                           ;incstack = 0
  3632                           ; Regs used in _LCD_init: [wreg+status,2+status,0+pclath+cstack]
  3633                           
  3634                           
  3635                           ;./LCD.h: 39: LCD_Command(0x38);
  3636  0033  3038               	movlw	56
  3637  0034  120A  158A  27D8  120A  118A  	fcall	_LCD_Command
  3638                           
  3639                           ;./LCD.h: 40: LCD_Command(0x06);
  3640  0039  3006               	movlw	6
  3641  003A  120A  158A  27D8  120A  118A  	fcall	_LCD_Command
  3642                           
  3643                           ;./LCD.h: 41: LCD_Command(0x0C);
  3644  003F  300C               	movlw	12
  3645  0040  120A  158A  27D8  120A  118A  	fcall	_LCD_Command
  3646                           
  3647                           ;./LCD.h: 42: LCD_Command(0x01);
  3648  0045  3001               	movlw	1
  3649  0046  120A  158A  27D8  120A  118A  	fcall	_LCD_Command
  3650  004B                     l100:
  3651  004B  0008               	return
  3652  004C                     __end_of_LCD_init:
  3653                           
  3654                           	psect	text13
  3655  0FD1                     __ptext13:	
  3656 ;; *************** function _LCD_Clear *****************
  3657 ;; Defined at:
  3658 ;;		line 81 in file "./LCD.h"
  3659 ;; Parameters:    Size  Location     Type
  3660 ;;		None
  3661 ;; Auto vars:     Size  Location     Type
  3662 ;;		None
  3663 ;; Return value:  Size  Location     Type
  3664 ;;                  1    wreg      void 
  3665 ;; Registers used:
  3666 ;;		wreg, status,2, status,0, pclath, cstack
  3667 ;; Tracked objects:
  3668 ;;		On entry : 0/0
  3669 ;;		On exit  : 0/0
  3670 ;;		Unchanged: 0/0
  3671 ;; Data sizes:     COMMON   BANK0   BANK1   BANK3   BANK2
  3672 ;;      Params:         0       0       0       0       0
  3673 ;;      Locals:         0       0       0       0       0
  3674 ;;      Temps:          0       0       0       0       0
  3675 ;;      Totals:         0       0       0       0       0
  3676 ;;Total ram usage:        0 bytes
  3677 ;; Hardware stack levels used: 1
  3678 ;; Hardware stack levels required when called: 1
  3679 ;; This function calls:
  3680 ;;		_LCD_Command
  3681 ;; This function is called by:
  3682 ;;		_main
  3683 ;; This function uses a non-reentrant model
  3684 ;;
  3685                           
  3686  0FD1                     _LCD_Clear:	
  3687                           ;psect for function _LCD_Clear
  3688                           
  3689  0FD1                     l1646:	
  3690                           ;incstack = 0
  3691                           ; Regs used in _LCD_Clear: [wreg+status,2+status,0+pclath+cstack]
  3692                           
  3693                           
  3694                           ;./LCD.h: 83: LCD_Command(0x01);
  3695  0FD1  3001               	movlw	1
  3696  0FD2  120A  158A  27D8  120A  158A  	fcall	_LCD_Command
  3697  0FD7                     l118:
  3698  0FD7  0008               	return
  3699  0FD8                     __end_of_LCD_Clear:
  3700                           
  3701                           	psect	text14
  3702  0FD8                     __ptext14:	
  3703 ;; *************** function _LCD_Command *****************
  3704 ;; Defined at:
  3705 ;;		line 27 in file "./LCD.h"
  3706 ;; Parameters:    Size  Location     Type
  3707 ;;  cmd             1    wreg     unsigned char 
  3708 ;; Auto vars:     Size  Location     Type
  3709 ;;  cmd             1    2[COMMON] unsigned char 
  3710 ;; Return value:  Size  Location     Type
  3711 ;;                  1    wreg      void 
  3712 ;; Registers used:
  3713 ;;		wreg
  3714 ;; Tracked objects:
  3715 ;;		On entry : 0/0
  3716 ;;		On exit  : 0/0
  3717 ;;		Unchanged: 0/0
  3718 ;; Data sizes:     COMMON   BANK0   BANK1   BANK3   BANK2
  3719 ;;      Params:         0       0       0       0       0
  3720 ;;      Locals:         1       0       0       0       0
  3721 ;;      Temps:          2       0       0       0       0
  3722 ;;      Totals:         3       0       0       0       0
  3723 ;;Total ram usage:        3 bytes
  3724 ;; Hardware stack levels used: 1
  3725 ;; This function calls:
  3726 ;;		Nothing
  3727 ;; This function is called by:
  3728 ;;		_LCD_init
  3729 ;;		_LCD_Clear
  3730 ;;		_main
  3731 ;; This function uses a non-reentrant model
  3732 ;;
  3733                           
  3734  0FD8                     _LCD_Command:	
  3735                           ;psect for function _LCD_Command
  3736                           
  3737                           
  3738                           ;incstack = 0
  3739                           ; Regs used in _LCD_Command: [wreg]
  3740                           ;LCD_Command@cmd stored from wreg
  3741  0FD8  00F2               	movwf	LCD_Command@cmd
  3742  0FD9                     l1278:
  3743                           
  3744                           ;./LCD.h: 27: void LCD_Command(unsigned char cmd);./LCD.h: 28: {;./LCD.h: 29: PORTB = cm
      +                          d;
  3745  0FD9  0872               	movf	LCD_Command@cmd,w
  3746  0FDA  1283               	bcf	3,5	;RP0=0, select bank0
  3747  0FDB  1303               	bcf	3,6	;RP1=0, select bank0
  3748  0FDC  0086               	movwf	6	;volatile
  3749  0FDD                     l1280:
  3750                           
  3751                           ;./LCD.h: 30: RC2 = 0 ;
  3752  0FDD  1107               	bcf	7,2	;volatile
  3753  0FDE                     l1282:
  3754                           
  3755                           ;./LCD.h: 31: RC3 = 0;
  3756  0FDE  1187               	bcf	7,3	;volatile
  3757  0FDF                     l1284:
  3758                           
  3759                           ;./LCD.h: 32: RD0 = 1 ;
  3760  0FDF  1408               	bsf	8,0	;volatile
  3761                           
  3762                           ;./LCD.h: 33: _delay((unsigned long)((5)*(4000000/4000.0)));
  3763  0FE0  3007               	movlw	7
  3764  0FE1  00F1               	movwf	??_LCD_Command+1
  3765  0FE2  307D               	movlw	125
  3766  0FE3  00F0               	movwf	??_LCD_Command
  3767  0FE4                     u1817:
  3768  0FE4  0BF0               	decfsz	??_LCD_Command,f
  3769  0FE5  2FE4               	goto	u1817
  3770  0FE6  0BF1               	decfsz	??_LCD_Command+1,f
  3771  0FE7  2FE4               	goto	u1817
  3772  0FE8                     l1286:
  3773                           
  3774                           ;./LCD.h: 34: RD0 = 0;
  3775  0FE8  1283               	bcf	3,5	;RP0=0, select bank0
  3776  0FE9  1303               	bcf	3,6	;RP1=0, select bank0
  3777  0FEA  1008               	bcf	8,0	;volatile
  3778  0FEB                     l97:
  3779  0FEB  0008               	return
  3780  0FEC                     __end_of_LCD_Command:
  3781  007E                     btemp	set	126	;btemp
  3782  007E                     wtemp0	set	126
  3783                           
  3784                           	psect	idloc
  3785                           
  3786                           ;Config register IDLOC0 @ 0x2000
  3787                           ;	unspecified, using default values
  3788  2000                     	org	8192
  3789  2000  3FFF               	dw	16383
  3790                           
  3791                           ;Config register IDLOC1 @ 0x2001
  3792                           ;	unspecified, using default values
  3793  2001                     	org	8193
  3794  2001  3FFF               	dw	16383
  3795                           
  3796                           ;Config register IDLOC2 @ 0x2002
  3797                           ;	unspecified, using default values
  3798  2002                     	org	8194
  3799  2002  3FFF               	dw	16383
  3800                           
  3801                           ;Config register IDLOC3 @ 0x2003
  3802                           ;	unspecified, using default values
  3803  2003                     	org	8195
  3804  2003  3FFF               	dw	16383
  3805                           
  3806                           	psect	config
  3807                           
  3808                           ;Config register CONFIG @ 0x2007
  3809                           ;	Oscillator Selection bits
  3810                           ;	FOSC = HS, HS oscillator
  3811                           ;	Watchdog Timer Enable bit
  3812                           ;	WDTE = OFF, WDT disabled
  3813                           ;	Power-up Timer Enable bit
  3814                           ;	PWRTE = OFF, PWRT disabled
  3815                           ;	Brown-out Reset Enable bit
  3816                           ;	BOREN = ON, BOR enabled
  3817                           ;	Low-Voltage (Single-Supply) In-Circuit Serial Programming Enable bit
  3818                           ;	LVP = OFF, RB3 is digital I/O, HV on MCLR must be used for programming
  3819                           ;	Data EEPROM Memory Code Protection bit
  3820                           ;	CPD = OFF, Data EEPROM code protection off
  3821                           ;	Flash Program Memory Write Enable bits
  3822                           ;	WRT = OFF, Write protection off; all program memory may be written to by EECON control
  3823                           ;	In-Circuit Debugger Mode bit
  3824                           ;	DEBUG = 0x1, unprogrammed default
  3825                           ;	Flash Program Memory Code Protection bit
  3826                           ;	CP = OFF, Code protection off
  3827  2007                     	org	8199
  3828  2007  3F7A               	dw	16250

Data Sizes:
    Strings     30
    Constant    0
    Data        2
    BSS         12
    Persistent  0
    Stack       0

Auto Spaces:
    Space          Size  Autos    Used
    COMMON           14     14      14
    BANK0            80     59      73
    BANK1            80      0       0
    BANK3            96      0       0
    BANK2            96      0       0

Pointer List with Targets:

    sp__itoa	PTR unsigned char  size(1) Largest target is 12
		 -> itoa@buffer(BANK0[12]), 

    LCD_string@str	PTR unsigned char  size(2) Largest target is 512
		 -> RAM(DATA[512]), STR_5(CODE[2]), STR_4(CODE[2]), STR_3(CODE[2]), 
		 -> STR_2(CODE[15]), STR_1(CODE[13]), 


Critical Paths under _main in COMMON

    _itoa->___awdiv
    _dist3->___xxtofl
    _dist2->___xxtofl
    _dist1->___xxtofl
    ___fldiv->___xxtofl
    _LCD_string->_LCD_Data
    _LCD_init->_LCD_Command
    _LCD_Clear->_LCD_Command

Critical Paths under _main in BANK0

    _main->_dist1
    _main->_dist2
    _main->_dist3
    _dist3->___fldiv
    _dist2->___fldiv
    _dist1->___fldiv

Critical Paths under _main in BANK1

    None.

Critical Paths under _main in BANK3

    None.

Critical Paths under _main in BANK2

    None.

Call Graph Tables:

 ---------------------------------------------------------------------------------
 (Depth) Function   	        Calls       Base Space   Used Autos Params    Refs
 ---------------------------------------------------------------------------------
 (0) _main                                                24    24      0    9983
                                             35 BANK0     24    24      0
                          _LCD_Clear
                        _LCD_Command
                           _LCD_init
                         _LCD_string
                             ___flge
                              _dist1
                              _dist2
                              _dist3
                               _itoa
 ---------------------------------------------------------------------------------
 (1) _itoa                                                 7     5      2    1374
                                              9 COMMON     3     1      2
                                              0 BANK0      4     4      0
                            ___awdiv
                            ___awmod
 ---------------------------------------------------------------------------------
 (2) ___awmod                                              7     3      4     448
                                              0 COMMON     7     3      4
 ---------------------------------------------------------------------------------
 (2) ___awdiv                                              9     5      4     452
                                              0 COMMON     9     5      4
 ---------------------------------------------------------------------------------
 (1) _dist3                                                9     5      4    2151
                                             26 BANK0      9     5      4
                            ___fldiv
                           ___xxtofl
 ---------------------------------------------------------------------------------
 (1) _dist2                                                9     5      4    2151
                                             26 BANK0      9     5      4
                            ___fldiv
                           ___xxtofl
 ---------------------------------------------------------------------------------
 (1) _dist1                                                9     5      4    2151
                                             26 BANK0      9     5      4
                            ___fldiv
                           ___xxtofl
 ---------------------------------------------------------------------------------
 (2) ___xxtofl                                            14    10      4     550
                                              0 COMMON    14    10      4
 ---------------------------------------------------------------------------------
 (2) ___fldiv                                             26    18      8    1577
                                              0 BANK0     26    18      8
                           ___xxtofl (ARG)
 ---------------------------------------------------------------------------------
 (1) ___flge                                              12     4      8    1094
                                              0 COMMON    12     4      8
 ---------------------------------------------------------------------------------
 (1) _LCD_string                                           4     2      2     720
                                              3 COMMON     4     2      2
                           _LCD_Data
 ---------------------------------------------------------------------------------
 (2) _LCD_Data                                             3     3      0      22
                                              0 COMMON     3     3      0
 ---------------------------------------------------------------------------------
 (1) _LCD_init                                             0     0      0      22
                        _LCD_Command
 ---------------------------------------------------------------------------------
 (1) _LCD_Clear                                            0     0      0      22
                        _LCD_Command
 ---------------------------------------------------------------------------------
 (2) _LCD_Command                                          3     3      0      22
                                              0 COMMON     3     3      0
 ---------------------------------------------------------------------------------
 Estimated maximum stack depth 2
 ---------------------------------------------------------------------------------

 Call Graph Graphs:

 _main (ROOT)
   _LCD_Clear
     _LCD_Command
   _LCD_Command
   _LCD_init
     _LCD_Command
   _LCD_string
     _LCD_Data
   ___flge
   _dist1
     ___fldiv
       ___xxtofl (ARG)
     ___xxtofl
   _dist2
     ___fldiv
     ___xxtofl
   _dist3
     ___fldiv
     ___xxtofl
   _itoa
     ___awdiv
     ___awmod

 Address spaces:
Name               Size   Autos  Total    Cost      Usage
BANK3               60      0       0       9        0.0%
BITBANK3            60      0       0       8        0.0%
SFR3                 0      0       0       4        0.0%
BITSFR3              0      0       0       4        0.0%
BANK2               60      0       0      11        0.0%
BITBANK2            60      0       0      10        0.0%
SFR2                 0      0       0       5        0.0%
BITSFR2              0      0       0       5        0.0%
BANK1               50      0       0       7        0.0%
BITBANK1            50      0       0       6        0.0%
SFR1                 0      0       0       2        0.0%
BITSFR1              0      0       0       2        0.0%
BANK0               50     3B      49       5       91.2%
BITBANK0            50      0       0       4        0.0%
SFR0                 0      0       0       1        0.0%
BITSFR0              0      0       0       1        0.0%
COMMON               E      E       E       1      100.0%
BITCOMMON            E      0       0       0        0.0%
CODE                 0      0       0       0        0.0%
DATA                 0      0      57      12        0.0%
ABS                  0      0      57       3        0.0%
NULL                 0      0       0       0        0.0%
STACK                0      0       0       2        0.0%
EEDATA             100      0       0       0        0.0%


Microchip Technology PIC Macro Assembler V2.36 build 20220127204148 
Symbol Table                                                                                   Sun Nov 06 22:04:42 2022

           ___fldiv@aexp 0039             ___fldiv@bexp 0038                        pc 0002  
           ___fldiv@sign 0031             ?_LCD_Command 0070                       l70 0090  
                     l72 0094                       l73 00CC                       l81 00E5  
                     l82 011D                       l90 0136                       l67 008B  
                     l91 016E                       l76 00DC                       l69 008F  
                     l85 012D                       l94 0FFF                       l78 00E0  
                     l79 00E1                       l87 0131                       l88 0132  
                     l97 0FEB             ___awdiv@sign 0076                       fsr 0004  
                    l100 004B                      l113 0211                      l106 007B  
                    l115 0227                      l118 0FD7                      l127 07E0  
                    l373 028E                      l394 02AB                      l386 01C7  
                    l571 05C7                      l397 0317                      l653 0353  
                    l398 0330                      l591 05AB                      l655 03EA  
                    l593 05BB                      l585 0539                      l569 0447  
                    l666 03B4                      l667 03C0                      l659 0398  
                    _RC2 003A                      _RD0 0040                      _RC3 003B  
                    _RD1 0041                      _RC4 003C                      _RD2 0042  
                    _RC5 003D                      _RD3 0043                      _RD4 0044  
                    _RD5 0045                      _RD6 0046                      _RD7 0047  
                    u900 025B                      u901 025A                      u920 026C  
                    u921 026B                      u915 025C                      u940 0280  
                    u860 022D                      u941 027F                      u925 0268  
                    u861 022C                      u950 0285                      u870 0238  
                    u951 0284                      u935 0274                      u871 0237  
                    u880 0249                      u960 0174                      u881 0248  
                    u961 0173                      u970 017F                      u971 017E  
                    u980 018A                      u981 0189                      u895 024D  
                    u995 018E                      fsr0 0004                      indf 0000  
           ___awmod@sign 0076              ?_LCD_string 0073                     l1300 023D  
                   l1310 0253                     l1302 0241                     l1400 042F  
                   l1320 0273                     l1312 0257                     l1304 0243  
                   l1410 044F                     l1402 0434                     l1322 027A  
                   l1314 025B                     l1306 0249                     l1500 05AA  
                   l1420 046D                     l1412 045B                     l1404 043C  
                   l1316 026C                     l1308 024C                     l1324 0280  
                   l1340 017B                     l1332 016F                     l1270 0FF1  
                   l1502 05B1                     l1430 0498                     l1414 045F  
                   l1406 043D                     l1326 0285                     l1318 0272  
                   l1350 0194                     l1342 017F                     l1334 0170  
                   l1280 0FDD                     l1272 0FF2                     l1504 05B5  
                   l1440 04BD                     l1432 04A0                     l1424 0476  
                   l1408 043F                     l1520 035B                     l1512 0332  
                   l1600 0122                     l1328 028A                     l1360 01B3  
                   l1352 0198                     l1344 0184                     l1336 0174  
                   l1282 0FDE                     l1274 0FF3                     l1506 05B7  
                   l1450 04E8                     l1442 04BE                     l1434 04A2  
                   l1426 0488                     l1418 0468                     l1370 03EB  
                   l1530 037D                     l1514 0337                     l1610 0165  
                   l1602 0123                     l1290 0229                     l1354 019C  
                   l1346 018A                     l1362 01B9                     l1338 0179  
                   l1284 0FDF                     l1276 0FFC                     l1268 0FED  
                   l1620 004F                     l1460 0505                     l1436 04A7  
                   l1444 04C7                     l1452 04EC                     l1428 0490  
                   l1380 0402                     l1372 03F2                     l1540 03AE  
                   l1532 0381                     l1524 0364                     l1516 033B  
                   l1612 0166                     l1604 012A                     l1292 022D  
                   l1364 01BE                     l1356 01A6                     l1348 018D  
                   l1700 05E2                     l1286 0FE8                     l1278 0FD9  
                   l1622 0061                     l1470 051D                     l1462 0509  
                   l1454 04F2                     l1446 04D9                     l1438 04B9  
                   l1390 041A                     l1382 0407                     l1374 03F8  
                   l1550 03E1                     l1542 03B8                     l1534 038F  
                   l1526 0369                     l1518 034B                     l1606 0137  
                   l1294 0232                     l1366 01C3                     l1358 01AC  
                   l1630 01D3                     l1710 0609                     l1702 05E7  
                   l1616 0033                     l1624 0067                     l1480 053E  
                   l1472 051E                     l1464 050A                     l1456 04FA  
                   l1448 04DA                     l1392 041F                     l1384 040F  
                   l1376 03FC                     l1552 03E2                     l1544 03C2  
                   l1536 039F                     l1528 0376                     l1560 0080  
                   l1608 0164                     l1296 0234                     l1288 0228  
                   l1640 0217                     l1632 01D7                     l1720 062C  
                   l1712 060E                     l1704 05EC                     l1618 004C  
                   l1650 02A3                     l1482 0543                     l1490 0574  
                   l1474 0522                     l1466 0513                     l1458 04FC  
                   l1394 0425                     l1386 0410                     l1378 03FD  
                   l1546 03D8                     l1538 03AA                     l1570 00C3  
                   l1562 0081                     l1298 0238                     l1642 0225  
                   l1634 01DC                     l1626 01C8                     l1730 0658  
                   l1722 0632                     l1714 0614                     l1706 05F2  
                   l1660 02F3                     l1652 02BF                     l1492 0581  
                   l1484 0551                     l1476 0536                     l1468 0519  
                   l1396 0429                     l1388 0412                     l1548 03DD  
                   l1572 00C4                     l1564 0088                     l1556 007C  
                   l1580 00D1                     l1636 01FA                     l1628 01D2  
                   l1740 067A                     l1732 065B                     l1724 063B  
                   l1716 061D                     l1708 05FB                     l1646 0FD1  
                   l1662 032D                     l1654 02C7                     l1494 058F  
                   l1486 0555                     l1398 042A                     l1566 0095  
                   l1558 007C                     l1590 0114                     l1582 00D2  
                   l1638 020B                     l1750 06CE                     l1742 0693  
                   l1734 065C                     l1726 0641                     l1718 0623  
                   l1670 05CB                     l1664 032F                     l1656 02CB  
                   l1648 028F                     l1496 059E                     l1488 056E  
                   l1568 00C2                     l1592 0115                     l1584 00D9  
                   l1576 00CD                     l1760 070F                     l1752 06E7  
                   l1744 06A1                     l1736 065D                     l1728 064A  
                   l1680 05D0                     l1672 05CC                     l1658 02EF  
                   l1498 05A2                     l1586 00E6                     l1578 00CD  
                   l1770 0763                     l1754 06ED                     l1762 071D  
                   l1746 06BC                     l1738 066B                     l1690 05D5  
                   l1682 05D1                     l1674 05CD                     l1588 0113  
                   l1596 011E                     l1772 0769                     l1780 0799  
                   l1764 0738                     l1756 06F5                     l1748 06BF  
                   l1692 05D6                     l1684 05D2                     l1676 05CE  
                   l1668 05C8                     l1598 011E                     l1790 07D3  
                   l1782 07B4                     l1774 0771                     l1766 073B  
                   l1758 0703                     l1694 05D7                     l1686 05D3  
                   l1678 05CF                     l1784 07B7                     l1776 077F  
                   l1768 074A                     l1696 05DA                     l1688 05D4  
                   l1786 07BD                     l1778 078B                     l1698 05DB  
                   l1788 07C5                     STR_1 0022                     STR_2 0013  
                   STR_3 002F                     STR_4 002F                     STR_5 002F  
                   u1000 019C                     u1001 019B                     u1010 01A6  
                   u1011 01A5                     u1100 0434                     u1101 0433  
                   u1110 044F                     u1030 01B9                     u1111 044E  
                   u1031 01B8                     u1015 01A2                     u1200 04FA  
                   u1120 046D                     u1040 01BE                     u1201 04F9  
                   u1121 046C                     u1041 01BD                     u1025 01AD  
                   u1130 04A7                     u1050 03FC                     u1131 04A6  
                   u1051 03FB                     u1300 0564                     u1220 0509  
                   u1060 0402                     u1221 0508                     u1061 0401  
                   u1310 0581                     u1070 0407                     u1311 0580  
                   u1215 04FE                     u1071 0406                     u1320 059E  
                   u1240 051D                     u1160 04BD                     u1080 0429  
                   u1400 039E                     u1321 059D                     u1305 055F  
                   u1241 051C                     u1161 04BC                     u1145 04A9  
                   u1081 0428                     u1401 039D                     u1330 05B5  
                   u1250 0522                     u1090 042F                     u1331 05B4  
                   u1315 057D                     u1251 0521                     u1235 050C  
                   u1155 04B2                     u1091 042E                     u1260 0536  
                   u1180 04D9                     u1420 03AE                     u1340 0337  
                   u1500 00E0                     u1325 059A                     u1261 0535  
                   u1181 04D8                     u1421 03AD                     u1341 0336  
                   u1501 00DF                     u1270 053D                     u1190 04F2  
                   u1430 03B4                     u1350 033B                     u1510 00E5  
                   u1271 053C                     u1191 04F1                     u1175 04C0  
                   u1431 03B3                     u1415 03A3                     u1351 033A  
                   u1511 00E4                     u1600 02CB                     u1280 0543  
                   u1440 03B8                     u1360 035B                     u1520 0131  
                   u1601 02CA                     u1281 0542                     u1185 04D5  
                   u1441 03B7                     u1361 035A                     u1521 0130  
                   u1290 0555                     u1450 03CD                     u1530 0136  
                   u1611 02DA                     u1291 0554                     u1531 0135  
                   u1540 007B                     u1620 02F3                     u1612 02DB  
                   u1460 03DD                     u1380 037C                     u1700 07B4  
                   u1541 007A                     u1621 02F2                     u1613 02E0  
                   u1461 03DC                     u1381 037B                     u1701 07B3  
                   u1614 02E1                     u1470 03E1                     u1550 01D7  
                   u1631 0302                     u1615 02E6                     u1471 03E0  
                   u1455 03C8                     u1375 036E                     u1551 01D6  
                   u1640 032D                     u1632 0303                     u1616 02E7  
                   u1480 008F                     u1560 0211                     u1641 032C  
                   u1633 0308                     u1481 008E                     u1561 0210  
                   u1634 0309                     u1490 0094                     u1570 0217  
                   u1650 0693                     u1635 030E                     u1395 0390  
                   u1491 0093                     u1571 0216                     u1651 0692  
                   u1636 030F                     u1580 02A3                     u1660 06BC  
                   u1645 0329                     u1581 02A2                     u1661 06BB  
                   u1717 0603                     u1590 02BF                     u1670 06E7  
                   u1807 0FF8                     u1591 02BE                     u1671 06E6  
                   u1727 0652                     u1680 0738                     u1817 0FE4  
                   u1681 0737                     u1737 0665                     u1690 0763  
                   u1691 0762                     u1747 069B                     u1757 0717  
                   u1767 0793                     u1777 0127                     u1787 00D6  
                   u1797 0085                     _TMR1 000E                     _main 05C8  
                   _itoa 01C8                     btemp 007E                     start 0000  
        ___fldiv@new_exp 0032         __end_of_LCD_Data 1000             LCD_Data@data 0072  
       __end_of_LCD_init 004C                    ?_main 0070          __end_of___fldiv 05C8  
                  ?_itoa 0079          __end_of___awdiv 028F          __end_of___awmod 01C8  
        ___awdiv@divisor 0070          ___awdiv@counter 0075                    _PORTB 0006  
                  _TRISB 0086                    _dist1 007C                    _dist2 00CD  
                  _dist3 011E                    itoa@c 0022                    pclath 000A  
                  status 0003                    wtemp0 007E          __initialization 07E4  
           __end_of_main 07E4             __end_of_itoa 0228                   ??_main 0043  
                 ??_itoa 007B        __end_of_LCD_Clear 0FD8              LCD_string@i 0075  
          main@distance1 004F            main@distance2 0053            main@distance3 0057  
                 ?_dist1 003A                   ?_dist2 003A                   ?_dist3 003A  
       ___awdiv@dividend 0072                   _TMR1CS 0081                   _TMR1ON 0080  
                 _TRISC2 043A                   _TRISD0 0440                   _TRISC3 043B  
                 _TRISD1 0441                   _TRISD2 0442                   _TRISC4 043C  
                 _TRISD3 0443                   _TRISC5 043D                   _TRISD4 0444  
                 _TRISD5 0445                   _TRISD6 0446                   _TRISD7 0447  
       __end_of___xxtofl 03EB                   ___flge 028F                ??___fldiv 0028  
              ??___awdiv 0074                ??___awmod 0074         ___awdiv@quotient 0077  
        ___awmod@divisor 0070          ___awmod@counter 0075                   main@c1 004E  
                 main@c2 004D                   main@c3 004C               ___flge@ff1 0070  
             ___flge@ff2 0074             ___xxtofl@arg 007A             ___xxtofl@exp 0079  
           ___xxtofl@val 0070                ?_LCD_Data 0070  __end_of__initialization 07FC  
              ?_LCD_init 0070           __pcstackCOMMON 0070           dist1@distance1 003F  
           __pidataBANK0 0031            __end_of_dist1 00CD            __end_of_dist2 011E  
          __end_of_dist3 016F           dist2@distance2 003F             ??_LCD_string 0075  
         dist3@distance3 003F                  ??_dist1 003E                  ??_dist2 003E  
                ??_dist3 003E               __pbssBANK0 005B               ??_LCD_Data 0070  
             ??_LCD_init 0073               __pmaintext 05C8                  ?___flge 0070  
     __end_of_LCD_string 007C                  _T1CKPS0 0084                  _T1CKPS1 0085  
              ?___xxtofl 0070               __stringtab 0003                  ___fldiv 03EB  
                ___awdiv 0228                  ___awmod 016F                  __ptext1 01C8  
                __ptext2 016F                  __ptext3 0228                  __ptext4 011E  
                __ptext5 00CD                  __ptext6 007C                  __ptext7 0331  
                __ptext8 03EB                  __ptext9 028F                  _door_CM 0067  
             ??___xxtofl 0074         ___awmod@dividend 0072                _LCD_Clear 0FD1  
   end_of_initialization 07FC           LCD_Command@cmd 0072             itoa@original 0020  
          ___xxtofl@sign 0078               ?_LCD_Clear 0070              ___fldiv@grs 0034  
            ___fldiv@rem 002D               main@count1 004A               main@count2 0048  
             main@count3 0046            ??_LCD_Command 0070           __end_of___flge 0331  
    start_initialization 07E4                 ??___flge 0078              __pdataBANK0 0067  
             itoa@buffer 005B                ___fldiv@a 0020                ___fldiv@b 0024  
    __end_of_LCD_Command 0FEC                ___latbits 0002            __pcstackBANK0 0020  
            ??_LCD_Clear 0073            LCD_string@str 0073                 ?___fldiv 0020  
               ?___awdiv 0070                 ?___awmod 0070                __pstrings 0003  
               _LCD_Data 0FEC                 _LCD_init 0033              _LCD_Command 0FD8  
            __stringbase 0012                itoa@value 0079       __end_of__stringtab 0013  
               ___xxtofl 0331                 __ptext10 004C                 __ptext11 0FEC  
               __ptext12 0033                 __ptext13 0FD1                 __ptext14 0FD8  
             _LCD_string 004C                stringcode 000D                 stringdir 000D  
               stringtab 0003  
