

Microchip MPLAB XC8 Assembler V2.36 build 20220127204148 
                                                                                               Mon Dec 05 23:54:07 2022

Microchip MPLAB XC8 C Compiler v2.36 (Free license) build 20220127204148 Og1 
     1                           	processor	16F877A
     2                           	pagewidth 120
     3                           	opt	flic
     4                           	psect	idataBANK0,global,class=CODE,delta=2,noexec
     5                           	psect	strings,global,class=STRING,delta=2,noexec
     6                           	psect	cinit,global,class=CODE,merge=1,delta=2
     7                           	psect	bssBANK0,global,class=BANK0,space=1,delta=1,noexec
     8                           	psect	dataBANK0,global,class=BANK0,space=1,delta=1,noexec
     9                           	psect	clrtext,global,class=CODE,delta=2
    10                           	psect	cstackCOMMON,global,class=COMMON,space=1,delta=1,noexec
    11                           	psect	cstackBANK0,global,class=BANK0,space=1,delta=1,noexec
    12                           	psect	maintext,global,class=CODE,split=1,delta=2
    13                           	psect	text1,local,class=CODE,merge=1,delta=2
    14                           	psect	text2,local,class=CODE,merge=1,delta=2
    15                           	psect	text3,local,class=CODE,merge=1,delta=2
    16                           	psect	text4,local,class=CODE,merge=1,delta=2
    17                           	psect	text5,local,class=CODE,merge=1,delta=2
    18                           	psect	text6,local,class=CODE,merge=1,delta=2,group=1
    19                           	psect	text7,local,class=CODE,merge=1,delta=2,group=1
    20                           	psect	text8,local,class=CODE,merge=1,delta=2
    21                           	psect	text9,local,class=CODE,merge=1,delta=2
    22                           	psect	text10,local,class=CODE,merge=1,delta=2
    23                           	psect	text11,local,class=CODE,merge=1,delta=2
    24                           	psect	text12,local,class=CODE,merge=1,delta=2
    25                           	psect	text13,local,class=CODE,merge=1,delta=2
    26                           	psect	text14,local,class=CODE,merge=1,delta=2
    27                           	psect	text15,local,class=CODE,merge=1,delta=2
    28                           	psect	text16,local,class=CODE,merge=1,delta=2,group=1
    29                           	psect	text17,local,class=CODE,merge=1,delta=2,group=1
    30                           	psect	text18,local,class=CODE,merge=1,delta=2,group=1
    31                           	psect	text19,local,class=CODE,merge=1,delta=2
    32                           	psect	text20,local,class=CODE,merge=1,delta=2
    33                           	psect	text21,local,class=CODE,merge=1,delta=2
    34                           	psect	text22,local,class=CODE,merge=1,delta=2
    35                           	psect	idloc,global,abs,ovrld,class=IDLOC,space=5,delta=2,noexec
    36                           	psect	config,global,abs,ovrld,class=CONFIG,space=4,delta=2,noexec
    37                           	dabs	1,0x7E,2
    38  0000                     
    39                           ; Version 2.40
    40                           ; Generated 17/11/2021 GMT
    41                           ; 
    42                           ; Copyright © 2021, Microchip Technology Inc. and its subsidiaries ("Microchip")
    43                           ; All rights reserved.
    44                           ; 
    45                           ; This software is developed by Microchip Technology Inc. and its subsidiaries ("Microch
      +                          ip").
    46                           ; 
    47                           ; Redistribution and use in source and binary forms, with or without modification, are
    48                           ; permitted provided that the following conditions are met:
    49                           ; 
    50                           ;     1. Redistributions of source code must retain the above copyright notice, this lis
      +                          t of
    51                           ;        conditions and the following disclaimer.
    52                           ; 
    53                           ;     2. Redistributions in binary form must reproduce the above copyright notice, this 
      +                          list
    54                           ;        of conditions and the following disclaimer in the documentation and/or other
    55                           ;        materials provided with the distribution. Publication is not required when
    56                           ;        this file is used in an embedded application.
    57                           ; 
    58                           ;     3. Microchip's name may not be used to endorse or promote products derived from th
      +                          is
    59                           ;        software without specific prior written permission.
    60                           ; 
    61                           ; THIS SOFTWARE IS PROVIDED BY MICROCHIP "AS IS" AND ANY EXPRESS OR IMPLIED WARRANTIES,
    62                           ; INCLUDING, BUT NOT LIMITED TO, THE IMPLIED WARRANTIES OF MERCHANTABILITY AND FITNESS F
      +                          OR
    63                           ; PURPOSE ARE DISCLAIMED.  IN NO EVENT SHALL MICROCHIP BE LIABLE FOR ANY DIRECT, INDIREC
      +                          T,
    64                           ; INCIDENTAL, SPECIAL, EXEMPLARY, OR CONSEQUENTIAL DAMAGES (INCLUDING BUT NOT LIMITED TO
    65                           ; PROCUREMENT OF SUBSTITUTE GOODS OR SERVICES; LOSS OF USE, DATA OR PROFITS; OR BUSINESS
    66                           ; INTERRUPTION) HOWSOEVER CAUSED AND ON ANY THEORY OF LIABILITY, WHETHER IN CONTRACT, ST
      +                          RICT
    67                           ; LIABILITY, OR TORT (INCLUDING NEGLIGENCE OR OTHERWISE) ARISING IN ANY WAY OUT OF THE U
      +                          SE OF
    68                           ; THIS SOFTWARE, EVEN IF ADVISED OF THE POSSIBILITY OF SUCH DAMAGE.
    69                           ; 
    70                           ; 
    71                           ; Code-generator required, PIC16F877A Definitions
    72                           ; 
    73                           ; SFR Addresses
    74  0000                     	;# 
    75  0001                     	;# 
    76  0002                     	;# 
    77  0003                     	;# 
    78  0004                     	;# 
    79  0005                     	;# 
    80  0006                     	;# 
    81  0007                     	;# 
    82  0008                     	;# 
    83  0009                     	;# 
    84  000A                     	;# 
    85  000B                     	;# 
    86  000C                     	;# 
    87  000D                     	;# 
    88  000E                     	;# 
    89  000E                     	;# 
    90  000F                     	;# 
    91  0010                     	;# 
    92  0011                     	;# 
    93  0012                     	;# 
    94  0013                     	;# 
    95  0014                     	;# 
    96  0015                     	;# 
    97  0015                     	;# 
    98  0016                     	;# 
    99  0017                     	;# 
   100  0018                     	;# 
   101  0019                     	;# 
   102  001A                     	;# 
   103  001B                     	;# 
   104  001B                     	;# 
   105  001C                     	;# 
   106  001D                     	;# 
   107  001E                     	;# 
   108  001F                     	;# 
   109  0081                     	;# 
   110  0085                     	;# 
   111  0086                     	;# 
   112  0087                     	;# 
   113  0088                     	;# 
   114  0089                     	;# 
   115  008C                     	;# 
   116  008D                     	;# 
   117  008E                     	;# 
   118  0091                     	;# 
   119  0092                     	;# 
   120  0093                     	;# 
   121  0094                     	;# 
   122  0098                     	;# 
   123  0099                     	;# 
   124  009C                     	;# 
   125  009D                     	;# 
   126  009E                     	;# 
   127  009F                     	;# 
   128  010C                     	;# 
   129  010D                     	;# 
   130  010E                     	;# 
   131  010F                     	;# 
   132  018C                     	;# 
   133  018D                     	;# 
   134  0000                     	;# 
   135  0001                     	;# 
   136  0002                     	;# 
   137  0003                     	;# 
   138  0004                     	;# 
   139  0005                     	;# 
   140  0006                     	;# 
   141  0007                     	;# 
   142  0008                     	;# 
   143  0009                     	;# 
   144  000A                     	;# 
   145  000B                     	;# 
   146  000C                     	;# 
   147  000D                     	;# 
   148  000E                     	;# 
   149  000E                     	;# 
   150  000F                     	;# 
   151  0010                     	;# 
   152  0011                     	;# 
   153  0012                     	;# 
   154  0013                     	;# 
   155  0014                     	;# 
   156  0015                     	;# 
   157  0015                     	;# 
   158  0016                     	;# 
   159  0017                     	;# 
   160  0018                     	;# 
   161  0019                     	;# 
   162  001A                     	;# 
   163  001B                     	;# 
   164  001B                     	;# 
   165  001C                     	;# 
   166  001D                     	;# 
   167  001E                     	;# 
   168  001F                     	;# 
   169  0081                     	;# 
   170  0085                     	;# 
   171  0086                     	;# 
   172  0087                     	;# 
   173  0088                     	;# 
   174  0089                     	;# 
   175  008C                     	;# 
   176  008D                     	;# 
   177  008E                     	;# 
   178  0091                     	;# 
   179  0092                     	;# 
   180  0093                     	;# 
   181  0094                     	;# 
   182  0098                     	;# 
   183  0099                     	;# 
   184  009C                     	;# 
   185  009D                     	;# 
   186  009E                     	;# 
   187  009F                     	;# 
   188  010C                     	;# 
   189  010D                     	;# 
   190  010E                     	;# 
   191  010F                     	;# 
   192  018C                     	;# 
   193  018D                     	;# 
   194                           
   195                           	psect	idataBANK0
   196  0085                     __pidataBANK0:
   197                           
   198                           ;initializer for _wifiCounter
   199  0085  3401               	retlw	1
   200  0086  3400               	retlw	0
   201                           
   202                           ;initializer for _door_CM
   203  0087  343C               	retlw	60
   204  0088  3400               	retlw	0
   205  000E                     _TMR1	set	14
   206  001A                     _RCREG	set	26
   207  0019                     _TXREG	set	25
   208  0006                     _PORTB	set	6
   209  002D                     _RA5	set	45
   210  002C                     _RA4	set	44
   211  002B                     _RA3	set	43
   212  002A                     _RA2	set	42
   213  0029                     _RA1	set	41
   214  0028                     _RA0	set	40
   215  0043                     _RD3	set	67
   216  0042                     _RD2	set	66
   217  0041                     _RD1	set	65
   218  0081                     _TMR1CS	set	129
   219  0065                     _RCIF	set	101
   220  00C1                     _OERR	set	193
   221  0064                     _TXIF	set	100
   222  00C4                     _CREN	set	196
   223  00C6                     _RX9	set	198
   224  00C7                     _SPEN	set	199
   225  0040                     _RD0	set	64
   226  003B                     _RC3	set	59
   227  003A                     _RC2	set	58
   228  003C                     _RC4	set	60
   229  003D                     _RC5	set	61
   230  0044                     _RD4	set	68
   231  0045                     _RD5	set	69
   232  0085                     _T1CKPS1	set	133
   233  0084                     _T1CKPS0	set	132
   234  0080                     _TMR1ON	set	128
   235  0046                     _RD6	set	70
   236  0047                     _RD7	set	71
   237  0086                     _TRISB	set	134
   238  0099                     _SPBRG	set	153
   239  042D                     _TRISA5	set	1069
   240  042C                     _TRISA4	set	1068
   241  042B                     _TRISA3	set	1067
   242  042A                     _TRISA2	set	1066
   243  0429                     _TRISA1	set	1065
   244  0428                     _TRISA0	set	1064
   245  043C                     _TRISC4	set	1084
   246  043D                     _TRISC5	set	1085
   247  0444                     _TRISD4	set	1092
   248  0445                     _TRISD5	set	1093
   249  0446                     _TRISD6	set	1094
   250  0447                     _TRISD7	set	1095
   251  0443                     _TRISD3	set	1091
   252  0442                     _TRISD2	set	1090
   253  0441                     _TRISD1	set	1089
   254  0440                     _TRISD0	set	1088
   255  043B                     _TRISC3	set	1083
   256  043A                     _TRISC2	set	1082
   257  04C1                     _TRMT	set	1217
   258  04C5                     _TXEN	set	1221
   259  04C6                     _TX9	set	1222
   260  04C4                     _SYNC	set	1220
   261  04C2                     _BRGH	set	1218
   262  043F                     _TRISC7	set	1087
   263  043E                     _TRISC6	set	1086
   264                           
   265                           	psect	strings
   266  0003                     __pstrings:
   267  0003                     stringtab:
   268  0003                     __stringtab:
   269                           
   270                           ;	String table - string pointers are 1 byte each
   271  0003  1BFF               	btfsc	btemp+1,7
   272  0004  280D               	ljmp	stringcode
   273  0005  1383               	bcf	3,7
   274  0006  187F               	btfsc	btemp+1,0
   275  0007  1783               	bsf	3,7
   276  0008  0800               	movf	0,w
   277  0009  0A84               	incf	4,f
   278  000A  1903               	skipnz
   279  000B  0AFF               	incf	btemp+1,f
   280  000C  0008               	return
   281  000D                     stringcode:
   282  000D                     stringdir:
   283  000D  3000               	movlw	high stringdir
   284  000E  008A               	movwf	10
   285  000F  0804               	movf	4,w
   286  0010  0A84               	incf	4,f
   287  0011  0782               	addwf	2,f
   288  0012                     __stringbase:
   289  0012  3400               	retlw	0
   290  0013                     __end_of__stringtab:
   291  0013                     STR_7:
   292  0013  342D               	retlw	45	;'-'
   293  0014  342D               	retlw	45	;'-'
   294  0015  342D               	retlw	45	;'-'
   295  0016  342D               	retlw	45	;'-'
   296  0017  342D               	retlw	45	;'-'
   297  0018  342D               	retlw	45	;'-'
   298  0019  342D               	retlw	45	;'-'
   299  001A  342D               	retlw	45	;'-'
   300  001B  342D               	retlw	45	;'-'
   301  001C  342D               	retlw	45	;'-'
   302  001D  342D               	retlw	45	;'-'
   303  001E  342D               	retlw	45	;'-'
   304  001F  342D               	retlw	45	;'-'
   305  0020  342D               	retlw	45	;'-'
   306  0021  342D               	retlw	45	;'-'
   307  0022  342D               	retlw	45	;'-'
   308  0023  342D               	retlw	45	;'-'
   309  0024  342D               	retlw	45	;'-'
   310  0025  342D               	retlw	45	;'-'
   311  0026  342D               	retlw	45	;'-'
   312  0027  342D               	retlw	45	;'-'
   313  0028  342D               	retlw	45	;'-'
   314  0029  342D               	retlw	45	;'-'
   315  002A  342D               	retlw	45	;'-'
   316  002B  340A               	retlw	10
   317  002C  3400               	retlw	0
   318  002D                     STR_5:
   319  002D  3450               	retlw	80	;'P'
   320  002E  3465               	retlw	101	;'e'
   321  002F  346F               	retlw	111	;'o'
   322  0030  3470               	retlw	112	;'p'
   323  0031  346C               	retlw	108	;'l'
   324  0032  3465               	retlw	101	;'e'
   325  0033  3420               	retlw	32	;' '
   326  0034  3462               	retlw	98	;'b'
   327  0035  3465               	retlw	101	;'e'
   328  0036  3474               	retlw	116	;'t'
   329  0037  3477               	retlw	119	;'w'
   330  0038  3465               	retlw	101	;'e'
   331  0039  3465               	retlw	101	;'e'
   332  003A  346E               	retlw	110	;'n'
   333  003B  3420               	retlw	32	;' '
   334  003C  3431               	retlw	49	;'1'
   335  003D  3435               	retlw	53	;'5'
   336  003E  3430               	retlw	48	;'0'
   337  003F  342D               	retlw	45	;'-'
   338  0040  3431               	retlw	49	;'1'
   339  0041  3437               	retlw	55	;'7'
   340  0042  3430               	retlw	48	;'0'
   341  0043  343A               	retlw	58	;':'
   342  0044  3420               	retlw	32	;' '
   343  0045  3420               	retlw	32	;' '
   344  0046  3400               	retlw	0
   345  0047                     STR_8:
   346  0047  3450               	retlw	80	;'P'
   347  0048  3465               	retlw	101	;'e'
   348  0049  346F               	retlw	111	;'o'
   349  004A  3470               	retlw	112	;'p'
   350  004B  346C               	retlw	108	;'l'
   351  004C  3465               	retlw	101	;'e'
   352  004D  3420               	retlw	32	;' '
   353  004E  3462               	retlw	98	;'b'
   354  004F  3465               	retlw	101	;'e'
   355  0050  3474               	retlw	116	;'t'
   356  0051  3477               	retlw	119	;'w'
   357  0052  3465               	retlw	101	;'e'
   358  0053  3465               	retlw	101	;'e'
   359  0054  346E               	retlw	110	;'n'
   360  0055  3420               	retlw	32	;' '
   361  0056  3431               	retlw	49	;'1'
   362  0057  3437               	retlw	55	;'7'
   363  0058  3430               	retlw	48	;'0'
   364  0059  342D               	retlw	45	;'-'
   365  005A  3431               	retlw	49	;'1'
   366  005B  3439               	retlw	57	;'9'
   367  005C  3430               	retlw	48	;'0'
   368  005D  343A               	retlw	58	;':'
   369  005E  3420               	retlw	32	;' '
   370  005F  3420               	retlw	32	;' '
   371  0060  3400               	retlw	0
   372  0061                     STR_11:
   373  0061  3450               	retlw	80	;'P'
   374  0062  3465               	retlw	101	;'e'
   375  0063  346F               	retlw	111	;'o'
   376  0064  3470               	retlw	112	;'p'
   377  0065  346C               	retlw	108	;'l'
   378  0066  3465               	retlw	101	;'e'
   379  0067  3420               	retlw	32	;' '
   380  0068  346F               	retlw	111	;'o'
   381  0069  3476               	retlw	118	;'v'
   382  006A  3465               	retlw	101	;'e'
   383  006B  3472               	retlw	114	;'r'
   384  006C  3420               	retlw	32	;' '
   385  006D  3431               	retlw	49	;'1'
   386  006E  3439               	retlw	57	;'9'
   387  006F  3430               	retlw	48	;'0'
   388  0070  343A               	retlw	58	;':'
   389  0071  3420               	retlw	32	;' '
   390  0072  3420               	retlw	32	;' '
   391  0073  3400               	retlw	0
   392  0074                     STR_1:
   393  0074  3435               	retlw	53	;'5'
   394  0075  342D               	retlw	45	;'-'
   395  0076  3437               	retlw	55	;'7'
   396  0077  3420               	retlw	32	;' '
   397  0078  3437               	retlw	55	;'7'
   398  0079  342D               	retlw	45	;'-'
   399  007A  3439               	retlw	57	;'9'
   400  007B  3420               	retlw	32	;' '
   401  007C  346F               	retlw	111	;'o'
   402  007D  3476               	retlw	118	;'v'
   403  007E  3465               	retlw	101	;'e'
   404  007F  3472               	retlw	114	;'r'
   405  0080  3420               	retlw	32	;' '
   406  0081  3439               	retlw	57	;'9'
   407  0082  3400               	retlw	0
   408  0083                     STR_2:
   409  0083  3430               	retlw	48	;'0'
   410  0084  3400               	retlw	0
   411  002B                     
   412                           	psect	cinit
   413  07DB                     start_initialization:	
   414                           ; #config settings
   415                           
   416  07DB                     __initialization:
   417                           
   418                           ; Initialize objects allocated to BANK0
   419  07DB  120A  118A  2085  120A  118A  	fcall	__pidataBANK0	;fetch initializer
   420  07E0  00E7               	movwf	__pdataBANK0& (0+127)
   421  07E1  120A  118A  2086  120A  118A  	fcall	__pidataBANK0+1	;fetch initializer
   422  07E6  00E8               	movwf	(__pdataBANK0+1)& (0+127)
   423  07E7  120A  118A  2087  120A  118A  	fcall	__pidataBANK0+2	;fetch initializer
   424  07EC  00E9               	movwf	(__pdataBANK0+2)& (0+127)
   425  07ED  120A  118A  2088  120A  118A  	fcall	__pidataBANK0+3	;fetch initializer
   426  07F2  00EA               	movwf	(__pdataBANK0+3)& (0+127)
   427                           
   428                           ; Clear objects allocated to BANK0
   429  07F3  1383               	bcf	3,7	;select IRP bank0
   430  07F4  3052               	movlw	low __pbssBANK0
   431  07F5  0084               	movwf	4
   432  07F6  3067               	movlw	low (__pbssBANK0+21)
   433  07F7  120A  158A  2498  120A  118A  	fcall	clear_ram0
   434  07FC                     end_of_initialization:	
   435                           ;End of C runtime variable initialization code
   436                           
   437  07FC                     __end_of__initialization:
   438  07FC  0183               	clrf	3
   439  07FD  120A  118A  2AC0   	ljmp	_main	;jump to C main() function
   440                           
   441                           	psect	bssBANK0
   442  0052                     __pbssBANK0:
   443  0052                     _count1:
   444  0052                     	ds	2
   445  0054                     _count2:
   446  0054                     	ds	2
   447  0056                     _count3:
   448  0056                     	ds	2
   449  0058                     _c1:
   450  0058                     	ds	1
   451  0059                     _c2:
   452  0059                     	ds	1
   453  005A                     _c3:
   454  005A                     	ds	1
   455  005B                     itoa@buffer:
   456  005B                     	ds	12
   457                           
   458                           	psect	dataBANK0
   459  0067                     __pdataBANK0:
   460  0067                     _wifiCounter:
   461  0067                     	ds	2
   462  0069                     _door_CM:
   463  0069                     	ds	2
   464                           
   465                           	psect	clrtext
   466  0C98                     clear_ram0:	
   467                           ;	Called with FSR containing the base address, and
   468                           ;	W with the last address+1
   469                           
   470  0C98  0064               	clrwdt	;clear the watchdog before getting into this loop
   471  0C99                     clrloop0:
   472  0C99  0180               	clrf	0	;clear RAM location pointed to by FSR
   473  0C9A  0A84               	incf	4,f	;increment pointer
   474  0C9B  0604               	xorwf	4,w	;XOR with final address
   475  0C9C  1903               	btfsc	3,2	;have we reached the end yet?
   476  0C9D  3400               	retlw	0	;all done for this memory range, return
   477  0C9E  0604               	xorwf	4,w	;XOR again to restore value
   478  0C9F  2C99               	goto	clrloop0	;do the next byte
   479                           
   480                           	psect	cstackCOMMON
   481  0070                     __pcstackCOMMON:
   482  0070                     ?___flge:
   483  0070                     ?_updateWifiCounter:	
   484                           ; 1 bit 
   485                           
   486  0070                     ?_person150_170:	
   487                           ; 1 bytes @ 0x0
   488                           
   489  0070                     ?_person170_190:	
   490                           ; 1 bytes @ 0x0
   491                           
   492  0070                     ?_personOver_190:	
   493                           ; 1 bytes @ 0x0
   494                           
   495  0070                     ?_LCD_Data:	
   496                           ; 1 bytes @ 0x0
   497                           
   498  0070                     ??_LCD_Data:	
   499                           ; 1 bytes @ 0x0
   500                           
   501  0070                     ?_LCD_Command:	
   502                           ; 1 bytes @ 0x0
   503                           
   504  0070                     ??_LCD_Command:	
   505                           ; 1 bytes @ 0x0
   506                           
   507  0070                     ?_LCD_init:	
   508                           ; 1 bytes @ 0x0
   509                           
   510  0070                     ?_LCD_Clear:	
   511                           ; 1 bytes @ 0x0
   512                           
   513  0070                     ?_Initialize_Bluetooth:	
   514                           ; 1 bytes @ 0x0
   515                           
   516  0070                     ??_Initialize_Bluetooth:	
   517                           ; 1 bytes @ 0x0
   518                           
   519  0070                     ?_BT_load_char:	
   520                           ; 1 bytes @ 0x0
   521                           
   522  0070                     ??_BT_load_char:	
   523                           ; 1 bytes @ 0x0
   524                           
   525  0070                     ?_broadcast_BT:	
   526                           ; 1 bytes @ 0x0
   527                           
   528  0070                     ??_broadcast_BT:	
   529                           ; 1 bytes @ 0x0
   530                           
   531  0070                     ?_main:	
   532                           ; 1 bytes @ 0x0
   533                           
   534  0070                     ?___awdiv:	
   535                           ; 1 bytes @ 0x0
   536                           
   537  0070                     ?___awmod:	
   538                           ; 2 bytes @ 0x0
   539                           
   540  0070                     ?___xxtofl:	
   541                           ; 2 bytes @ 0x0
   542                           
   543  0070                     BT_load_char@byte:	
   544                           ; 4 bytes @ 0x0
   545                           
   546  0070                     ___awdiv@divisor:	
   547                           ; 1 bytes @ 0x0
   548                           
   549  0070                     ___awmod@divisor:	
   550                           ; 2 bytes @ 0x0
   551                           
   552  0070                     ___flge@ff1:	
   553                           ; 2 bytes @ 0x0
   554                           
   555  0070                     ___xxtofl@val:	
   556                           ; 4 bytes @ 0x0
   557                           
   558                           
   559                           ; 4 bytes @ 0x0
   560  0070                     	ds	1
   561  0071                     ?_BT_load_string:
   562  0071                     BT_load_string@string:	
   563                           ; 1 bytes @ 0x1
   564                           
   565                           
   566                           ; 2 bytes @ 0x1
   567  0071                     	ds	1
   568  0072                     LCD_Data@data:
   569  0072                     LCD_Command@cmd:	
   570                           ; 1 bytes @ 0x2
   571                           
   572  0072                     ___awdiv@dividend:	
   573                           ; 1 bytes @ 0x2
   574                           
   575  0072                     ___awmod@dividend:	
   576                           ; 2 bytes @ 0x2
   577                           
   578                           
   579                           ; 2 bytes @ 0x2
   580  0072                     	ds	1
   581  0073                     ??_LCD_init:
   582  0073                     ?_LCD_string:	
   583                           ; 1 bytes @ 0x3
   584                           
   585  0073                     ??_LCD_Clear:	
   586                           ; 1 bytes @ 0x3
   587                           
   588  0073                     ??_BT_load_string:	
   589                           ; 1 bytes @ 0x3
   590                           
   591  0073                     LCD_string@str:	
   592                           ; 1 bytes @ 0x3
   593                           
   594                           
   595                           ; 2 bytes @ 0x3
   596  0073                     	ds	1
   597  0074                     ??___awdiv:
   598  0074                     ??___awmod:	
   599                           ; 1 bytes @ 0x4
   600                           
   601  0074                     ??___xxtofl:	
   602                           ; 1 bytes @ 0x4
   603                           
   604  0074                     ___flge@ff2:	
   605                           ; 1 bytes @ 0x4
   606                           
   607                           
   608                           ; 4 bytes @ 0x4
   609  0074                     	ds	1
   610  0075                     ??_LCD_string:
   611  0075                     ___awdiv@counter:	
   612                           ; 1 bytes @ 0x5
   613                           
   614  0075                     ___awmod@counter:	
   615                           ; 1 bytes @ 0x5
   616                           
   617  0075                     LCD_string@i:	
   618                           ; 1 bytes @ 0x5
   619                           
   620                           
   621                           ; 2 bytes @ 0x5
   622  0075                     	ds	1
   623  0076                     ___awdiv@sign:
   624  0076                     ___awmod@sign:	
   625                           ; 1 bytes @ 0x6
   626                           
   627                           
   628                           ; 1 bytes @ 0x6
   629  0076                     	ds	1
   630  0077                     ___awdiv@quotient:
   631                           
   632                           ; 2 bytes @ 0x7
   633  0077                     	ds	1
   634  0078                     ??___flge:
   635  0078                     ___xxtofl@sign:	
   636                           ; 1 bytes @ 0x8
   637                           
   638                           
   639                           ; 1 bytes @ 0x8
   640  0078                     	ds	1
   641  0079                     ??_updateWifiCounter:
   642  0079                     ?_itoa:	
   643                           ; 1 bytes @ 0x9
   644                           
   645  0079                     ___xxtofl@exp:	
   646                           ; 1 bytes @ 0x9
   647                           
   648  0079                     itoa@value:	
   649                           ; 1 bytes @ 0x9
   650                           
   651                           
   652                           ; 2 bytes @ 0x9
   653  0079                     	ds	1
   654  007A                     ___xxtofl@arg:
   655                           
   656                           ; 4 bytes @ 0xA
   657  007A                     	ds	1
   658  007B                     ??_itoa:
   659                           
   660                           ; 1 bytes @ 0xB
   661  007B                     	ds	3
   662                           
   663                           	psect	cstackBANK0
   664  0020                     __pcstackBANK0:
   665  0020                     ?___fldiv:
   666  0020                     itoa@original:	
   667                           ; 4 bytes @ 0x0
   668                           
   669  0020                     updateWifiCounter@temp:	
   670                           ; 2 bytes @ 0x0
   671                           
   672  0020                     ___fldiv@a:	
   673                           ; 2 bytes @ 0x0
   674                           
   675                           
   676                           ; 4 bytes @ 0x0
   677  0020                     	ds	2
   678  0022                     itoa@c:
   679  0022                     updateWifiCounter@temp_180:	
   680                           ; 2 bytes @ 0x2
   681                           
   682                           
   683                           ; 2 bytes @ 0x2
   684  0022                     	ds	2
   685  0024                     ??_person150_170:
   686  0024                     ??_person170_190:	
   687                           ; 1 bytes @ 0x4
   688                           
   689  0024                     ??_personOver_190:	
   690                           ; 1 bytes @ 0x4
   691                           
   692  0024                     updateWifiCounter@temp_181:	
   693                           ; 1 bytes @ 0x4
   694                           
   695  0024                     ___fldiv@b:	
   696                           ; 2 bytes @ 0x4
   697                           
   698                           
   699                           ; 4 bytes @ 0x4
   700  0024                     	ds	4
   701  0028                     ??___fldiv:
   702                           
   703                           ; 1 bytes @ 0x8
   704  0028                     	ds	5
   705  002D                     ___fldiv@rem:
   706                           
   707                           ; 4 bytes @ 0xD
   708  002D                     	ds	4
   709  0031                     ___fldiv@sign:
   710                           
   711                           ; 1 bytes @ 0x11
   712  0031                     	ds	1
   713  0032                     ___fldiv@new_exp:
   714                           
   715                           ; 2 bytes @ 0x12
   716  0032                     	ds	2
   717  0034                     ___fldiv@grs:
   718                           
   719                           ; 4 bytes @ 0x14
   720  0034                     	ds	4
   721  0038                     ___fldiv@bexp:
   722                           
   723                           ; 1 bytes @ 0x18
   724  0038                     	ds	1
   725  0039                     ___fldiv@aexp:
   726                           
   727                           ; 1 bytes @ 0x19
   728  0039                     	ds	1
   729  003A                     ?_dist1:
   730  003A                     ?_dist2:	
   731                           ; 4 bytes @ 0x1A
   732                           
   733  003A                     ?_dist3:	
   734                           ; 4 bytes @ 0x1A
   735                           
   736                           
   737                           ; 4 bytes @ 0x1A
   738  003A                     	ds	4
   739  003E                     ??_dist1:
   740  003E                     ??_dist2:	
   741                           ; 1 bytes @ 0x1E
   742                           
   743  003E                     ??_dist3:	
   744                           ; 1 bytes @ 0x1E
   745                           
   746                           
   747                           ; 1 bytes @ 0x1E
   748  003E                     	ds	1
   749  003F                     dist1@distance1:
   750  003F                     dist2@distance2:	
   751                           ; 4 bytes @ 0x1F
   752                           
   753  003F                     dist3@distance3:	
   754                           ; 4 bytes @ 0x1F
   755                           
   756                           
   757                           ; 4 bytes @ 0x1F
   758  003F                     	ds	4
   759  0043                     ??_main:
   760                           
   761                           ; 1 bytes @ 0x23
   762  0043                     	ds	3
   763  0046                     main@distance1:
   764                           
   765                           ; 4 bytes @ 0x26
   766  0046                     	ds	4
   767  004A                     main@distance2:
   768                           
   769                           ; 4 bytes @ 0x2A
   770  004A                     	ds	4
   771  004E                     main@distance3:
   772                           
   773                           ; 4 bytes @ 0x2E
   774  004E                     	ds	4
   775                           
   776                           	psect	maintext
   777  02C0                     __pmaintext:	
   778 ;;
   779 ;;Main: autosize = 0, tempsize = 3, incstack = 0, save=0
   780 ;;
   781 ;; *************** function _main *****************
   782 ;; Defined at:
   783 ;;		line 34 in file "mainBT.c"
   784 ;; Parameters:    Size  Location     Type
   785 ;;		None
   786 ;; Auto vars:     Size  Location     Type
   787 ;;  distance3       4   46[BANK0 ] float 
   788 ;;  distance2       4   42[BANK0 ] float 
   789 ;;  distance1       4   38[BANK0 ] float 
   790 ;; Return value:  Size  Location     Type
   791 ;;                  1    wreg      void 
   792 ;; Registers used:
   793 ;;		wreg, fsr0l, fsr0h, status,2, status,0, btemp+1, pclath, cstack
   794 ;; Tracked objects:
   795 ;;		On entry : B00/0
   796 ;;		On exit  : 0/0
   797 ;;		Unchanged: 0/0
   798 ;; Data sizes:     COMMON   BANK0   BANK1   BANK3   BANK2
   799 ;;      Params:         0       0       0       0       0
   800 ;;      Locals:         0      12       0       0       0
   801 ;;      Temps:          0       3       0       0       0
   802 ;;      Totals:         0      15       0       0       0
   803 ;;Total ram usage:       15 bytes
   804 ;; Hardware stack levels required when called: 3
   805 ;; This function calls:
   806 ;;		_Initialize_Bluetooth
   807 ;;		_LCD_Clear
   808 ;;		_LCD_Command
   809 ;;		_LCD_init
   810 ;;		_LCD_string
   811 ;;		___flge
   812 ;;		_dist1
   813 ;;		_dist2
   814 ;;		_dist3
   815 ;;		_person150_170
   816 ;;		_person170_190
   817 ;;		_personOver_190
   818 ;;		_updateWifiCounter
   819 ;; This function is called by:
   820 ;;		Startup code after reset
   821 ;; This function uses a non-reentrant model
   822 ;;
   823                           
   824  02C0                     _main:	
   825                           ;psect for function _main
   826                           
   827  02C0                     l2331:	
   828                           ;incstack = 0
   829                           ; Regs used in _main: [wreg-fsr0h+status,2+status,0+btemp+1+pclath+cstack]
   830                           
   831                           
   832                           ;mainBT.c: 35:   TRISB = 0;
   833  02C0  1683               	bsf	3,5	;RP0=1, select bank1
   834  02C1  1303               	bcf	3,6	;RP1=0, select bank1
   835  02C2  0186               	clrf	6	;volatile
   836  02C3                     l2333:
   837                           
   838                           ;mainBT.c: 36:   TRISC2 = 0;
   839  02C3  1107               	bcf	7,2	;volatile
   840  02C4                     l2335:
   841                           
   842                           ;mainBT.c: 37:   TRISC3 = 0;
   843  02C4  1187               	bcf	7,3	;volatile
   844  02C5                     l2337:
   845                           
   846                           ;mainBT.c: 38:   TRISD0 = 0;
   847  02C5  1008               	bcf	8,0	;volatile
   848  02C6                     l2339:
   849                           
   850                           ;mainBT.c: 40:   TRISD1 = 0;
   851  02C6  1088               	bcf	8,1	;volatile
   852  02C7                     l2341:
   853                           
   854                           ;mainBT.c: 41:   TRISD2 = 0;
   855  02C7  1108               	bcf	8,2	;volatile
   856  02C8                     l2343:
   857                           
   858                           ;mainBT.c: 42:   TRISD3 = 0;
   859  02C8  1188               	bcf	8,3	;volatile
   860  02C9                     l2345:
   861                           
   862                           ;mainBT.c: 44:   TRISD7 = 0;
   863  02C9  1388               	bcf	8,7	;volatile
   864  02CA                     l2347:
   865                           
   866                           ;mainBT.c: 45:   TRISD6 = 1;
   867  02CA  1708               	bsf	8,6	;volatile
   868  02CB                     l2349:
   869                           
   870                           ;mainBT.c: 46:   TRISD5 = 0;
   871  02CB  1288               	bcf	8,5	;volatile
   872  02CC                     l2351:
   873                           
   874                           ;mainBT.c: 47:   TRISD4 = 1;
   875  02CC  1608               	bsf	8,4	;volatile
   876  02CD                     l2353:
   877                           
   878                           ;mainBT.c: 48:   TRISC5 = 0;
   879  02CD  1287               	bcf	7,5	;volatile
   880  02CE                     l2355:
   881                           
   882                           ;mainBT.c: 49:   TRISC4 = 1;
   883  02CE  1607               	bsf	7,4	;volatile
   884  02CF                     l2357:
   885                           
   886                           ;mainBT.c: 51:   T1CKPS0 = 0;
   887  02CF  1283               	bcf	3,5	;RP0=0, select bank0
   888  02D0  1303               	bcf	3,6	;RP1=0, select bank0
   889  02D1  1210               	bcf	16,4	;volatile
   890  02D2                     l2359:
   891                           
   892                           ;mainBT.c: 52:   T1CKPS1 = 0;
   893  02D2  1290               	bcf	16,5	;volatile
   894  02D3                     l2361:
   895                           
   896                           ;mainBT.c: 54:   TMR1CS = 0;
   897  02D3  1090               	bcf	16,1	;volatile
   898  02D4                     l2363:
   899                           
   900                           ;mainBT.c: 56:   TRISA0 = 0;
   901  02D4  1683               	bsf	3,5	;RP0=1, select bank1
   902  02D5  1303               	bcf	3,6	;RP1=0, select bank1
   903  02D6  1005               	bcf	5,0	;volatile
   904  02D7                     l2365:
   905                           
   906                           ;mainBT.c: 57:   TRISA1 = 0;
   907  02D7  1085               	bcf	5,1	;volatile
   908  02D8                     l2367:
   909                           
   910                           ;mainBT.c: 58:   TRISA2 = 0;
   911  02D8  1105               	bcf	5,2	;volatile
   912  02D9                     l2369:
   913                           
   914                           ;mainBT.c: 59:   TRISA3 = 0;
   915  02D9  1185               	bcf	5,3	;volatile
   916  02DA                     l2371:
   917                           
   918                           ;mainBT.c: 60:   TRISA4 = 0;
   919  02DA  1205               	bcf	5,4	;volatile
   920  02DB                     l2373:
   921                           
   922                           ;mainBT.c: 61:   TRISA5 = 0;
   923  02DB  1285               	bcf	5,5	;volatile
   924  02DC                     l2375:
   925                           
   926                           ;mainBT.c: 63:   float distance1;;mainBT.c: 64:   float distance2;;mainBT.c: 65:   float
      +                           distance3;;mainBT.c: 69:   Initialize_Bluetooth();
   927  02DC  120A  158A  24C1  120A  118A  	fcall	_Initialize_Bluetooth
   928  02E1                     l2377:
   929                           
   930                           ;mainBT.c: 70:   LCD_init();
   931  02E1  120A  158A  24FD  120A  118A  	fcall	_LCD_init
   932  02E6                     l2379:
   933                           
   934                           ;mainBT.c: 71:   LCD_Clear();
   935  02E6  120A  158A  2491  120A  118A  	fcall	_LCD_Clear
   936  02EB                     l2381:
   937                           
   938                           ;mainBT.c: 72:   LCD_Command(0x80);
   939  02EB  3080               	movlw	128
   940  02EC  120A  158A  24D5  120A  118A  	fcall	_LCD_Command
   941  02F1                     l2383:
   942                           
   943                           ;mainBT.c: 73:   LCD_string("5-7 7-9 over 9");
   944  02F1  3062               	movlw	(low ((STR_1-__stringbase)| (0+32768)))& (0+255)
   945  02F2  00F3               	movwf	LCD_string@str
   946  02F3  3080               	movlw	128
   947  02F4  00F4               	movwf	LCD_string@str+1
   948  02F5  120A  158A  253C  120A  118A  	fcall	_LCD_string
   949  02FA                     l2385:
   950                           
   951                           ;mainBT.c: 74:   LCD_Command(0xC0);
   952  02FA  30C0               	movlw	192
   953  02FB  120A  158A  24D5  120A  118A  	fcall	_LCD_Command
   954  0300                     l2387:
   955                           
   956                           ;mainBT.c: 75:   LCD_string("0");
   957  0300  3071               	movlw	(low ((STR_2-__stringbase)| (0+32768)))& (0+255)
   958  0301  00F3               	movwf	LCD_string@str
   959  0302  3080               	movlw	128
   960  0303  00F4               	movwf	LCD_string@str+1
   961  0304  120A  158A  253C  120A  118A  	fcall	_LCD_string
   962  0309                     l2389:
   963                           
   964                           ;mainBT.c: 76:   LCD_Command(0xC5);
   965  0309  30C5               	movlw	197
   966  030A  120A  158A  24D5  120A  118A  	fcall	_LCD_Command
   967  030F                     l2391:
   968                           
   969                           ;mainBT.c: 77:   LCD_string("0");
   970  030F  3071               	movlw	(low ((STR_2-__stringbase)| (0+32768)))& (0+255)
   971  0310  00F3               	movwf	LCD_string@str
   972  0311  3080               	movlw	128
   973  0312  00F4               	movwf	LCD_string@str+1
   974  0313  120A  158A  253C  120A  118A  	fcall	_LCD_string
   975  0318                     l2393:
   976                           
   977                           ;mainBT.c: 78:   LCD_Command(0xCC);
   978  0318  30CC               	movlw	204
   979  0319  120A  158A  24D5  120A  118A  	fcall	_LCD_Command
   980  031E                     l2395:
   981                           
   982                           ;mainBT.c: 79:   LCD_string("0");
   983  031E  3071               	movlw	(low ((STR_2-__stringbase)| (0+32768)))& (0+255)
   984  031F  00F3               	movwf	LCD_string@str
   985  0320  3080               	movlw	128
   986  0321  00F4               	movwf	LCD_string@str+1
   987  0322  120A  158A  253C  120A  118A  	fcall	_LCD_string
   988  0327                     l2397:
   989                           
   990                           ;mainBT.c: 80:   _delay((unsigned long)((500)*(4000000/4000.0)));
   991  0327  3003               	movlw	3
   992  0328  1283               	bcf	3,5	;RP0=0, select bank0
   993  0329  1303               	bcf	3,6	;RP1=0, select bank0
   994  032A  00C5               	movwf	??_main+2
   995  032B  308A               	movlw	138
   996  032C  00C4               	movwf	??_main+1
   997  032D  3055               	movlw	85
   998  032E  00C3               	movwf	??_main
   999  032F                     u2347:
  1000  032F  0BC3               	decfsz	??_main,f
  1001  0330  2B2F               	goto	u2347
  1002  0331  0BC4               	decfsz	??_main+1,f
  1003  0332  2B2F               	goto	u2347
  1004  0333  0BC5               	decfsz	??_main+2,f
  1005  0334  2B2F               	goto	u2347
  1006  0335                     l2399:
  1007                           
  1008                           ;mainBT.c: 84:       RD1=0;
  1009  0335  1283               	bcf	3,5	;RP0=0, select bank0
  1010  0336  1303               	bcf	3,6	;RP1=0, select bank0
  1011  0337  1088               	bcf	8,1	;volatile
  1012  0338                     l2401:
  1013                           
  1014                           ;mainBT.c: 85:       RD2=0;
  1015  0338  1108               	bcf	8,2	;volatile
  1016  0339                     l2403:
  1017                           
  1018                           ;mainBT.c: 86:       RD3=0;
  1019  0339  1188               	bcf	8,3	;volatile
  1020  033A                     l2405:
  1021                           
  1022                           ;mainBT.c: 87:       updateWifiCounter();
  1023  033A  120A  118A  243E  120A  118A  	fcall	_updateWifiCounter
  1024  033F                     l2407:
  1025                           
  1026                           ;mainBT.c: 88:       _delay((unsigned long)((50)*(4000000/4000.0)));
  1027  033F  3041               	movlw	65
  1028  0340  1283               	bcf	3,5	;RP0=0, select bank0
  1029  0341  1303               	bcf	3,6	;RP1=0, select bank0
  1030  0342  00C4               	movwf	??_main+1
  1031  0343  30ED               	movlw	237
  1032  0344  00C3               	movwf	??_main
  1033  0345                     u2357:
  1034  0345  0BC3               	decfsz	??_main,f
  1035  0346  2B45               	goto	u2357
  1036  0347  0BC4               	decfsz	??_main+1,f
  1037  0348  2B45               	goto	u2357
  1038  0349  2B4A               	nop2
  1039  034A                     l2409:
  1040                           
  1041                           ;mainBT.c: 89:       distance3 = dist3();
  1042  034A  120A  158A  260E  120A  118A  	fcall	_dist3
  1043  034F  1283               	bcf	3,5	;RP0=0, select bank0
  1044  0350  1303               	bcf	3,6	;RP1=0, select bank0
  1045  0351  083D               	movf	?_dist3+3,w
  1046  0352  00D1               	movwf	main@distance3+3
  1047  0353  083C               	movf	?_dist3+2,w
  1048  0354  00D0               	movwf	main@distance3+2
  1049  0355  083B               	movf	?_dist3+1,w
  1050  0356  00CF               	movwf	main@distance3+1
  1051  0357  083A               	movf	?_dist3,w
  1052  0358  00CE               	movwf	main@distance3
  1053  0359                     l2411:
  1054                           
  1055                           ;mainBT.c: 90:       if(distance3 > door_CM){_delay((unsigned long)((500)*(4000000/4000.
      +                          0)));}
  1056  0359  3042               	movlw	66
  1057  035A  00F3               	movwf	___flge@ff1+3
  1058  035B  3070               	movlw	112
  1059  035C  00F2               	movwf	___flge@ff1+2
  1060  035D  3000               	movlw	0
  1061  035E  00F1               	movwf	___flge@ff1+1
  1062  035F  3000               	movlw	0
  1063  0360  00F0               	movwf	___flge@ff1
  1064  0361  0851               	movf	main@distance3+3,w
  1065  0362  00F7               	movwf	___flge@ff2+3
  1066  0363  0850               	movf	main@distance3+2,w
  1067  0364  00F6               	movwf	___flge@ff2+2
  1068  0365  084F               	movf	main@distance3+1,w
  1069  0366  00F5               	movwf	___flge@ff2+1
  1070  0367  084E               	movf	main@distance3,w
  1071  0368  00F4               	movwf	___flge@ff2
  1072  0369  120A  118A  2164  120A  118A  	fcall	___flge
  1073  036E  1803               	btfsc	3,0
  1074  036F  2B71               	goto	u2281
  1075  0370  2B72               	goto	u2280
  1076  0371                     u2281:
  1077  0371  2B80               	goto	l2415
  1078  0372                     u2280:
  1079  0372                     l2413:
  1080  0372  3003               	movlw	3
  1081  0373  1283               	bcf	3,5	;RP0=0, select bank0
  1082  0374  1303               	bcf	3,6	;RP1=0, select bank0
  1083  0375  00C5               	movwf	??_main+2
  1084  0376  308A               	movlw	138
  1085  0377  00C4               	movwf	??_main+1
  1086  0378  3055               	movlw	85
  1087  0379  00C3               	movwf	??_main
  1088  037A                     u2367:
  1089  037A  0BC3               	decfsz	??_main,f
  1090  037B  2B7A               	goto	u2367
  1091  037C  0BC4               	decfsz	??_main+1,f
  1092  037D  2B7A               	goto	u2367
  1093  037E  0BC5               	decfsz	??_main+2,f
  1094  037F  2B7A               	goto	u2367
  1095  0380                     l2415:
  1096                           
  1097                           ;mainBT.c: 91:       if(distance3 < door_CM){
  1098  0380  1283               	bcf	3,5	;RP0=0, select bank0
  1099  0381  1303               	bcf	3,6	;RP1=0, select bank0
  1100  0382  0851               	movf	main@distance3+3,w
  1101  0383  00F3               	movwf	___flge@ff1+3
  1102  0384  0850               	movf	main@distance3+2,w
  1103  0385  00F2               	movwf	___flge@ff1+2
  1104  0386  084F               	movf	main@distance3+1,w
  1105  0387  00F1               	movwf	___flge@ff1+1
  1106  0388  084E               	movf	main@distance3,w
  1107  0389  00F0               	movwf	___flge@ff1
  1108  038A  3042               	movlw	66
  1109  038B  00F7               	movwf	___flge@ff2+3
  1110  038C  3070               	movlw	112
  1111  038D  00F6               	movwf	___flge@ff2+2
  1112  038E  3000               	movlw	0
  1113  038F  00F5               	movwf	___flge@ff2+1
  1114  0390  3000               	movlw	0
  1115  0391  00F4               	movwf	___flge@ff2
  1116  0392  120A  118A  2164  120A  118A  	fcall	___flge
  1117  0397  1803               	btfsc	3,0
  1118  0398  2B9A               	goto	u2291
  1119  0399  2B9B               	goto	u2290
  1120  039A                     u2291:
  1121  039A  2B35               	goto	l2399
  1122  039B                     u2290:
  1123  039B                     l2417:
  1124                           
  1125                           ;mainBT.c: 92:         RD1=1;
  1126  039B  1283               	bcf	3,5	;RP0=0, select bank0
  1127  039C  1303               	bcf	3,6	;RP1=0, select bank0
  1128  039D  1488               	bsf	8,1	;volatile
  1129  039E                     l2419:
  1130                           
  1131                           ;mainBT.c: 93:         distance2=dist2();
  1132  039E  120A  158A  25BD  120A  118A  	fcall	_dist2
  1133  03A3  1283               	bcf	3,5	;RP0=0, select bank0
  1134  03A4  1303               	bcf	3,6	;RP1=0, select bank0
  1135  03A5  083D               	movf	?_dist2+3,w
  1136  03A6  00CD               	movwf	main@distance2+3
  1137  03A7  083C               	movf	?_dist2+2,w
  1138  03A8  00CC               	movwf	main@distance2+2
  1139  03A9  083B               	movf	?_dist2+1,w
  1140  03AA  00CB               	movwf	main@distance2+1
  1141  03AB  083A               	movf	?_dist2,w
  1142  03AC  00CA               	movwf	main@distance2
  1143  03AD                     l2421:
  1144                           
  1145                           ;mainBT.c: 94:         if(distance2 > door_CM){person150_170();}
  1146  03AD  3042               	movlw	66
  1147  03AE  00F3               	movwf	___flge@ff1+3
  1148  03AF  3070               	movlw	112
  1149  03B0  00F2               	movwf	___flge@ff1+2
  1150  03B1  3000               	movlw	0
  1151  03B2  00F1               	movwf	___flge@ff1+1
  1152  03B3  3000               	movlw	0
  1153  03B4  00F0               	movwf	___flge@ff1
  1154  03B5  084D               	movf	main@distance2+3,w
  1155  03B6  00F7               	movwf	___flge@ff2+3
  1156  03B7  084C               	movf	main@distance2+2,w
  1157  03B8  00F6               	movwf	___flge@ff2+2
  1158  03B9  084B               	movf	main@distance2+1,w
  1159  03BA  00F5               	movwf	___flge@ff2+1
  1160  03BB  084A               	movf	main@distance2,w
  1161  03BC  00F4               	movwf	___flge@ff2
  1162  03BD  120A  118A  2164  120A  118A  	fcall	___flge
  1163  03C2  1803               	btfsc	3,0
  1164  03C3  2BC5               	goto	u2301
  1165  03C4  2BC6               	goto	u2300
  1166  03C5                     u2301:
  1167  03C5  2BCB               	goto	l2425
  1168  03C6                     u2300:
  1169  03C6                     l2423:
  1170  03C6  120A  158A  2718  120A  118A  	fcall	_person150_170
  1171  03CB                     l2425:
  1172                           
  1173                           ;mainBT.c: 95:         if(distance2 < door_CM){
  1174  03CB  1283               	bcf	3,5	;RP0=0, select bank0
  1175  03CC  1303               	bcf	3,6	;RP1=0, select bank0
  1176  03CD  084D               	movf	main@distance2+3,w
  1177  03CE  00F3               	movwf	___flge@ff1+3
  1178  03CF  084C               	movf	main@distance2+2,w
  1179  03D0  00F2               	movwf	___flge@ff1+2
  1180  03D1  084B               	movf	main@distance2+1,w
  1181  03D2  00F1               	movwf	___flge@ff1+1
  1182  03D3  084A               	movf	main@distance2,w
  1183  03D4  00F0               	movwf	___flge@ff1
  1184  03D5  3042               	movlw	66
  1185  03D6  00F7               	movwf	___flge@ff2+3
  1186  03D7  3070               	movlw	112
  1187  03D8  00F6               	movwf	___flge@ff2+2
  1188  03D9  3000               	movlw	0
  1189  03DA  00F5               	movwf	___flge@ff2+1
  1190  03DB  3000               	movlw	0
  1191  03DC  00F4               	movwf	___flge@ff2
  1192  03DD  120A  118A  2164  120A  118A  	fcall	___flge
  1193  03E2  1803               	btfsc	3,0
  1194  03E3  2BE5               	goto	u2311
  1195  03E4  2BE6               	goto	u2310
  1196  03E5                     u2311:
  1197  03E5  2B35               	goto	l2399
  1198  03E6                     u2310:
  1199  03E6                     l2427:
  1200                           
  1201                           ;mainBT.c: 96:             RD2=1;
  1202  03E6  1283               	bcf	3,5	;RP0=0, select bank0
  1203  03E7  1303               	bcf	3,6	;RP1=0, select bank0
  1204  03E8  1508               	bsf	8,2	;volatile
  1205  03E9                     l2429:
  1206                           
  1207                           ;mainBT.c: 97:             distance1= dist1();
  1208  03E9  120A  158A  256C  120A  118A  	fcall	_dist1
  1209  03EE  1283               	bcf	3,5	;RP0=0, select bank0
  1210  03EF  1303               	bcf	3,6	;RP1=0, select bank0
  1211  03F0  083D               	movf	?_dist1+3,w
  1212  03F1  00C9               	movwf	main@distance1+3
  1213  03F2  083C               	movf	?_dist1+2,w
  1214  03F3  00C8               	movwf	main@distance1+2
  1215  03F4  083B               	movf	?_dist1+1,w
  1216  03F5  00C7               	movwf	main@distance1+1
  1217  03F6  083A               	movf	?_dist1,w
  1218  03F7  00C6               	movwf	main@distance1
  1219  03F8                     l2431:
  1220                           
  1221                           ;mainBT.c: 98:             if(distance1 > door_CM){person170_190();}
  1222  03F8  3042               	movlw	66
  1223  03F9  00F3               	movwf	___flge@ff1+3
  1224  03FA  3070               	movlw	112
  1225  03FB  00F2               	movwf	___flge@ff1+2
  1226  03FC  3000               	movlw	0
  1227  03FD  00F1               	movwf	___flge@ff1+1
  1228  03FE  3000               	movlw	0
  1229  03FF  00F0               	movwf	___flge@ff1
  1230  0400  0849               	movf	main@distance1+3,w
  1231  0401  00F7               	movwf	___flge@ff2+3
  1232  0402  0848               	movf	main@distance1+2,w
  1233  0403  00F6               	movwf	___flge@ff2+2
  1234  0404  0847               	movf	main@distance1+1,w
  1235  0405  00F5               	movwf	___flge@ff2+1
  1236  0406  0846               	movf	main@distance1,w
  1237  0407  00F4               	movwf	___flge@ff2
  1238  0408  120A  118A  2164  120A  118A  	fcall	___flge
  1239  040D  1803               	btfsc	3,0
  1240  040E  2C10               	goto	u2321
  1241  040F  2C11               	goto	u2320
  1242  0410                     u2321:
  1243  0410  2C16               	goto	l2435
  1244  0411                     u2320:
  1245  0411                     l2433:
  1246  0411  120A  158A  278C  120A  118A  	fcall	_person170_190
  1247  0416                     l2435:
  1248                           
  1249                           ;mainBT.c: 99:             if(distance1 < door_CM){
  1250  0416  1283               	bcf	3,5	;RP0=0, select bank0
  1251  0417  1303               	bcf	3,6	;RP1=0, select bank0
  1252  0418  0849               	movf	main@distance1+3,w
  1253  0419  00F3               	movwf	___flge@ff1+3
  1254  041A  0848               	movf	main@distance1+2,w
  1255  041B  00F2               	movwf	___flge@ff1+2
  1256  041C  0847               	movf	main@distance1+1,w
  1257  041D  00F1               	movwf	___flge@ff1+1
  1258  041E  0846               	movf	main@distance1,w
  1259  041F  00F0               	movwf	___flge@ff1
  1260  0420  3042               	movlw	66
  1261  0421  00F7               	movwf	___flge@ff2+3
  1262  0422  3070               	movlw	112
  1263  0423  00F6               	movwf	___flge@ff2+2
  1264  0424  3000               	movlw	0
  1265  0425  00F5               	movwf	___flge@ff2+1
  1266  0426  3000               	movlw	0
  1267  0427  00F4               	movwf	___flge@ff2
  1268  0428  120A  118A  2164  120A  118A  	fcall	___flge
  1269  042D  1803               	btfsc	3,0
  1270  042E  2C30               	goto	u2331
  1271  042F  2C31               	goto	u2330
  1272  0430                     u2331:
  1273  0430  2C3A               	goto	l235
  1274  0431                     u2330:
  1275  0431                     l2437:
  1276                           
  1277                           ;mainBT.c: 100:                 RD3=1;
  1278  0431  1283               	bcf	3,5	;RP0=0, select bank0
  1279  0432  1303               	bcf	3,6	;RP1=0, select bank0
  1280  0433  1588               	bsf	8,3	;volatile
  1281  0434                     l2439:
  1282                           
  1283                           ;mainBT.c: 101:                 personOver_190();
  1284  0434  120A  118A  20F0  120A  118A  	fcall	_personOver_190
  1285  0439  2B35               	goto	l2399
  1286  043A                     l235:	
  1287                           ;mainBT.c: 104:       }
  1288                           
  1289  043A  2B35               	goto	l2399
  1290  043B  120A  118A  2800   	ljmp	start
  1291  043E                     __end_of_main:
  1292                           
  1293                           	psect	text1
  1294  043E                     __ptext1:	
  1295 ;; *************** function _updateWifiCounter *****************
  1296 ;; Defined at:
  1297 ;;		line 157 in file "mainBT.c"
  1298 ;; Parameters:    Size  Location     Type
  1299 ;;		None
  1300 ;; Auto vars:     Size  Location     Type
  1301 ;;  temp            2    4[BANK0 ] int 
  1302 ;;  temp            2    2[BANK0 ] int 
  1303 ;;  temp            2    0[BANK0 ] int 
  1304 ;; Return value:  Size  Location     Type
  1305 ;;                  1    wreg      void 
  1306 ;; Registers used:
  1307 ;;		wreg, status,2, status,0, pclath, cstack
  1308 ;; Tracked objects:
  1309 ;;		On entry : 0/0
  1310 ;;		On exit  : 0/0
  1311 ;;		Unchanged: 0/0
  1312 ;; Data sizes:     COMMON   BANK0   BANK1   BANK3   BANK2
  1313 ;;      Params:         0       0       0       0       0
  1314 ;;      Locals:         0       6       0       0       0
  1315 ;;      Temps:          0       0       0       0       0
  1316 ;;      Totals:         0       6       0       0       0
  1317 ;;Total ram usage:        6 bytes
  1318 ;; Hardware stack levels used: 1
  1319 ;; Hardware stack levels required when called: 1
  1320 ;; This function calls:
  1321 ;;		___awdiv
  1322 ;; This function is called by:
  1323 ;;		_main
  1324 ;; This function uses a non-reentrant model
  1325 ;;
  1326                           
  1327  043E                     _updateWifiCounter:	
  1328                           ;psect for function _updateWifiCounter
  1329                           
  1330  043E                     l2079:	
  1331                           ;incstack = 0
  1332                           ; Regs used in _updateWifiCounter: [wreg+status,2+status,0+pclath+cstack]
  1333                           
  1334                           
  1335                           ;mainBT.c: 160:     if(wifiCounter == 1){
  1336  043E  1283               	bcf	3,5	;RP0=0, select bank0
  1337  043F  1303               	bcf	3,6	;RP1=0, select bank0
  1338  0440  0367               	decf	_wifiCounter,w
  1339  0441  0468               	iorwf	_wifiCounter+1,w
  1340  0442  1D03               	btfss	3,2
  1341  0443  2C45               	goto	u1941
  1342  0444  2C46               	goto	u1940
  1343  0445                     u1941:
  1344  0445  2CD5               	goto	l2131
  1345  0446                     u1940:
  1346  0446                     l2081:
  1347                           
  1348                           ;mainBT.c: 162:         RA0 = 0;
  1349  0446  1005               	bcf	5,0	;volatile
  1350                           
  1351                           ;mainBT.c: 163:         RA1 = 0;
  1352  0447  1085               	bcf	5,1	;volatile
  1353  0448                     l2083:
  1354                           
  1355                           ;mainBT.c: 166:         int temp;;mainBT.c: 167:         temp = count3%2;
  1356  0448  3001               	movlw	1
  1357  0449  0556               	andwf	_count3,w
  1358  044A  00A0               	movwf	updateWifiCounter@temp
  1359  044B  3000               	movlw	0
  1360  044C  0557               	andwf	_count3+1,w
  1361  044D  00A1               	movwf	updateWifiCounter@temp+1
  1362  044E                     l2085:
  1363                           
  1364                           ;mainBT.c: 168:         if (temp ==1){RA2 = 1;}
  1365  044E  0320               	decf	updateWifiCounter@temp,w
  1366  044F  0421               	iorwf	updateWifiCounter@temp+1,w
  1367  0450  1D03               	btfss	3,2
  1368  0451  2C53               	goto	u1951
  1369  0452  2C54               	goto	u1950
  1370  0453                     u1951:
  1371  0453  2C55               	goto	l2089
  1372  0454                     u1950:
  1373  0454                     l2087:
  1374  0454  1505               	bsf	5,2	;volatile
  1375  0455                     l2089:
  1376                           
  1377                           ;mainBT.c: 169:         if (temp ==0){RA2 = 0;}
  1378  0455  0820               	movf	updateWifiCounter@temp,w
  1379  0456  0421               	iorwf	updateWifiCounter@temp+1,w
  1380  0457  1D03               	btfss	3,2
  1381  0458  2C5A               	goto	u1961
  1382  0459  2C5B               	goto	u1960
  1383  045A                     u1961:
  1384  045A  2C5C               	goto	l2093
  1385  045B                     u1960:
  1386  045B                     l2091:
  1387  045B  1105               	bcf	5,2	;volatile
  1388  045C                     l2093:
  1389                           
  1390                           ;mainBT.c: 170:         count3 = count3/2;
  1391  045C  3002               	movlw	2
  1392  045D  00F0               	movwf	___awdiv@divisor
  1393  045E  3000               	movlw	0
  1394  045F  00F1               	movwf	___awdiv@divisor+1
  1395  0460  0857               	movf	_count3+1,w
  1396  0461  00F3               	movwf	___awdiv@dividend+1
  1397  0462  0856               	movf	_count3,w
  1398  0463  00F2               	movwf	___awdiv@dividend
  1399  0464  120A  118A  2089  120A  118A  	fcall	___awdiv
  1400  0469  0871               	movf	?___awdiv+1,w
  1401  046A  1283               	bcf	3,5	;RP0=0, select bank0
  1402  046B  1303               	bcf	3,6	;RP1=0, select bank0
  1403  046C  00D7               	movwf	_count3+1
  1404  046D  0870               	movf	?___awdiv,w
  1405  046E  00D6               	movwf	_count3
  1406  046F                     l2095:
  1407                           
  1408                           ;mainBT.c: 171:         temp = count3%2;
  1409  046F  3001               	movlw	1
  1410  0470  0556               	andwf	_count3,w
  1411  0471  00A0               	movwf	updateWifiCounter@temp
  1412  0472  3000               	movlw	0
  1413  0473  0557               	andwf	_count3+1,w
  1414  0474  00A1               	movwf	updateWifiCounter@temp+1
  1415  0475                     l2097:
  1416                           
  1417                           ;mainBT.c: 172:         if (temp ==1){RA3 = 1;}
  1418  0475  0320               	decf	updateWifiCounter@temp,w
  1419  0476  0421               	iorwf	updateWifiCounter@temp+1,w
  1420  0477  1D03               	btfss	3,2
  1421  0478  2C7A               	goto	u1971
  1422  0479  2C7B               	goto	u1970
  1423  047A                     u1971:
  1424  047A  2C7C               	goto	l2101
  1425  047B                     u1970:
  1426  047B                     l2099:
  1427  047B  1585               	bsf	5,3	;volatile
  1428  047C                     l2101:
  1429                           
  1430                           ;mainBT.c: 173:         if (temp ==0){RA3 = 0;}
  1431  047C  0820               	movf	updateWifiCounter@temp,w
  1432  047D  0421               	iorwf	updateWifiCounter@temp+1,w
  1433  047E  1D03               	btfss	3,2
  1434  047F  2C81               	goto	u1981
  1435  0480  2C82               	goto	u1980
  1436  0481                     u1981:
  1437  0481  2C83               	goto	l2105
  1438  0482                     u1980:
  1439  0482                     l2103:
  1440  0482  1185               	bcf	5,3	;volatile
  1441  0483                     l2105:
  1442                           
  1443                           ;mainBT.c: 174:         count3 = count3/2;
  1444  0483  3002               	movlw	2
  1445  0484  00F0               	movwf	___awdiv@divisor
  1446  0485  3000               	movlw	0
  1447  0486  00F1               	movwf	___awdiv@divisor+1
  1448  0487  0857               	movf	_count3+1,w
  1449  0488  00F3               	movwf	___awdiv@dividend+1
  1450  0489  0856               	movf	_count3,w
  1451  048A  00F2               	movwf	___awdiv@dividend
  1452  048B  120A  118A  2089  120A  118A  	fcall	___awdiv
  1453  0490  0871               	movf	?___awdiv+1,w
  1454  0491  1283               	bcf	3,5	;RP0=0, select bank0
  1455  0492  1303               	bcf	3,6	;RP1=0, select bank0
  1456  0493  00D7               	movwf	_count3+1
  1457  0494  0870               	movf	?___awdiv,w
  1458  0495  00D6               	movwf	_count3
  1459  0496                     l2107:
  1460                           
  1461                           ;mainBT.c: 175:         temp = count3%2;
  1462  0496  3001               	movlw	1
  1463  0497  0556               	andwf	_count3,w
  1464  0498  00A0               	movwf	updateWifiCounter@temp
  1465  0499  3000               	movlw	0
  1466  049A  0557               	andwf	_count3+1,w
  1467  049B  00A1               	movwf	updateWifiCounter@temp+1
  1468  049C                     l2109:
  1469                           
  1470                           ;mainBT.c: 176:         if (temp ==1){RA4 = 1;}
  1471  049C  0320               	decf	updateWifiCounter@temp,w
  1472  049D  0421               	iorwf	updateWifiCounter@temp+1,w
  1473  049E  1D03               	btfss	3,2
  1474  049F  2CA1               	goto	u1991
  1475  04A0  2CA2               	goto	u1990
  1476  04A1                     u1991:
  1477  04A1  2CA3               	goto	l2113
  1478  04A2                     u1990:
  1479  04A2                     l2111:
  1480  04A2  1605               	bsf	5,4	;volatile
  1481  04A3                     l2113:
  1482                           
  1483                           ;mainBT.c: 177:         if (temp ==0){RA4 = 0;}
  1484  04A3  0820               	movf	updateWifiCounter@temp,w
  1485  04A4  0421               	iorwf	updateWifiCounter@temp+1,w
  1486  04A5  1D03               	btfss	3,2
  1487  04A6  2CA8               	goto	u2001
  1488  04A7  2CA9               	goto	u2000
  1489  04A8                     u2001:
  1490  04A8  2CAA               	goto	l2117
  1491  04A9                     u2000:
  1492  04A9                     l2115:
  1493  04A9  1205               	bcf	5,4	;volatile
  1494  04AA                     l2117:
  1495                           
  1496                           ;mainBT.c: 178:         count3 = count3/2;
  1497  04AA  3002               	movlw	2
  1498  04AB  00F0               	movwf	___awdiv@divisor
  1499  04AC  3000               	movlw	0
  1500  04AD  00F1               	movwf	___awdiv@divisor+1
  1501  04AE  0857               	movf	_count3+1,w
  1502  04AF  00F3               	movwf	___awdiv@dividend+1
  1503  04B0  0856               	movf	_count3,w
  1504  04B1  00F2               	movwf	___awdiv@dividend
  1505  04B2  120A  118A  2089  120A  118A  	fcall	___awdiv
  1506  04B7  0871               	movf	?___awdiv+1,w
  1507  04B8  1283               	bcf	3,5	;RP0=0, select bank0
  1508  04B9  1303               	bcf	3,6	;RP1=0, select bank0
  1509  04BA  00D7               	movwf	_count3+1
  1510  04BB  0870               	movf	?___awdiv,w
  1511  04BC  00D6               	movwf	_count3
  1512  04BD                     l2119:
  1513                           
  1514                           ;mainBT.c: 179:         temp = count3%2;
  1515  04BD  3001               	movlw	1
  1516  04BE  0556               	andwf	_count3,w
  1517  04BF  00A0               	movwf	updateWifiCounter@temp
  1518  04C0  3000               	movlw	0
  1519  04C1  0557               	andwf	_count3+1,w
  1520  04C2  00A1               	movwf	updateWifiCounter@temp+1
  1521  04C3                     l2121:
  1522                           
  1523                           ;mainBT.c: 180:         if (temp ==1){RA5 = 1;}
  1524  04C3  0320               	decf	updateWifiCounter@temp,w
  1525  04C4  0421               	iorwf	updateWifiCounter@temp+1,w
  1526  04C5  1D03               	btfss	3,2
  1527  04C6  2CC8               	goto	u2011
  1528  04C7  2CC9               	goto	u2010
  1529  04C8                     u2011:
  1530  04C8  2CCA               	goto	l2125
  1531  04C9                     u2010:
  1532  04C9                     l2123:
  1533  04C9  1685               	bsf	5,5	;volatile
  1534  04CA                     l2125:
  1535                           
  1536                           ;mainBT.c: 181:         if (temp ==0){RA5 = 0;}
  1537  04CA  0820               	movf	updateWifiCounter@temp,w
  1538  04CB  0421               	iorwf	updateWifiCounter@temp+1,w
  1539  04CC  1D03               	btfss	3,2
  1540  04CD  2CCF               	goto	u2021
  1541  04CE  2CD0               	goto	u2020
  1542  04CF                     u2021:
  1543  04CF  2CD1               	goto	l2129
  1544  04D0                     u2020:
  1545  04D0                     l2127:
  1546  04D0  1285               	bcf	5,5	;volatile
  1547  04D1                     l2129:
  1548                           
  1549                           ;mainBT.c: 183:         wifiCounter = 2;
  1550  04D1  3002               	movlw	2
  1551  04D2  00E7               	movwf	_wifiCounter
  1552  04D3  3000               	movlw	0
  1553  04D4  00E8               	movwf	_wifiCounter+1
  1554  04D5                     l2131:
  1555                           
  1556                           ;mainBT.c: 186:     if(wifiCounter == 2){
  1557  04D5  3002               	movlw	2
  1558  04D6  0667               	xorwf	_wifiCounter,w
  1559  04D7  0468               	iorwf	_wifiCounter+1,w
  1560  04D8  1D03               	btfss	3,2
  1561  04D9  2CDB               	goto	u2031
  1562  04DA  2CDC               	goto	u2030
  1563  04DB                     u2031:
  1564  04DB  2D67               	goto	l2181
  1565  04DC                     u2030:
  1566  04DC                     l2133:
  1567                           
  1568                           ;mainBT.c: 188:         RA0 = 1;
  1569  04DC  1405               	bsf	5,0	;volatile
  1570                           
  1571                           ;mainBT.c: 189:         RA1 = 0;
  1572  04DD  1085               	bcf	5,1	;volatile
  1573  04DE                     l2135:
  1574                           
  1575                           ;mainBT.c: 192:         int temp;;mainBT.c: 193:         temp = count2%2;
  1576  04DE  3001               	movlw	1
  1577  04DF  0554               	andwf	_count2,w
  1578  04E0  00A2               	movwf	updateWifiCounter@temp_180
  1579  04E1  3000               	movlw	0
  1580  04E2  0555               	andwf	_count2+1,w
  1581  04E3  00A3               	movwf	updateWifiCounter@temp_180+1
  1582  04E4                     l2137:
  1583                           
  1584                           ;mainBT.c: 194:         if (temp ==1){RA2 = 1;}
  1585  04E4  0322               	decf	updateWifiCounter@temp_180,w
  1586  04E5  0423               	iorwf	updateWifiCounter@temp_180+1,w
  1587  04E6  1D03               	btfss	3,2
  1588  04E7  2CE9               	goto	u2041
  1589  04E8  2CEA               	goto	u2040
  1590  04E9                     u2041:
  1591  04E9  2CEB               	goto	l2141
  1592  04EA                     u2040:
  1593  04EA                     l2139:
  1594  04EA  1505               	bsf	5,2	;volatile
  1595  04EB                     l2141:
  1596                           
  1597                           ;mainBT.c: 195:         if (temp ==0){RA2 = 0;}
  1598  04EB  0822               	movf	updateWifiCounter@temp_180,w
  1599  04EC  0423               	iorwf	updateWifiCounter@temp_180+1,w
  1600  04ED  1D03               	btfss	3,2
  1601  04EE  2CF0               	goto	u2051
  1602  04EF  2CF1               	goto	u2050
  1603  04F0                     u2051:
  1604  04F0  2CF2               	goto	l2145
  1605  04F1                     u2050:
  1606  04F1                     l2143:
  1607  04F1  1105               	bcf	5,2	;volatile
  1608  04F2                     l2145:
  1609                           
  1610                           ;mainBT.c: 196:         count2 = count2/2;
  1611  04F2  3002               	movlw	2
  1612  04F3  00F0               	movwf	___awdiv@divisor
  1613  04F4  3000               	movlw	0
  1614  04F5  00F1               	movwf	___awdiv@divisor+1
  1615  04F6  0855               	movf	_count2+1,w
  1616  04F7  00F3               	movwf	___awdiv@dividend+1
  1617  04F8  0854               	movf	_count2,w
  1618  04F9  00F2               	movwf	___awdiv@dividend
  1619  04FA  120A  118A  2089  120A  118A  	fcall	___awdiv
  1620  04FF  0871               	movf	?___awdiv+1,w
  1621  0500  1283               	bcf	3,5	;RP0=0, select bank0
  1622  0501  1303               	bcf	3,6	;RP1=0, select bank0
  1623  0502  00D5               	movwf	_count2+1
  1624  0503  0870               	movf	?___awdiv,w
  1625  0504  00D4               	movwf	_count2
  1626  0505                     l2147:
  1627                           
  1628                           ;mainBT.c: 197:         temp = count2%2;
  1629  0505  3001               	movlw	1
  1630  0506  0554               	andwf	_count2,w
  1631  0507  00A2               	movwf	updateWifiCounter@temp_180
  1632  0508  3000               	movlw	0
  1633  0509  0555               	andwf	_count2+1,w
  1634  050A  00A3               	movwf	updateWifiCounter@temp_180+1
  1635  050B                     l2149:
  1636                           
  1637                           ;mainBT.c: 198:         if (temp ==1){RA3 = 1;}
  1638  050B  0322               	decf	updateWifiCounter@temp_180,w
  1639  050C  0423               	iorwf	updateWifiCounter@temp_180+1,w
  1640  050D  1D03               	btfss	3,2
  1641  050E  2D10               	goto	u2061
  1642  050F  2D11               	goto	u2060
  1643  0510                     u2061:
  1644  0510  2D12               	goto	l2153
  1645  0511                     u2060:
  1646  0511                     l2151:
  1647  0511  1585               	bsf	5,3	;volatile
  1648  0512                     l2153:
  1649                           
  1650                           ;mainBT.c: 199:         if (temp ==0){RA3 = 0;}
  1651  0512  0822               	movf	updateWifiCounter@temp_180,w
  1652  0513  0423               	iorwf	updateWifiCounter@temp_180+1,w
  1653  0514  1D03               	btfss	3,2
  1654  0515  2D17               	goto	u2071
  1655  0516  2D18               	goto	u2070
  1656  0517                     u2071:
  1657  0517  2D19               	goto	l2157
  1658  0518                     u2070:
  1659  0518                     l2155:
  1660  0518  1185               	bcf	5,3	;volatile
  1661  0519                     l2157:
  1662                           
  1663                           ;mainBT.c: 200:         count2 = count2/2;
  1664  0519  3002               	movlw	2
  1665  051A  00F0               	movwf	___awdiv@divisor
  1666  051B  3000               	movlw	0
  1667  051C  00F1               	movwf	___awdiv@divisor+1
  1668  051D  0855               	movf	_count2+1,w
  1669  051E  00F3               	movwf	___awdiv@dividend+1
  1670  051F  0854               	movf	_count2,w
  1671  0520  00F2               	movwf	___awdiv@dividend
  1672  0521  120A  118A  2089  120A  118A  	fcall	___awdiv
  1673  0526  0871               	movf	?___awdiv+1,w
  1674  0527  1283               	bcf	3,5	;RP0=0, select bank0
  1675  0528  1303               	bcf	3,6	;RP1=0, select bank0
  1676  0529  00D5               	movwf	_count2+1
  1677  052A  0870               	movf	?___awdiv,w
  1678  052B  00D4               	movwf	_count2
  1679  052C                     l2159:
  1680                           
  1681                           ;mainBT.c: 201:         temp = count2%2;
  1682  052C  3001               	movlw	1
  1683  052D  0554               	andwf	_count2,w
  1684  052E  00A2               	movwf	updateWifiCounter@temp_180
  1685  052F  3000               	movlw	0
  1686  0530  0555               	andwf	_count2+1,w
  1687  0531  00A3               	movwf	updateWifiCounter@temp_180+1
  1688  0532                     l2161:
  1689                           
  1690                           ;mainBT.c: 202:         if (temp ==1){RA4 = 1;}
  1691  0532  0322               	decf	updateWifiCounter@temp_180,w
  1692  0533  0423               	iorwf	updateWifiCounter@temp_180+1,w
  1693  0534  1D03               	btfss	3,2
  1694  0535  2D37               	goto	u2081
  1695  0536  2D38               	goto	u2080
  1696  0537                     u2081:
  1697  0537  2D39               	goto	l2165
  1698  0538                     u2080:
  1699  0538                     l2163:
  1700  0538  1605               	bsf	5,4	;volatile
  1701  0539                     l2165:
  1702                           
  1703                           ;mainBT.c: 203:         if (temp ==0){RA4 = 0;}
  1704  0539  0822               	movf	updateWifiCounter@temp_180,w
  1705  053A  0423               	iorwf	updateWifiCounter@temp_180+1,w
  1706  053B  1D03               	btfss	3,2
  1707  053C  2D3E               	goto	u2091
  1708  053D  2D3F               	goto	u2090
  1709  053E                     u2091:
  1710  053E  2D40               	goto	l2169
  1711  053F                     u2090:
  1712  053F                     l2167:
  1713  053F  1205               	bcf	5,4	;volatile
  1714  0540                     l2169:
  1715                           
  1716                           ;mainBT.c: 204:         count2 = count2/2;
  1717  0540  3002               	movlw	2
  1718  0541  00F0               	movwf	___awdiv@divisor
  1719  0542  3000               	movlw	0
  1720  0543  00F1               	movwf	___awdiv@divisor+1
  1721  0544  0855               	movf	_count2+1,w
  1722  0545  00F3               	movwf	___awdiv@dividend+1
  1723  0546  0854               	movf	_count2,w
  1724  0547  00F2               	movwf	___awdiv@dividend
  1725  0548  120A  118A  2089  120A  118A  	fcall	___awdiv
  1726  054D  0871               	movf	?___awdiv+1,w
  1727  054E  1283               	bcf	3,5	;RP0=0, select bank0
  1728  054F  1303               	bcf	3,6	;RP1=0, select bank0
  1729  0550  00D5               	movwf	_count2+1
  1730  0551  0870               	movf	?___awdiv,w
  1731  0552  00D4               	movwf	_count2
  1732  0553                     l2171:
  1733                           
  1734                           ;mainBT.c: 205:         temp = count2%2;
  1735  0553  3001               	movlw	1
  1736  0554  0554               	andwf	_count2,w
  1737  0555  00A2               	movwf	updateWifiCounter@temp_180
  1738  0556  3000               	movlw	0
  1739  0557  0555               	andwf	_count2+1,w
  1740  0558  00A3               	movwf	updateWifiCounter@temp_180+1
  1741  0559                     l2173:
  1742                           
  1743                           ;mainBT.c: 206:         if (temp ==1){RA5 = 1;}
  1744  0559  0322               	decf	updateWifiCounter@temp_180,w
  1745  055A  0423               	iorwf	updateWifiCounter@temp_180+1,w
  1746  055B  1D03               	btfss	3,2
  1747  055C  2D5E               	goto	u2101
  1748  055D  2D5F               	goto	u2100
  1749  055E                     u2101:
  1750  055E  2D60               	goto	l2177
  1751  055F                     u2100:
  1752  055F                     l2175:
  1753  055F  1685               	bsf	5,5	;volatile
  1754  0560                     l2177:
  1755                           
  1756                           ;mainBT.c: 207:         if (temp ==0){RA5 = 0;}
  1757  0560  0822               	movf	updateWifiCounter@temp_180,w
  1758  0561  0423               	iorwf	updateWifiCounter@temp_180+1,w
  1759  0562  1D03               	btfss	3,2
  1760  0563  2D65               	goto	u2111
  1761  0564  2D66               	goto	u2110
  1762  0565                     u2111:
  1763  0565  2D67               	goto	l2181
  1764  0566                     u2110:
  1765  0566                     l2179:
  1766  0566  1285               	bcf	5,5	;volatile
  1767  0567                     l2181:
  1768                           
  1769                           ;mainBT.c: 210:     if(wifiCounter == 3){
  1770  0567  3003               	movlw	3
  1771  0568  0667               	xorwf	_wifiCounter,w
  1772  0569  0468               	iorwf	_wifiCounter+1,w
  1773  056A  1D03               	btfss	3,2
  1774  056B  2D6D               	goto	u2121
  1775  056C  2D6E               	goto	u2120
  1776  056D                     u2121:
  1777  056D  2DFD               	goto	l281
  1778  056E                     u2120:
  1779  056E                     l2183:
  1780                           
  1781                           ;mainBT.c: 212:         RA0 = 0;
  1782  056E  1005               	bcf	5,0	;volatile
  1783                           
  1784                           ;mainBT.c: 213:         RA1 = 1;
  1785  056F  1485               	bsf	5,1	;volatile
  1786  0570                     l2185:
  1787                           
  1788                           ;mainBT.c: 216:         int temp;;mainBT.c: 217:         temp = count1%2;
  1789  0570  3001               	movlw	1
  1790  0571  0552               	andwf	_count1,w
  1791  0572  00A4               	movwf	updateWifiCounter@temp_181
  1792  0573  3000               	movlw	0
  1793  0574  0553               	andwf	_count1+1,w
  1794  0575  00A5               	movwf	updateWifiCounter@temp_181+1
  1795  0576                     l2187:
  1796                           
  1797                           ;mainBT.c: 218:         if (temp ==1){RA2 = 1;}
  1798  0576  0324               	decf	updateWifiCounter@temp_181,w
  1799  0577  0425               	iorwf	updateWifiCounter@temp_181+1,w
  1800  0578  1D03               	btfss	3,2
  1801  0579  2D7B               	goto	u2131
  1802  057A  2D7C               	goto	u2130
  1803  057B                     u2131:
  1804  057B  2D7D               	goto	l2191
  1805  057C                     u2130:
  1806  057C                     l2189:
  1807  057C  1505               	bsf	5,2	;volatile
  1808  057D                     l2191:
  1809                           
  1810                           ;mainBT.c: 219:         if (temp ==0){RA2 = 0;}
  1811  057D  0824               	movf	updateWifiCounter@temp_181,w
  1812  057E  0425               	iorwf	updateWifiCounter@temp_181+1,w
  1813  057F  1D03               	btfss	3,2
  1814  0580  2D82               	goto	u2141
  1815  0581  2D83               	goto	u2140
  1816  0582                     u2141:
  1817  0582  2D84               	goto	l2195
  1818  0583                     u2140:
  1819  0583                     l2193:
  1820  0583  1105               	bcf	5,2	;volatile
  1821  0584                     l2195:
  1822                           
  1823                           ;mainBT.c: 220:         count1 = count1/2;
  1824  0584  3002               	movlw	2
  1825  0585  00F0               	movwf	___awdiv@divisor
  1826  0586  3000               	movlw	0
  1827  0587  00F1               	movwf	___awdiv@divisor+1
  1828  0588  0853               	movf	_count1+1,w
  1829  0589  00F3               	movwf	___awdiv@dividend+1
  1830  058A  0852               	movf	_count1,w
  1831  058B  00F2               	movwf	___awdiv@dividend
  1832  058C  120A  118A  2089  120A  118A  	fcall	___awdiv
  1833  0591  0871               	movf	?___awdiv+1,w
  1834  0592  1283               	bcf	3,5	;RP0=0, select bank0
  1835  0593  1303               	bcf	3,6	;RP1=0, select bank0
  1836  0594  00D3               	movwf	_count1+1
  1837  0595  0870               	movf	?___awdiv,w
  1838  0596  00D2               	movwf	_count1
  1839  0597                     l2197:
  1840                           
  1841                           ;mainBT.c: 221:         temp = count1%2;
  1842  0597  3001               	movlw	1
  1843  0598  0552               	andwf	_count1,w
  1844  0599  00A4               	movwf	updateWifiCounter@temp_181
  1845  059A  3000               	movlw	0
  1846  059B  0553               	andwf	_count1+1,w
  1847  059C  00A5               	movwf	updateWifiCounter@temp_181+1
  1848  059D                     l2199:
  1849                           
  1850                           ;mainBT.c: 222:         if (temp ==1){RA3 = 1;}
  1851  059D  0324               	decf	updateWifiCounter@temp_181,w
  1852  059E  0425               	iorwf	updateWifiCounter@temp_181+1,w
  1853  059F  1D03               	btfss	3,2
  1854  05A0  2DA2               	goto	u2151
  1855  05A1  2DA3               	goto	u2150
  1856  05A2                     u2151:
  1857  05A2  2DA4               	goto	l2203
  1858  05A3                     u2150:
  1859  05A3                     l2201:
  1860  05A3  1585               	bsf	5,3	;volatile
  1861  05A4                     l2203:
  1862                           
  1863                           ;mainBT.c: 223:         if (temp ==0){RA3 = 0;}
  1864  05A4  0824               	movf	updateWifiCounter@temp_181,w
  1865  05A5  0425               	iorwf	updateWifiCounter@temp_181+1,w
  1866  05A6  1D03               	btfss	3,2
  1867  05A7  2DA9               	goto	u2161
  1868  05A8  2DAA               	goto	u2160
  1869  05A9                     u2161:
  1870  05A9  2DAB               	goto	l2207
  1871  05AA                     u2160:
  1872  05AA                     l2205:
  1873  05AA  1185               	bcf	5,3	;volatile
  1874  05AB                     l2207:
  1875                           
  1876                           ;mainBT.c: 224:         count1 = count1/2;
  1877  05AB  3002               	movlw	2
  1878  05AC  00F0               	movwf	___awdiv@divisor
  1879  05AD  3000               	movlw	0
  1880  05AE  00F1               	movwf	___awdiv@divisor+1
  1881  05AF  0853               	movf	_count1+1,w
  1882  05B0  00F3               	movwf	___awdiv@dividend+1
  1883  05B1  0852               	movf	_count1,w
  1884  05B2  00F2               	movwf	___awdiv@dividend
  1885  05B3  120A  118A  2089  120A  118A  	fcall	___awdiv
  1886  05B8  0871               	movf	?___awdiv+1,w
  1887  05B9  1283               	bcf	3,5	;RP0=0, select bank0
  1888  05BA  1303               	bcf	3,6	;RP1=0, select bank0
  1889  05BB  00D3               	movwf	_count1+1
  1890  05BC  0870               	movf	?___awdiv,w
  1891  05BD  00D2               	movwf	_count1
  1892  05BE                     l2209:
  1893                           
  1894                           ;mainBT.c: 225:         temp = count1%2;
  1895  05BE  3001               	movlw	1
  1896  05BF  0552               	andwf	_count1,w
  1897  05C0  00A4               	movwf	updateWifiCounter@temp_181
  1898  05C1  3000               	movlw	0
  1899  05C2  0553               	andwf	_count1+1,w
  1900  05C3  00A5               	movwf	updateWifiCounter@temp_181+1
  1901  05C4                     l2211:
  1902                           
  1903                           ;mainBT.c: 226:         if (temp ==1){RA4 = 1;}
  1904  05C4  0324               	decf	updateWifiCounter@temp_181,w
  1905  05C5  0425               	iorwf	updateWifiCounter@temp_181+1,w
  1906  05C6  1D03               	btfss	3,2
  1907  05C7  2DC9               	goto	u2171
  1908  05C8  2DCA               	goto	u2170
  1909  05C9                     u2171:
  1910  05C9  2DCB               	goto	l2215
  1911  05CA                     u2170:
  1912  05CA                     l2213:
  1913  05CA  1605               	bsf	5,4	;volatile
  1914  05CB                     l2215:
  1915                           
  1916                           ;mainBT.c: 227:         if (temp ==0){RA4 = 0;}
  1917  05CB  0824               	movf	updateWifiCounter@temp_181,w
  1918  05CC  0425               	iorwf	updateWifiCounter@temp_181+1,w
  1919  05CD  1D03               	btfss	3,2
  1920  05CE  2DD0               	goto	u2181
  1921  05CF  2DD1               	goto	u2180
  1922  05D0                     u2181:
  1923  05D0  2DD2               	goto	l2219
  1924  05D1                     u2180:
  1925  05D1                     l2217:
  1926  05D1  1205               	bcf	5,4	;volatile
  1927  05D2                     l2219:
  1928                           
  1929                           ;mainBT.c: 228:         count1 = count1/2;
  1930  05D2  3002               	movlw	2
  1931  05D3  00F0               	movwf	___awdiv@divisor
  1932  05D4  3000               	movlw	0
  1933  05D5  00F1               	movwf	___awdiv@divisor+1
  1934  05D6  0853               	movf	_count1+1,w
  1935  05D7  00F3               	movwf	___awdiv@dividend+1
  1936  05D8  0852               	movf	_count1,w
  1937  05D9  00F2               	movwf	___awdiv@dividend
  1938  05DA  120A  118A  2089  120A  118A  	fcall	___awdiv
  1939  05DF  0871               	movf	?___awdiv+1,w
  1940  05E0  1283               	bcf	3,5	;RP0=0, select bank0
  1941  05E1  1303               	bcf	3,6	;RP1=0, select bank0
  1942  05E2  00D3               	movwf	_count1+1
  1943  05E3  0870               	movf	?___awdiv,w
  1944  05E4  00D2               	movwf	_count1
  1945  05E5                     l2221:
  1946                           
  1947                           ;mainBT.c: 229:         temp = count1%2;
  1948  05E5  3001               	movlw	1
  1949  05E6  0552               	andwf	_count1,w
  1950  05E7  00A4               	movwf	updateWifiCounter@temp_181
  1951  05E8  3000               	movlw	0
  1952  05E9  0553               	andwf	_count1+1,w
  1953  05EA  00A5               	movwf	updateWifiCounter@temp_181+1
  1954  05EB                     l2223:
  1955                           
  1956                           ;mainBT.c: 230:         if (temp ==1){RA5 = 1;}
  1957  05EB  0324               	decf	updateWifiCounter@temp_181,w
  1958  05EC  0425               	iorwf	updateWifiCounter@temp_181+1,w
  1959  05ED  1D03               	btfss	3,2
  1960  05EE  2DF0               	goto	u2191
  1961  05EF  2DF1               	goto	u2190
  1962  05F0                     u2191:
  1963  05F0  2DF2               	goto	l2227
  1964  05F1                     u2190:
  1965  05F1                     l2225:
  1966  05F1  1685               	bsf	5,5	;volatile
  1967  05F2                     l2227:
  1968                           
  1969                           ;mainBT.c: 231:         if (temp ==0){RA5 = 0;}
  1970  05F2  0824               	movf	updateWifiCounter@temp_181,w
  1971  05F3  0425               	iorwf	updateWifiCounter@temp_181+1,w
  1972  05F4  1D03               	btfss	3,2
  1973  05F5  2DF7               	goto	u2201
  1974  05F6  2DF8               	goto	u2200
  1975  05F7                     u2201:
  1976  05F7  2DF9               	goto	l2231
  1977  05F8                     u2200:
  1978  05F8                     l2229:
  1979  05F8  1285               	bcf	5,5	;volatile
  1980  05F9                     l2231:
  1981                           
  1982                           ;mainBT.c: 232:         wifiCounter = 1;
  1983  05F9  3001               	movlw	1
  1984  05FA  00E7               	movwf	_wifiCounter
  1985  05FB  3000               	movlw	0
  1986  05FC  00E8               	movwf	_wifiCounter+1
  1987  05FD                     l281:
  1988  05FD  0008               	return
  1989  05FE                     __end_of_updateWifiCounter:
  1990                           
  1991                           	psect	text2
  1992  00F0                     __ptext2:	
  1993 ;; *************** function _personOver_190 *****************
  1994 ;; Defined at:
  1995 ;;		line 141 in file "mainBT.c"
  1996 ;; Parameters:    Size  Location     Type
  1997 ;;		None
  1998 ;; Auto vars:     Size  Location     Type
  1999 ;;		None
  2000 ;; Return value:  Size  Location     Type
  2001 ;;                  1    wreg      void 
  2002 ;; Registers used:
  2003 ;;		wreg, fsr0l, fsr0h, status,2, status,0, btemp+1, pclath, cstack
  2004 ;; Tracked objects:
  2005 ;;		On entry : 0/0
  2006 ;;		On exit  : 0/0
  2007 ;;		Unchanged: 0/0
  2008 ;; Data sizes:     COMMON   BANK0   BANK1   BANK3   BANK2
  2009 ;;      Params:         0       0       0       0       0
  2010 ;;      Locals:         0       0       0       0       0
  2011 ;;      Temps:          0       3       0       0       0
  2012 ;;      Totals:         0       3       0       0       0
  2013 ;;Total ram usage:        3 bytes
  2014 ;; Hardware stack levels used: 1
  2015 ;; Hardware stack levels required when called: 2
  2016 ;; This function calls:
  2017 ;;		_BT_load_string
  2018 ;;		_LCD_Command
  2019 ;;		_LCD_string
  2020 ;;		_broadcast_BT
  2021 ;;		_itoa
  2022 ;; This function is called by:
  2023 ;;		_main
  2024 ;; This function uses a non-reentrant model
  2025 ;;
  2026                           
  2027  00F0                     _personOver_190:	
  2028                           ;psect for function _personOver_190
  2029                           
  2030  00F0                     l2285:	
  2031                           ;incstack = 0
  2032                           ; Regs used in _personOver_190: [wreg-fsr0h+status,2+status,0+btemp+1+pclath+cstack]
  2033                           
  2034                           
  2035                           ;mainBT.c: 142:     LCD_Command(0xCC);
  2036  00F0  30CC               	movlw	204
  2037  00F1  120A  158A  24D5  120A  118A  	fcall	_LCD_Command
  2038  00F6                     l2287:
  2039                           
  2040                           ;mainBT.c: 143:     count1++;
  2041  00F6  3001               	movlw	1
  2042  00F7  1283               	bcf	3,5	;RP0=0, select bank0
  2043  00F8  1303               	bcf	3,6	;RP1=0, select bank0
  2044  00F9  07D2               	addwf	_count1,f
  2045  00FA  1803               	skipnc
  2046  00FB  0AD3               	incf	_count1+1,f
  2047  00FC  3000               	movlw	0
  2048  00FD  07D3               	addwf	_count1+1,f
  2049  00FE                     l2289:
  2050                           
  2051                           ;mainBT.c: 144:     c1=itoa(count1);
  2052  00FE  0853               	movf	_count1+1,w
  2053  00FF  00FA               	movwf	itoa@value+1
  2054  0100  0852               	movf	_count1,w
  2055  0101  00F9               	movwf	itoa@value
  2056  0102  120A  158A  26B8  120A  118A  	fcall	_itoa
  2057  0107  1283               	bcf	3,5	;RP0=0, select bank0
  2058  0108  1303               	bcf	3,6	;RP1=0, select bank0
  2059  0109  00A4               	movwf	??_personOver_190
  2060  010A  0824               	movf	??_personOver_190,w
  2061  010B  00D8               	movwf	_c1
  2062  010C                     l2291:
  2063                           
  2064                           ;mainBT.c: 145:     LCD_string(c1);
  2065  010C  0858               	movf	_c1,w
  2066  010D  00A4               	movwf	??_personOver_190
  2067  010E  01A5               	clrf	??_personOver_190+1
  2068  010F  0824               	movf	??_personOver_190,w
  2069  0110  00F3               	movwf	LCD_string@str
  2070  0111  0825               	movf	??_personOver_190+1,w
  2071  0112  00F4               	movwf	LCD_string@str+1
  2072  0113  120A  158A  253C  120A  118A  	fcall	_LCD_string
  2073  0118                     l2293:
  2074                           
  2075                           ;mainBT.c: 146:     BT_load_string("People over 190:  ");
  2076  0118  304F               	movlw	(low ((STR_11-__stringbase)| (0+32768)))& (0+255)
  2077  0119  00F1               	movwf	BT_load_string@string
  2078  011A  3080               	movlw	128
  2079  011B  00F2               	movwf	BT_load_string@string+1
  2080  011C  120A  158A  2516  120A  118A  	fcall	_BT_load_string
  2081  0121                     l2295:
  2082                           
  2083                           ;mainBT.c: 147:     broadcast_BT();
  2084  0121  120A  158A  24B0  120A  118A  	fcall	_broadcast_BT
  2085  0126                     l2297:
  2086                           
  2087                           ;mainBT.c: 148:     BT_load_string(c1);
  2088  0126  1283               	bcf	3,5	;RP0=0, select bank0
  2089  0127  1303               	bcf	3,6	;RP1=0, select bank0
  2090  0128  0858               	movf	_c1,w
  2091  0129  00A4               	movwf	??_personOver_190
  2092  012A  01A5               	clrf	??_personOver_190+1
  2093  012B  0824               	movf	??_personOver_190,w
  2094  012C  00F1               	movwf	BT_load_string@string
  2095  012D  0825               	movf	??_personOver_190+1,w
  2096  012E  00F2               	movwf	BT_load_string@string+1
  2097  012F  120A  158A  2516  120A  118A  	fcall	_BT_load_string
  2098  0134                     l2299:
  2099                           
  2100                           ;mainBT.c: 149:     broadcast_BT();
  2101  0134  120A  158A  24B0  120A  118A  	fcall	_broadcast_BT
  2102  0139                     l2301:
  2103                           
  2104                           ;mainBT.c: 150:     BT_load_string("\n");
  2105  0139  3019               	movlw	(low (((STR_7+24)-__stringbase)| (0+32768)))& (0+255)
  2106  013A  00F1               	movwf	BT_load_string@string
  2107  013B  3080               	movlw	128
  2108  013C  00F2               	movwf	BT_load_string@string+1
  2109  013D  120A  158A  2516  120A  118A  	fcall	_BT_load_string
  2110  0142                     l2303:
  2111                           
  2112                           ;mainBT.c: 151:     broadcast_BT();
  2113  0142  120A  158A  24B0  120A  118A  	fcall	_broadcast_BT
  2114  0147                     l2305:
  2115                           
  2116                           ;mainBT.c: 152:     BT_load_string("------------------------\n");
  2117  0147  3001               	movlw	(low ((STR_7-__stringbase)| (0+32768)))& (0+255)
  2118  0148  00F1               	movwf	BT_load_string@string
  2119  0149  3080               	movlw	128
  2120  014A  00F2               	movwf	BT_load_string@string+1
  2121  014B  120A  158A  2516  120A  118A  	fcall	_BT_load_string
  2122  0150                     l2307:
  2123                           
  2124                           ;mainBT.c: 153:     broadcast_BT();
  2125  0150  120A  158A  24B0  120A  118A  	fcall	_broadcast_BT
  2126  0155                     l2309:
  2127                           
  2128                           ;mainBT.c: 154:     _delay((unsigned long)((500)*(4000000/4000.0)));
  2129  0155  3003               	movlw	3
  2130  0156  1283               	bcf	3,5	;RP0=0, select bank0
  2131  0157  1303               	bcf	3,6	;RP1=0, select bank0
  2132  0158  00A6               	movwf	??_personOver_190+2
  2133  0159  308A               	movlw	138
  2134  015A  00A5               	movwf	??_personOver_190+1
  2135  015B  3055               	movlw	85
  2136  015C  00A4               	movwf	??_personOver_190
  2137  015D                     u2377:
  2138  015D  0BA4               	decfsz	??_personOver_190,f
  2139  015E  295D               	goto	u2377
  2140  015F  0BA5               	decfsz	??_personOver_190+1,f
  2141  0160  295D               	goto	u2377
  2142  0161  0BA6               	decfsz	??_personOver_190+2,f
  2143  0162  295D               	goto	u2377
  2144  0163                     l251:
  2145  0163  0008               	return
  2146  0164                     __end_of_personOver_190:
  2147                           
  2148                           	psect	text3
  2149  0F8C                     __ptext3:	
  2150 ;; *************** function _person170_190 *****************
  2151 ;; Defined at:
  2152 ;;		line 125 in file "mainBT.c"
  2153 ;; Parameters:    Size  Location     Type
  2154 ;;		None
  2155 ;; Auto vars:     Size  Location     Type
  2156 ;;		None
  2157 ;; Return value:  Size  Location     Type
  2158 ;;                  1    wreg      void 
  2159 ;; Registers used:
  2160 ;;		wreg, fsr0l, fsr0h, status,2, status,0, btemp+1, pclath, cstack
  2161 ;; Tracked objects:
  2162 ;;		On entry : 0/0
  2163 ;;		On exit  : 0/0
  2164 ;;		Unchanged: 0/0
  2165 ;; Data sizes:     COMMON   BANK0   BANK1   BANK3   BANK2
  2166 ;;      Params:         0       0       0       0       0
  2167 ;;      Locals:         0       0       0       0       0
  2168 ;;      Temps:          0       3       0       0       0
  2169 ;;      Totals:         0       3       0       0       0
  2170 ;;Total ram usage:        3 bytes
  2171 ;; Hardware stack levels used: 1
  2172 ;; Hardware stack levels required when called: 2
  2173 ;; This function calls:
  2174 ;;		_BT_load_string
  2175 ;;		_LCD_Command
  2176 ;;		_LCD_string
  2177 ;;		_broadcast_BT
  2178 ;;		_itoa
  2179 ;; This function is called by:
  2180 ;;		_main
  2181 ;; This function uses a non-reentrant model
  2182 ;;
  2183                           
  2184  0F8C                     _person170_190:	
  2185                           ;psect for function _person170_190
  2186                           
  2187  0F8C                     l2259:	
  2188                           ;incstack = 0
  2189                           ; Regs used in _person170_190: [wreg-fsr0h+status,2+status,0+btemp+1+pclath+cstack]
  2190                           
  2191                           
  2192                           ;mainBT.c: 126:     LCD_Command(0xC5);
  2193  0F8C  30C5               	movlw	197
  2194  0F8D  120A  158A  24D5  120A  158A  	fcall	_LCD_Command
  2195  0F92                     l2261:
  2196                           
  2197                           ;mainBT.c: 127:     count2++;
  2198  0F92  3001               	movlw	1
  2199  0F93  1283               	bcf	3,5	;RP0=0, select bank0
  2200  0F94  1303               	bcf	3,6	;RP1=0, select bank0
  2201  0F95  07D4               	addwf	_count2,f
  2202  0F96  1803               	skipnc
  2203  0F97  0AD5               	incf	_count2+1,f
  2204  0F98  3000               	movlw	0
  2205  0F99  07D5               	addwf	_count2+1,f
  2206  0F9A                     l2263:
  2207                           
  2208                           ;mainBT.c: 128:     c2=itoa(count2);
  2209  0F9A  0855               	movf	_count2+1,w
  2210  0F9B  00FA               	movwf	itoa@value+1
  2211  0F9C  0854               	movf	_count2,w
  2212  0F9D  00F9               	movwf	itoa@value
  2213  0F9E  120A  158A  26B8  120A  158A  	fcall	_itoa
  2214  0FA3  1283               	bcf	3,5	;RP0=0, select bank0
  2215  0FA4  1303               	bcf	3,6	;RP1=0, select bank0
  2216  0FA5  00A4               	movwf	??_person170_190
  2217  0FA6  0824               	movf	??_person170_190,w
  2218  0FA7  00D9               	movwf	_c2
  2219  0FA8                     l2265:
  2220                           
  2221                           ;mainBT.c: 129:     LCD_string(c2);
  2222  0FA8  0859               	movf	_c2,w
  2223  0FA9  00A4               	movwf	??_person170_190
  2224  0FAA  01A5               	clrf	??_person170_190+1
  2225  0FAB  0824               	movf	??_person170_190,w
  2226  0FAC  00F3               	movwf	LCD_string@str
  2227  0FAD  0825               	movf	??_person170_190+1,w
  2228  0FAE  00F4               	movwf	LCD_string@str+1
  2229  0FAF  120A  158A  253C  120A  158A  	fcall	_LCD_string
  2230  0FB4                     l2267:
  2231                           
  2232                           ;mainBT.c: 130:     BT_load_string("People between 170-190:  ");
  2233  0FB4  3035               	movlw	(low ((STR_8-__stringbase)| (0+32768)))& (0+255)
  2234  0FB5  00F1               	movwf	BT_load_string@string
  2235  0FB6  3080               	movlw	128
  2236  0FB7  00F2               	movwf	BT_load_string@string+1
  2237  0FB8  120A  158A  2516  120A  158A  	fcall	_BT_load_string
  2238  0FBD                     l2269:
  2239                           
  2240                           ;mainBT.c: 131:     broadcast_BT();
  2241  0FBD  120A  158A  24B0  120A  158A  	fcall	_broadcast_BT
  2242  0FC2                     l2271:
  2243                           
  2244                           ;mainBT.c: 132:     BT_load_string(c2);
  2245  0FC2  1283               	bcf	3,5	;RP0=0, select bank0
  2246  0FC3  1303               	bcf	3,6	;RP1=0, select bank0
  2247  0FC4  0859               	movf	_c2,w
  2248  0FC5  00A4               	movwf	??_person170_190
  2249  0FC6  01A5               	clrf	??_person170_190+1
  2250  0FC7  0824               	movf	??_person170_190,w
  2251  0FC8  00F1               	movwf	BT_load_string@string
  2252  0FC9  0825               	movf	??_person170_190+1,w
  2253  0FCA  00F2               	movwf	BT_load_string@string+1
  2254  0FCB  120A  158A  2516  120A  158A  	fcall	_BT_load_string
  2255  0FD0                     l2273:
  2256                           
  2257                           ;mainBT.c: 133:     broadcast_BT();
  2258  0FD0  120A  158A  24B0  120A  158A  	fcall	_broadcast_BT
  2259  0FD5                     l2275:
  2260                           
  2261                           ;mainBT.c: 134:     BT_load_string("\n");
  2262  0FD5  3019               	movlw	(low (((STR_7+24)-__stringbase)| (0+32768)))& (0+255)
  2263  0FD6  00F1               	movwf	BT_load_string@string
  2264  0FD7  3080               	movlw	128
  2265  0FD8  00F2               	movwf	BT_load_string@string+1
  2266  0FD9  120A  158A  2516  120A  158A  	fcall	_BT_load_string
  2267  0FDE                     l2277:
  2268                           
  2269                           ;mainBT.c: 135:     broadcast_BT();
  2270  0FDE  120A  158A  24B0  120A  158A  	fcall	_broadcast_BT
  2271  0FE3                     l2279:
  2272                           
  2273                           ;mainBT.c: 136:     BT_load_string("------------------------\n");
  2274  0FE3  3001               	movlw	(low ((STR_7-__stringbase)| (0+32768)))& (0+255)
  2275  0FE4  00F1               	movwf	BT_load_string@string
  2276  0FE5  3080               	movlw	128
  2277  0FE6  00F2               	movwf	BT_load_string@string+1
  2278  0FE7  120A  158A  2516  120A  158A  	fcall	_BT_load_string
  2279  0FEC                     l2281:
  2280                           
  2281                           ;mainBT.c: 137:     broadcast_BT();
  2282  0FEC  120A  158A  24B0  120A  158A  	fcall	_broadcast_BT
  2283  0FF1                     l2283:
  2284                           
  2285                           ;mainBT.c: 138:   _delay((unsigned long)((500)*(4000000/4000.0)));
  2286  0FF1  3003               	movlw	3
  2287  0FF2  1283               	bcf	3,5	;RP0=0, select bank0
  2288  0FF3  1303               	bcf	3,6	;RP1=0, select bank0
  2289  0FF4  00A6               	movwf	??_person170_190+2
  2290  0FF5  308A               	movlw	138
  2291  0FF6  00A5               	movwf	??_person170_190+1
  2292  0FF7  3055               	movlw	85
  2293  0FF8  00A4               	movwf	??_person170_190
  2294  0FF9                     u2387:
  2295  0FF9  0BA4               	decfsz	??_person170_190,f
  2296  0FFA  2FF9               	goto	u2387
  2297  0FFB  0BA5               	decfsz	??_person170_190+1,f
  2298  0FFC  2FF9               	goto	u2387
  2299  0FFD  0BA6               	decfsz	??_person170_190+2,f
  2300  0FFE  2FF9               	goto	u2387
  2301  0FFF                     l248:
  2302  0FFF  0008               	return
  2303  1000                     __end_of_person170_190:
  2304                           
  2305                           	psect	text4
  2306  0F18                     __ptext4:	
  2307 ;; *************** function _person150_170 *****************
  2308 ;; Defined at:
  2309 ;;		line 108 in file "mainBT.c"
  2310 ;; Parameters:    Size  Location     Type
  2311 ;;		None
  2312 ;; Auto vars:     Size  Location     Type
  2313 ;;		None
  2314 ;; Return value:  Size  Location     Type
  2315 ;;                  1    wreg      void 
  2316 ;; Registers used:
  2317 ;;		wreg, fsr0l, fsr0h, status,2, status,0, btemp+1, pclath, cstack
  2318 ;; Tracked objects:
  2319 ;;		On entry : 0/0
  2320 ;;		On exit  : 0/0
  2321 ;;		Unchanged: 0/0
  2322 ;; Data sizes:     COMMON   BANK0   BANK1   BANK3   BANK2
  2323 ;;      Params:         0       0       0       0       0
  2324 ;;      Locals:         0       0       0       0       0
  2325 ;;      Temps:          0       3       0       0       0
  2326 ;;      Totals:         0       3       0       0       0
  2327 ;;Total ram usage:        3 bytes
  2328 ;; Hardware stack levels used: 1
  2329 ;; Hardware stack levels required when called: 2
  2330 ;; This function calls:
  2331 ;;		_BT_load_string
  2332 ;;		_LCD_Command
  2333 ;;		_LCD_string
  2334 ;;		_broadcast_BT
  2335 ;;		_itoa
  2336 ;; This function is called by:
  2337 ;;		_main
  2338 ;; This function uses a non-reentrant model
  2339 ;;
  2340                           
  2341  0F18                     _person150_170:	
  2342                           ;psect for function _person150_170
  2343                           
  2344  0F18                     l2233:	
  2345                           ;incstack = 0
  2346                           ; Regs used in _person150_170: [wreg-fsr0h+status,2+status,0+btemp+1+pclath+cstack]
  2347                           
  2348                           
  2349                           ;mainBT.c: 109:     LCD_Command(0xC0);
  2350  0F18  30C0               	movlw	192
  2351  0F19  120A  158A  24D5  120A  158A  	fcall	_LCD_Command
  2352  0F1E                     l2235:
  2353                           
  2354                           ;mainBT.c: 110:     count3++;
  2355  0F1E  3001               	movlw	1
  2356  0F1F  1283               	bcf	3,5	;RP0=0, select bank0
  2357  0F20  1303               	bcf	3,6	;RP1=0, select bank0
  2358  0F21  07D6               	addwf	_count3,f
  2359  0F22  1803               	skipnc
  2360  0F23  0AD7               	incf	_count3+1,f
  2361  0F24  3000               	movlw	0
  2362  0F25  07D7               	addwf	_count3+1,f
  2363  0F26                     l2237:
  2364                           
  2365                           ;mainBT.c: 111:     c3=itoa(count3);
  2366  0F26  0857               	movf	_count3+1,w
  2367  0F27  00FA               	movwf	itoa@value+1
  2368  0F28  0856               	movf	_count3,w
  2369  0F29  00F9               	movwf	itoa@value
  2370  0F2A  120A  158A  26B8  120A  158A  	fcall	_itoa
  2371  0F2F  1283               	bcf	3,5	;RP0=0, select bank0
  2372  0F30  1303               	bcf	3,6	;RP1=0, select bank0
  2373  0F31  00A4               	movwf	??_person150_170
  2374  0F32  0824               	movf	??_person150_170,w
  2375  0F33  00DA               	movwf	_c3
  2376  0F34                     l2239:
  2377                           
  2378                           ;mainBT.c: 112:     LCD_string(c3);
  2379  0F34  085A               	movf	_c3,w
  2380  0F35  00A4               	movwf	??_person150_170
  2381  0F36  01A5               	clrf	??_person150_170+1
  2382  0F37  0824               	movf	??_person150_170,w
  2383  0F38  00F3               	movwf	LCD_string@str
  2384  0F39  0825               	movf	??_person150_170+1,w
  2385  0F3A  00F4               	movwf	LCD_string@str+1
  2386  0F3B  120A  158A  253C  120A  158A  	fcall	_LCD_string
  2387  0F40                     l2241:
  2388                           
  2389                           ;mainBT.c: 114:     BT_load_string("People between 150-170:  ");
  2390  0F40  301B               	movlw	(low ((STR_5-__stringbase)| (0+32768)))& (0+255)
  2391  0F41  00F1               	movwf	BT_load_string@string
  2392  0F42  3080               	movlw	128
  2393  0F43  00F2               	movwf	BT_load_string@string+1
  2394  0F44  120A  158A  2516  120A  158A  	fcall	_BT_load_string
  2395  0F49                     l2243:
  2396                           
  2397                           ;mainBT.c: 115:     broadcast_BT();
  2398  0F49  120A  158A  24B0  120A  158A  	fcall	_broadcast_BT
  2399  0F4E                     l2245:
  2400                           
  2401                           ;mainBT.c: 116:     BT_load_string(c3);
  2402  0F4E  1283               	bcf	3,5	;RP0=0, select bank0
  2403  0F4F  1303               	bcf	3,6	;RP1=0, select bank0
  2404  0F50  085A               	movf	_c3,w
  2405  0F51  00A4               	movwf	??_person150_170
  2406  0F52  01A5               	clrf	??_person150_170+1
  2407  0F53  0824               	movf	??_person150_170,w
  2408  0F54  00F1               	movwf	BT_load_string@string
  2409  0F55  0825               	movf	??_person150_170+1,w
  2410  0F56  00F2               	movwf	BT_load_string@string+1
  2411  0F57  120A  158A  2516  120A  158A  	fcall	_BT_load_string
  2412  0F5C                     l2247:
  2413                           
  2414                           ;mainBT.c: 117:     broadcast_BT();
  2415  0F5C  120A  158A  24B0  120A  158A  	fcall	_broadcast_BT
  2416  0F61                     l2249:
  2417                           
  2418                           ;mainBT.c: 118:     BT_load_string("\n");
  2419  0F61  3019               	movlw	(low (((STR_7+24)-__stringbase)| (0+32768)))& (0+255)
  2420  0F62  00F1               	movwf	BT_load_string@string
  2421  0F63  3080               	movlw	128
  2422  0F64  00F2               	movwf	BT_load_string@string+1
  2423  0F65  120A  158A  2516  120A  158A  	fcall	_BT_load_string
  2424  0F6A                     l2251:
  2425                           
  2426                           ;mainBT.c: 119:     broadcast_BT();
  2427  0F6A  120A  158A  24B0  120A  158A  	fcall	_broadcast_BT
  2428  0F6F                     l2253:
  2429                           
  2430                           ;mainBT.c: 120:     BT_load_string("------------------------\n");
  2431  0F6F  3001               	movlw	(low ((STR_7-__stringbase)| (0+32768)))& (0+255)
  2432  0F70  00F1               	movwf	BT_load_string@string
  2433  0F71  3080               	movlw	128
  2434  0F72  00F2               	movwf	BT_load_string@string+1
  2435  0F73  120A  158A  2516  120A  158A  	fcall	_BT_load_string
  2436  0F78                     l2255:
  2437                           
  2438                           ;mainBT.c: 121:     broadcast_BT();
  2439  0F78  120A  158A  24B0  120A  158A  	fcall	_broadcast_BT
  2440  0F7D                     l2257:
  2441                           
  2442                           ;mainBT.c: 122:     _delay((unsigned long)((500)*(4000000/4000.0)));
  2443  0F7D  3003               	movlw	3
  2444  0F7E  1283               	bcf	3,5	;RP0=0, select bank0
  2445  0F7F  1303               	bcf	3,6	;RP1=0, select bank0
  2446  0F80  00A6               	movwf	??_person150_170+2
  2447  0F81  308A               	movlw	138
  2448  0F82  00A5               	movwf	??_person150_170+1
  2449  0F83  3055               	movlw	85
  2450  0F84  00A4               	movwf	??_person150_170
  2451  0F85                     u2397:
  2452  0F85  0BA4               	decfsz	??_person150_170,f
  2453  0F86  2F85               	goto	u2397
  2454  0F87  0BA5               	decfsz	??_person150_170+1,f
  2455  0F88  2F85               	goto	u2397
  2456  0F89  0BA6               	decfsz	??_person150_170+2,f
  2457  0F8A  2F85               	goto	u2397
  2458  0F8B                     l245:
  2459  0F8B  0008               	return
  2460  0F8C                     __end_of_person150_170:
  2461                           
  2462                           	psect	text5
  2463  0EB8                     __ptext5:	
  2464 ;; *************** function _itoa *****************
  2465 ;; Defined at:
  2466 ;;		line 52 in file "./LCD.h"
  2467 ;; Parameters:    Size  Location     Type
  2468 ;;  value           2    9[COMMON] int 
  2469 ;; Auto vars:     Size  Location     Type
  2470 ;;  c               2    2[BANK0 ] int 
  2471 ;;  original        2    0[BANK0 ] int 
  2472 ;; Return value:  Size  Location     Type
  2473 ;;                  1    wreg      PTR unsigned char 
  2474 ;; Registers used:
  2475 ;;		wreg, fsr0l, fsr0h, status,2, status,0, pclath, cstack
  2476 ;; Tracked objects:
  2477 ;;		On entry : 0/0
  2478 ;;		On exit  : 0/0
  2479 ;;		Unchanged: 0/0
  2480 ;; Data sizes:     COMMON   BANK0   BANK1   BANK3   BANK2
  2481 ;;      Params:         2       0       0       0       0
  2482 ;;      Locals:         0       4       0       0       0
  2483 ;;      Temps:          1       0       0       0       0
  2484 ;;      Totals:         3       4       0       0       0
  2485 ;;Total ram usage:        7 bytes
  2486 ;; Hardware stack levels used: 1
  2487 ;; Hardware stack levels required when called: 1
  2488 ;; This function calls:
  2489 ;;		___awdiv
  2490 ;;		___awmod
  2491 ;; This function is called by:
  2492 ;;		_person150_170
  2493 ;;		_person170_190
  2494 ;;		_personOver_190
  2495 ;; This function uses a non-reentrant model
  2496 ;;
  2497                           
  2498  0EB8                     _itoa:	
  2499                           ;psect for function _itoa
  2500                           
  2501  0EB8                     l1783:	
  2502                           ;incstack = 0
  2503                           ; Regs used in _itoa: [wreg-fsr0h+status,2+status,0+pclath+cstack]
  2504                           
  2505                           
  2506                           ;./LCD.h: 52: char *itoa(int value);./LCD.h: 53:  {;./LCD.h: 54:      static char buffer
      +                          [12];;./LCD.h: 55:      int original = value;
  2507  0EB8  087A               	movf	itoa@value+1,w
  2508  0EB9  1283               	bcf	3,5	;RP0=0, select bank0
  2509  0EBA  1303               	bcf	3,6	;RP1=0, select bank0
  2510  0EBB  00A1               	movwf	itoa@original+1
  2511  0EBC  0879               	movf	itoa@value,w
  2512  0EBD  00A0               	movwf	itoa@original
  2513                           
  2514                           ;./LCD.h: 57:      int c = sizeof(buffer)-1;
  2515  0EBE  300B               	movlw	11
  2516  0EBF  00A2               	movwf	itoa@c
  2517  0EC0  3000               	movlw	0
  2518  0EC1  00A3               	movwf	itoa@c+1
  2519  0EC2                     l1785:
  2520                           
  2521                           ;./LCD.h: 59:      buffer[c] = 0;
  2522  0EC2  01E6               	clrf	itoa@buffer+11
  2523  0EC3                     l1787:
  2524                           
  2525                           ;./LCD.h: 61:      if (value < 0)
  2526  0EC3  1FFA               	btfss	itoa@value+1,7
  2527  0EC4  2EC6               	goto	u1411
  2528  0EC5  2EC7               	goto	u1410
  2529  0EC6                     u1411:
  2530  0EC6  2ECC               	goto	l1791
  2531  0EC7                     u1410:
  2532  0EC7                     l1789:
  2533                           
  2534                           ;./LCD.h: 62:          value = -value;
  2535  0EC7  09F9               	comf	itoa@value,f
  2536  0EC8  09FA               	comf	itoa@value+1,f
  2537  0EC9  0AF9               	incf	itoa@value,f
  2538  0ECA  1903               	skipnz
  2539  0ECB  0AFA               	incf	itoa@value+1,f
  2540  0ECC                     l1791:
  2541                           
  2542                           ;./LCD.h: 65:      {;./LCD.h: 66:          buffer[--c] = (value % 10) + '0';
  2543  0ECC  300A               	movlw	10
  2544  0ECD  00F0               	movwf	___awmod@divisor
  2545  0ECE  3000               	movlw	0
  2546  0ECF  00F1               	movwf	___awmod@divisor+1
  2547  0ED0  087A               	movf	itoa@value+1,w
  2548  0ED1  00F3               	movwf	___awmod@dividend+1
  2549  0ED2  0879               	movf	itoa@value,w
  2550  0ED3  00F2               	movwf	___awmod@dividend
  2551  0ED4  120A  158A  265F  120A  158A  	fcall	___awmod
  2552  0ED9  0870               	movf	?___awmod,w
  2553  0EDA  3E30               	addlw	48
  2554  0EDB  00FB               	movwf	??_itoa
  2555  0EDC  30FF               	movlw	255
  2556  0EDD  1283               	bcf	3,5	;RP0=0, select bank0
  2557  0EDE  1303               	bcf	3,6	;RP1=0, select bank0
  2558  0EDF  07A2               	addwf	itoa@c,f
  2559  0EE0  1803               	skipnc
  2560  0EE1  0AA3               	incf	itoa@c+1,f
  2561  0EE2  30FF               	movlw	255
  2562  0EE3  07A3               	addwf	itoa@c+1,f
  2563  0EE4  0822               	movf	itoa@c,w
  2564  0EE5  3E5B               	addlw	(low (itoa@buffer| 0))& (0+255)
  2565  0EE6  0084               	movwf	4
  2566  0EE7  087B               	movf	??_itoa,w
  2567  0EE8  1383               	bcf	3,7	;select IRP bank0
  2568  0EE9  0080               	movwf	0
  2569  0EEA                     l1793:
  2570                           
  2571                           ;./LCD.h: 67:          value /= 10;
  2572  0EEA  300A               	movlw	10
  2573  0EEB  00F0               	movwf	___awdiv@divisor
  2574  0EEC  3000               	movlw	0
  2575  0EED  00F1               	movwf	___awdiv@divisor+1
  2576  0EEE  087A               	movf	itoa@value+1,w
  2577  0EEF  00F3               	movwf	___awdiv@dividend+1
  2578  0EF0  0879               	movf	itoa@value,w
  2579  0EF1  00F2               	movwf	___awdiv@dividend
  2580  0EF2  120A  118A  2089  120A  158A  	fcall	___awdiv
  2581  0EF7  0871               	movf	?___awdiv+1,w
  2582  0EF8  00FA               	movwf	itoa@value+1
  2583  0EF9  0870               	movf	?___awdiv,w
  2584  0EFA  00F9               	movwf	itoa@value
  2585  0EFB                     l1795:
  2586                           
  2587                           ;./LCD.h: 68:      } while (value);
  2588  0EFB  0879               	movf	itoa@value,w
  2589  0EFC  047A               	iorwf	itoa@value+1,w
  2590  0EFD  1D03               	btfss	3,2
  2591  0EFE  2F00               	goto	u1421
  2592  0EFF  2F01               	goto	u1420
  2593  0F00                     u1421:
  2594  0F00  2ECC               	goto	l1791
  2595  0F01                     u1420:
  2596  0F01                     l177:
  2597                           
  2598                           ;./LCD.h: 70:      if (original < 0)
  2599  0F01  1283               	bcf	3,5	;RP0=0, select bank0
  2600  0F02  1303               	bcf	3,6	;RP1=0, select bank0
  2601  0F03  1FA1               	btfss	itoa@original+1,7
  2602  0F04  2F06               	goto	u1431
  2603  0F05  2F07               	goto	u1430
  2604  0F06                     u1431:
  2605  0F06  2F15               	goto	l1799
  2606  0F07                     u1430:
  2607  0F07                     l1797:
  2608                           
  2609                           ;./LCD.h: 71:          buffer[--c] = '-';
  2610  0F07  302D               	movlw	45
  2611  0F08  00FB               	movwf	??_itoa
  2612  0F09  30FF               	movlw	255
  2613  0F0A  07A2               	addwf	itoa@c,f
  2614  0F0B  1803               	skipnc
  2615  0F0C  0AA3               	incf	itoa@c+1,f
  2616  0F0D  30FF               	movlw	255
  2617  0F0E  07A3               	addwf	itoa@c+1,f
  2618  0F0F  0822               	movf	itoa@c,w
  2619  0F10  3E5B               	addlw	(low (itoa@buffer| 0))& (0+255)
  2620  0F11  0084               	movwf	4
  2621  0F12  087B               	movf	??_itoa,w
  2622  0F13  1383               	bcf	3,7	;select IRP bank0
  2623  0F14  0080               	movwf	0
  2624  0F15                     l1799:
  2625                           
  2626                           ;./LCD.h: 73:      return &buffer[c];
  2627  0F15  0822               	movf	itoa@c,w
  2628  0F16  3E5B               	addlw	(low (itoa@buffer| 0))& (0+255)
  2629  0F17                     l179:
  2630  0F17  0008               	return
  2631  0F18                     __end_of_itoa:
  2632                           
  2633                           	psect	text6
  2634  0E5F                     __ptext6:	
  2635 ;; *************** function ___awmod *****************
  2636 ;; Defined at:
  2637 ;;		line 5 in file "C:\Program Files\Microchip\xc8\v2.36\pic\sources\c90\common\awmod.c"
  2638 ;; Parameters:    Size  Location     Type
  2639 ;;  divisor         2    0[COMMON] int 
  2640 ;;  dividend        2    2[COMMON] int 
  2641 ;; Auto vars:     Size  Location     Type
  2642 ;;  sign            1    6[COMMON] unsigned char 
  2643 ;;  counter         1    5[COMMON] unsigned char 
  2644 ;; Return value:  Size  Location     Type
  2645 ;;                  2    0[COMMON] int 
  2646 ;; Registers used:
  2647 ;;		wreg, status,2, status,0
  2648 ;; Tracked objects:
  2649 ;;		On entry : 0/0
  2650 ;;		On exit  : 0/0
  2651 ;;		Unchanged: 0/0
  2652 ;; Data sizes:     COMMON   BANK0   BANK1   BANK3   BANK2
  2653 ;;      Params:         4       0       0       0       0
  2654 ;;      Locals:         2       0       0       0       0
  2655 ;;      Temps:          1       0       0       0       0
  2656 ;;      Totals:         7       0       0       0       0
  2657 ;;Total ram usage:        7 bytes
  2658 ;; Hardware stack levels used: 1
  2659 ;; This function calls:
  2660 ;;		Nothing
  2661 ;; This function is called by:
  2662 ;;		_itoa
  2663 ;; This function uses a non-reentrant model
  2664 ;;
  2665                           
  2666  0E5F                     ___awmod:	
  2667                           ;psect for function ___awmod
  2668                           
  2669  0E5F                     l1727:	
  2670                           ;incstack = 0
  2671                           ; Regs used in ___awmod: [wreg+status,2+status,0]
  2672                           
  2673  0E5F  01F6               	clrf	___awmod@sign
  2674  0E60                     l1729:
  2675  0E60  1FF3               	btfss	___awmod@dividend+1,7
  2676  0E61  2E63               	goto	u1311
  2677  0E62  2E64               	goto	u1310
  2678  0E63                     u1311:
  2679  0E63  2E6B               	goto	l1735
  2680  0E64                     u1310:
  2681  0E64                     l1731:
  2682  0E64  09F2               	comf	___awmod@dividend,f
  2683  0E65  09F3               	comf	___awmod@dividend+1,f
  2684  0E66  0AF2               	incf	___awmod@dividend,f
  2685  0E67  1903               	skipnz
  2686  0E68  0AF3               	incf	___awmod@dividend+1,f
  2687  0E69                     l1733:
  2688  0E69  01F6               	clrf	___awmod@sign
  2689  0E6A  0AF6               	incf	___awmod@sign,f
  2690  0E6B                     l1735:
  2691  0E6B  1FF1               	btfss	___awmod@divisor+1,7
  2692  0E6C  2E6E               	goto	u1321
  2693  0E6D  2E6F               	goto	u1320
  2694  0E6E                     u1321:
  2695  0E6E  2E74               	goto	l1739
  2696  0E6F                     u1320:
  2697  0E6F                     l1737:
  2698  0E6F  09F0               	comf	___awmod@divisor,f
  2699  0E70  09F1               	comf	___awmod@divisor+1,f
  2700  0E71  0AF0               	incf	___awmod@divisor,f
  2701  0E72  1903               	skipnz
  2702  0E73  0AF1               	incf	___awmod@divisor+1,f
  2703  0E74                     l1739:
  2704  0E74  0870               	movf	___awmod@divisor,w
  2705  0E75  0471               	iorwf	___awmod@divisor+1,w
  2706  0E76  1903               	btfsc	3,2
  2707  0E77  2E79               	goto	u1331
  2708  0E78  2E7A               	goto	u1330
  2709  0E79                     u1331:
  2710  0E79  2EA9               	goto	l1757
  2711  0E7A                     u1330:
  2712  0E7A                     l1741:
  2713  0E7A  01F5               	clrf	___awmod@counter
  2714  0E7B  0AF5               	incf	___awmod@counter,f
  2715  0E7C  2E88               	goto	l1747
  2716  0E7D                     l1743:
  2717  0E7D  3001               	movlw	1
  2718  0E7E                     u1345:
  2719  0E7E  1003               	clrc
  2720  0E7F  0DF0               	rlf	___awmod@divisor,f
  2721  0E80  0DF1               	rlf	___awmod@divisor+1,f
  2722  0E81  3EFF               	addlw	-1
  2723  0E82  1D03               	skipz
  2724  0E83  2E7E               	goto	u1345
  2725  0E84                     l1745:
  2726  0E84  3001               	movlw	1
  2727  0E85  00F4               	movwf	??___awmod
  2728  0E86  0874               	movf	??___awmod,w
  2729  0E87  07F5               	addwf	___awmod@counter,f
  2730  0E88                     l1747:
  2731  0E88  1FF1               	btfss	___awmod@divisor+1,7
  2732  0E89  2E8B               	goto	u1351
  2733  0E8A  2E8C               	goto	u1350
  2734  0E8B                     u1351:
  2735  0E8B  2E7D               	goto	l1743
  2736  0E8C                     u1350:
  2737  0E8C                     l1749:
  2738  0E8C  0871               	movf	___awmod@divisor+1,w
  2739  0E8D  0273               	subwf	___awmod@dividend+1,w
  2740  0E8E  1D03               	skipz
  2741  0E8F  2E92               	goto	u1365
  2742  0E90  0870               	movf	___awmod@divisor,w
  2743  0E91  0272               	subwf	___awmod@dividend,w
  2744  0E92                     u1365:
  2745  0E92  1C03               	skipc
  2746  0E93  2E95               	goto	u1361
  2747  0E94  2E96               	goto	u1360
  2748  0E95                     u1361:
  2749  0E95  2E9C               	goto	l1753
  2750  0E96                     u1360:
  2751  0E96                     l1751:
  2752  0E96  0870               	movf	___awmod@divisor,w
  2753  0E97  02F2               	subwf	___awmod@dividend,f
  2754  0E98  0871               	movf	___awmod@divisor+1,w
  2755  0E99  1C03               	skipc
  2756  0E9A  03F3               	decf	___awmod@dividend+1,f
  2757  0E9B  02F3               	subwf	___awmod@dividend+1,f
  2758  0E9C                     l1753:
  2759  0E9C  3001               	movlw	1
  2760  0E9D                     u1375:
  2761  0E9D  1003               	clrc
  2762  0E9E  0CF1               	rrf	___awmod@divisor+1,f
  2763  0E9F  0CF0               	rrf	___awmod@divisor,f
  2764  0EA0  3EFF               	addlw	-1
  2765  0EA1  1D03               	skipz
  2766  0EA2  2E9D               	goto	u1375
  2767  0EA3                     l1755:
  2768  0EA3  3001               	movlw	1
  2769  0EA4  02F5               	subwf	___awmod@counter,f
  2770  0EA5  1D03               	btfss	3,2
  2771  0EA6  2EA8               	goto	u1381
  2772  0EA7  2EA9               	goto	u1380
  2773  0EA8                     u1381:
  2774  0EA8  2E8C               	goto	l1749
  2775  0EA9                     u1380:
  2776  0EA9                     l1757:
  2777  0EA9  0876               	movf	___awmod@sign,w
  2778  0EAA  1903               	btfsc	3,2
  2779  0EAB  2EAD               	goto	u1391
  2780  0EAC  2EAE               	goto	u1390
  2781  0EAD                     u1391:
  2782  0EAD  2EB3               	goto	l1761
  2783  0EAE                     u1390:
  2784  0EAE                     l1759:
  2785  0EAE  09F2               	comf	___awmod@dividend,f
  2786  0EAF  09F3               	comf	___awmod@dividend+1,f
  2787  0EB0  0AF2               	incf	___awmod@dividend,f
  2788  0EB1  1903               	skipnz
  2789  0EB2  0AF3               	incf	___awmod@dividend+1,f
  2790  0EB3                     l1761:
  2791  0EB3  0873               	movf	___awmod@dividend+1,w
  2792  0EB4  00F1               	movwf	?___awmod+1
  2793  0EB5  0872               	movf	___awmod@dividend,w
  2794  0EB6  00F0               	movwf	?___awmod
  2795  0EB7                     l533:
  2796  0EB7  0008               	return
  2797  0EB8                     __end_of___awmod:
  2798                           
  2799                           	psect	text7
  2800  0089                     __ptext7:	
  2801 ;; *************** function ___awdiv *****************
  2802 ;; Defined at:
  2803 ;;		line 5 in file "C:\Program Files\Microchip\xc8\v2.36\pic\sources\c90\common\awdiv.c"
  2804 ;; Parameters:    Size  Location     Type
  2805 ;;  divisor         2    0[COMMON] int 
  2806 ;;  dividend        2    2[COMMON] int 
  2807 ;; Auto vars:     Size  Location     Type
  2808 ;;  quotient        2    7[COMMON] int 
  2809 ;;  sign            1    6[COMMON] unsigned char 
  2810 ;;  counter         1    5[COMMON] unsigned char 
  2811 ;; Return value:  Size  Location     Type
  2812 ;;                  2    0[COMMON] int 
  2813 ;; Registers used:
  2814 ;;		wreg, status,2, status,0
  2815 ;; Tracked objects:
  2816 ;;		On entry : 0/0
  2817 ;;		On exit  : 0/0
  2818 ;;		Unchanged: 0/0
  2819 ;; Data sizes:     COMMON   BANK0   BANK1   BANK3   BANK2
  2820 ;;      Params:         4       0       0       0       0
  2821 ;;      Locals:         4       0       0       0       0
  2822 ;;      Temps:          1       0       0       0       0
  2823 ;;      Totals:         9       0       0       0       0
  2824 ;;Total ram usage:        9 bytes
  2825 ;; Hardware stack levels used: 1
  2826 ;; This function calls:
  2827 ;;		Nothing
  2828 ;; This function is called by:
  2829 ;;		_itoa
  2830 ;;		_updateWifiCounter
  2831 ;; This function uses a non-reentrant model
  2832 ;;
  2833                           
  2834  0089                     ___awdiv:	
  2835                           ;psect for function ___awdiv
  2836                           
  2837  0089                     l1683:	
  2838                           ;incstack = 0
  2839                           ; Regs used in ___awdiv: [wreg+status,2+status,0]
  2840                           
  2841  0089  01F6               	clrf	___awdiv@sign
  2842  008A                     l1685:
  2843  008A  1FF1               	btfss	___awdiv@divisor+1,7
  2844  008B  288D               	goto	u1211
  2845  008C  288E               	goto	u1210
  2846  008D                     u1211:
  2847  008D  2895               	goto	l1691
  2848  008E                     u1210:
  2849  008E                     l1687:
  2850  008E  09F0               	comf	___awdiv@divisor,f
  2851  008F  09F1               	comf	___awdiv@divisor+1,f
  2852  0090  0AF0               	incf	___awdiv@divisor,f
  2853  0091  1903               	skipnz
  2854  0092  0AF1               	incf	___awdiv@divisor+1,f
  2855  0093                     l1689:
  2856  0093  01F6               	clrf	___awdiv@sign
  2857  0094  0AF6               	incf	___awdiv@sign,f
  2858  0095                     l1691:
  2859  0095  1FF3               	btfss	___awdiv@dividend+1,7
  2860  0096  2898               	goto	u1221
  2861  0097  2899               	goto	u1220
  2862  0098                     u1221:
  2863  0098  28A2               	goto	l1697
  2864  0099                     u1220:
  2865  0099                     l1693:
  2866  0099  09F2               	comf	___awdiv@dividend,f
  2867  009A  09F3               	comf	___awdiv@dividend+1,f
  2868  009B  0AF2               	incf	___awdiv@dividend,f
  2869  009C  1903               	skipnz
  2870  009D  0AF3               	incf	___awdiv@dividend+1,f
  2871  009E                     l1695:
  2872  009E  3001               	movlw	1
  2873  009F  00F4               	movwf	??___awdiv
  2874  00A0  0874               	movf	??___awdiv,w
  2875  00A1  06F6               	xorwf	___awdiv@sign,f
  2876  00A2                     l1697:
  2877  00A2  01F7               	clrf	___awdiv@quotient
  2878  00A3  01F8               	clrf	___awdiv@quotient+1
  2879  00A4                     l1699:
  2880  00A4  0870               	movf	___awdiv@divisor,w
  2881  00A5  0471               	iorwf	___awdiv@divisor+1,w
  2882  00A6  1903               	btfsc	3,2
  2883  00A7  28A9               	goto	u1231
  2884  00A8  28AA               	goto	u1230
  2885  00A9                     u1231:
  2886  00A9  28E1               	goto	l1719
  2887  00AA                     u1230:
  2888  00AA                     l1701:
  2889  00AA  01F5               	clrf	___awdiv@counter
  2890  00AB  0AF5               	incf	___awdiv@counter,f
  2891  00AC  28B8               	goto	l1707
  2892  00AD                     l1703:
  2893  00AD  3001               	movlw	1
  2894  00AE                     u1245:
  2895  00AE  1003               	clrc
  2896  00AF  0DF0               	rlf	___awdiv@divisor,f
  2897  00B0  0DF1               	rlf	___awdiv@divisor+1,f
  2898  00B1  3EFF               	addlw	-1
  2899  00B2  1D03               	skipz
  2900  00B3  28AE               	goto	u1245
  2901  00B4                     l1705:
  2902  00B4  3001               	movlw	1
  2903  00B5  00F4               	movwf	??___awdiv
  2904  00B6  0874               	movf	??___awdiv,w
  2905  00B7  07F5               	addwf	___awdiv@counter,f
  2906  00B8                     l1707:
  2907  00B8  1FF1               	btfss	___awdiv@divisor+1,7
  2908  00B9  28BB               	goto	u1251
  2909  00BA  28BC               	goto	u1250
  2910  00BB                     u1251:
  2911  00BB  28AD               	goto	l1703
  2912  00BC                     u1250:
  2913  00BC                     l1709:
  2914  00BC  3001               	movlw	1
  2915  00BD                     u1265:
  2916  00BD  1003               	clrc
  2917  00BE  0DF7               	rlf	___awdiv@quotient,f
  2918  00BF  0DF8               	rlf	___awdiv@quotient+1,f
  2919  00C0  3EFF               	addlw	-1
  2920  00C1  1D03               	skipz
  2921  00C2  28BD               	goto	u1265
  2922  00C3  0871               	movf	___awdiv@divisor+1,w
  2923  00C4  0273               	subwf	___awdiv@dividend+1,w
  2924  00C5  1D03               	skipz
  2925  00C6  28C9               	goto	u1275
  2926  00C7  0870               	movf	___awdiv@divisor,w
  2927  00C8  0272               	subwf	___awdiv@dividend,w
  2928  00C9                     u1275:
  2929  00C9  1C03               	skipc
  2930  00CA  28CC               	goto	u1271
  2931  00CB  28CD               	goto	u1270
  2932  00CC                     u1271:
  2933  00CC  28D4               	goto	l1715
  2934  00CD                     u1270:
  2935  00CD                     l1711:
  2936  00CD  0870               	movf	___awdiv@divisor,w
  2937  00CE  02F2               	subwf	___awdiv@dividend,f
  2938  00CF  0871               	movf	___awdiv@divisor+1,w
  2939  00D0  1C03               	skipc
  2940  00D1  03F3               	decf	___awdiv@dividend+1,f
  2941  00D2  02F3               	subwf	___awdiv@dividend+1,f
  2942  00D3                     l1713:
  2943  00D3  1477               	bsf	___awdiv@quotient,0
  2944  00D4                     l1715:
  2945  00D4  3001               	movlw	1
  2946  00D5                     u1285:
  2947  00D5  1003               	clrc
  2948  00D6  0CF1               	rrf	___awdiv@divisor+1,f
  2949  00D7  0CF0               	rrf	___awdiv@divisor,f
  2950  00D8  3EFF               	addlw	-1
  2951  00D9  1D03               	skipz
  2952  00DA  28D5               	goto	u1285
  2953  00DB                     l1717:
  2954  00DB  3001               	movlw	1
  2955  00DC  02F5               	subwf	___awdiv@counter,f
  2956  00DD  1D03               	btfss	3,2
  2957  00DE  28E0               	goto	u1291
  2958  00DF  28E1               	goto	u1290
  2959  00E0                     u1291:
  2960  00E0  28BC               	goto	l1709
  2961  00E1                     u1290:
  2962  00E1                     l1719:
  2963  00E1  0876               	movf	___awdiv@sign,w
  2964  00E2  1903               	btfsc	3,2
  2965  00E3  28E5               	goto	u1301
  2966  00E4  28E6               	goto	u1300
  2967  00E5                     u1301:
  2968  00E5  28EB               	goto	l1723
  2969  00E6                     u1300:
  2970  00E6                     l1721:
  2971  00E6  09F7               	comf	___awdiv@quotient,f
  2972  00E7  09F8               	comf	___awdiv@quotient+1,f
  2973  00E8  0AF7               	incf	___awdiv@quotient,f
  2974  00E9  1903               	skipnz
  2975  00EA  0AF8               	incf	___awdiv@quotient+1,f
  2976  00EB                     l1723:
  2977  00EB  0878               	movf	___awdiv@quotient+1,w
  2978  00EC  00F1               	movwf	?___awdiv+1
  2979  00ED  0877               	movf	___awdiv@quotient,w
  2980  00EE  00F0               	movwf	?___awdiv
  2981  00EF                     l520:
  2982  00EF  0008               	return
  2983  00F0                     __end_of___awdiv:
  2984                           
  2985                           	psect	text8
  2986  0CB0                     __ptext8:	
  2987 ;; *************** function _broadcast_BT *****************
  2988 ;; Defined at:
  2989 ;;		line 38 in file "./BT.h"
  2990 ;; Parameters:    Size  Location     Type
  2991 ;;		None
  2992 ;; Auto vars:     Size  Location     Type
  2993 ;;		None
  2994 ;; Return value:  Size  Location     Type
  2995 ;;                  1    wreg      void 
  2996 ;; Registers used:
  2997 ;;		wreg
  2998 ;; Tracked objects:
  2999 ;;		On entry : 0/0
  3000 ;;		On exit  : 0/0
  3001 ;;		Unchanged: 0/0
  3002 ;; Data sizes:     COMMON   BANK0   BANK1   BANK3   BANK2
  3003 ;;      Params:         0       0       0       0       0
  3004 ;;      Locals:         0       0       0       0       0
  3005 ;;      Temps:          3       0       0       0       0
  3006 ;;      Totals:         3       0       0       0       0
  3007 ;;Total ram usage:        3 bytes
  3008 ;; Hardware stack levels used: 1
  3009 ;; This function calls:
  3010 ;;		Nothing
  3011 ;; This function is called by:
  3012 ;;		_person150_170
  3013 ;;		_person170_190
  3014 ;;		_personOver_190
  3015 ;; This function uses a non-reentrant model
  3016 ;;
  3017                           
  3018  0CB0                     _broadcast_BT:	
  3019                           ;psect for function _broadcast_BT
  3020                           
  3021  0CB0                     l1811:	
  3022                           ;incstack = 0
  3023                           ; Regs used in _broadcast_BT: [wreg]
  3024                           
  3025                           
  3026                           ;./BT.h: 39:   TXREG = 13;
  3027  0CB0  300D               	movlw	13
  3028  0CB1  1283               	bcf	3,5	;RP0=0, select bank0
  3029  0CB2  1303               	bcf	3,6	;RP1=0, select bank0
  3030  0CB3  0099               	movwf	25	;volatile
  3031                           
  3032                           ;./BT.h: 40:   _delay((unsigned long)((300)*(4000000/4000.0)));
  3033  0CB4  3002               	movlw	2
  3034  0CB5  00F2               	movwf	??_broadcast_BT+2
  3035  0CB6  3086               	movlw	134
  3036  0CB7  00F1               	movwf	??_broadcast_BT+1
  3037  0CB8  3099               	movlw	153
  3038  0CB9  00F0               	movwf	??_broadcast_BT
  3039  0CBA                     u2407:
  3040  0CBA  0BF0               	decfsz	??_broadcast_BT,f
  3041  0CBB  2CBA               	goto	u2407
  3042  0CBC  0BF1               	decfsz	??_broadcast_BT+1,f
  3043  0CBD  2CBA               	goto	u2407
  3044  0CBE  0BF2               	decfsz	??_broadcast_BT+2,f
  3045  0CBF  2CBA               	goto	u2407
  3046  0CC0                     l203:
  3047  0CC0  0008               	return
  3048  0CC1                     __end_of_broadcast_BT:
  3049                           
  3050                           	psect	text9
  3051  0D3C                     __ptext9:	
  3052 ;; *************** function _LCD_string *****************
  3053 ;; Defined at:
  3054 ;;		line 46 in file "./LCD.h"
  3055 ;; Parameters:    Size  Location     Type
  3056 ;;  str             2    3[COMMON] PTR unsigned char 
  3057 ;;		 -> RAM(512), STR_4(2), STR_3(2), STR_2(2), 
  3058 ;;		 -> STR_1(15), 
  3059 ;; Auto vars:     Size  Location     Type
  3060 ;;  i               2    5[COMMON] int 
  3061 ;; Return value:  Size  Location     Type
  3062 ;;                  1    wreg      void 
  3063 ;; Registers used:
  3064 ;;		wreg, fsr0l, fsr0h, status,2, status,0, btemp+1, pclath, cstack
  3065 ;; Tracked objects:
  3066 ;;		On entry : 0/0
  3067 ;;		On exit  : 0/0
  3068 ;;		Unchanged: 0/0
  3069 ;; Data sizes:     COMMON   BANK0   BANK1   BANK3   BANK2
  3070 ;;      Params:         2       0       0       0       0
  3071 ;;      Locals:         2       0       0       0       0
  3072 ;;      Temps:          0       0       0       0       0
  3073 ;;      Totals:         4       0       0       0       0
  3074 ;;Total ram usage:        4 bytes
  3075 ;; Hardware stack levels used: 1
  3076 ;; Hardware stack levels required when called: 1
  3077 ;; This function calls:
  3078 ;;		_LCD_Data
  3079 ;; This function is called by:
  3080 ;;		_main
  3081 ;;		_person150_170
  3082 ;;		_person170_190
  3083 ;;		_personOver_190
  3084 ;; This function uses a non-reentrant model
  3085 ;;
  3086                           
  3087  0D3C                     _LCD_string:	
  3088                           ;psect for function _LCD_string
  3089                           
  3090  0D3C                     l1775:	
  3091                           ;incstack = 0
  3092                           ; Regs used in _LCD_string: [wreg-fsr0h+status,2+status,0+btemp+1+pclath+cstack]
  3093                           
  3094                           
  3095                           ;./LCD.h: 46: void LCD_string (unsigned char *str);./LCD.h: 47: {;./LCD.h: 48: int i;;./
      +                          LCD.h: 49: for(i=0;str[i]!='\0';i++)
  3096  0D3C  01F5               	clrf	LCD_string@i
  3097  0D3D  01F6               	clrf	LCD_string@i+1
  3098  0D3E  2D57               	goto	l1781
  3099  0D3F                     l1777:
  3100                           
  3101                           ;./LCD.h: 50:   LCD_Data(str[i]);
  3102  0D3F  0875               	movf	LCD_string@i,w
  3103  0D40  0773               	addwf	LCD_string@str,w
  3104  0D41  0084               	movwf	4
  3105  0D42  0876               	movf	LCD_string@i+1,w
  3106  0D43  1803               	skipnc
  3107  0D44  0A76               	incf	LCD_string@i+1,w
  3108  0D45  0774               	addwf	LCD_string@str+1,w
  3109  0D46  00FF               	movwf	btemp+1
  3110  0D47  120A  118A  2003  120A  158A  	fcall	stringtab
  3111  0D4C  120A  158A  24E9  120A  158A  	fcall	_LCD_Data
  3112  0D51                     l1779:
  3113  0D51  3001               	movlw	1
  3114  0D52  07F5               	addwf	LCD_string@i,f
  3115  0D53  1803               	skipnc
  3116  0D54  0AF6               	incf	LCD_string@i+1,f
  3117  0D55  3000               	movlw	0
  3118  0D56  07F6               	addwf	LCD_string@i+1,f
  3119  0D57                     l1781:
  3120  0D57  0875               	movf	LCD_string@i,w
  3121  0D58  0773               	addwf	LCD_string@str,w
  3122  0D59  0084               	movwf	4
  3123  0D5A  0876               	movf	LCD_string@i+1,w
  3124  0D5B  1803               	skipnc
  3125  0D5C  0A76               	incf	LCD_string@i+1,w
  3126  0D5D  0774               	addwf	LCD_string@str+1,w
  3127  0D5E  1283               	bcf	3,5	;RP0=0, select bank0
  3128  0D5F  1303               	bcf	3,6	;RP1=0, select bank0
  3129  0D60  00FF               	movwf	btemp+1
  3130  0D61  120A  118A  2003  120A  158A  	fcall	stringtab
  3131  0D66  3A00               	xorlw	0
  3132  0D67  1D03               	skipz
  3133  0D68  2D6A               	goto	u1401
  3134  0D69  2D6B               	goto	u1400
  3135  0D6A                     u1401:
  3136  0D6A  2D3F               	goto	l1777
  3137  0D6B                     u1400:
  3138  0D6B                     l170:
  3139  0D6B  0008               	return
  3140  0D6C                     __end_of_LCD_string:
  3141                           
  3142                           	psect	text10
  3143  0CE9                     __ptext10:	
  3144 ;; *************** function _LCD_Data *****************
  3145 ;; Defined at:
  3146 ;;		line 16 in file "./LCD.h"
  3147 ;; Parameters:    Size  Location     Type
  3148 ;;  data            1    wreg     unsigned char 
  3149 ;; Auto vars:     Size  Location     Type
  3150 ;;  data            1    2[COMMON] unsigned char 
  3151 ;; Return value:  Size  Location     Type
  3152 ;;                  1    wreg      void 
  3153 ;; Registers used:
  3154 ;;		wreg
  3155 ;; Tracked objects:
  3156 ;;		On entry : 0/0
  3157 ;;		On exit  : 0/0
  3158 ;;		Unchanged: 0/0
  3159 ;; Data sizes:     COMMON   BANK0   BANK1   BANK3   BANK2
  3160 ;;      Params:         0       0       0       0       0
  3161 ;;      Locals:         1       0       0       0       0
  3162 ;;      Temps:          2       0       0       0       0
  3163 ;;      Totals:         3       0       0       0       0
  3164 ;;Total ram usage:        3 bytes
  3165 ;; Hardware stack levels used: 1
  3166 ;; This function calls:
  3167 ;;		Nothing
  3168 ;; This function is called by:
  3169 ;;		_LCD_string
  3170 ;; This function uses a non-reentrant model
  3171 ;;
  3172                           
  3173  0CE9                     _LCD_Data:	
  3174                           ;psect for function _LCD_Data
  3175                           
  3176                           
  3177                           ;incstack = 0
  3178                           ; Regs used in _LCD_Data: [wreg]
  3179                           ;LCD_Data@data stored from wreg
  3180  0CE9  00F2               	movwf	LCD_Data@data
  3181  0CEA                     l1671:
  3182                           
  3183                           ;./LCD.h: 16: void LCD_Data(unsigned char data);./LCD.h: 17: {;./LCD.h: 18: PORTB = data
      +                          ;
  3184  0CEA  0872               	movf	LCD_Data@data,w
  3185  0CEB  1283               	bcf	3,5	;RP0=0, select bank0
  3186  0CEC  1303               	bcf	3,6	;RP1=0, select bank0
  3187  0CED  0086               	movwf	6	;volatile
  3188  0CEE                     l1673:
  3189                           
  3190                           ;./LCD.h: 19: RC2 = 1 ;
  3191  0CEE  1507               	bsf	7,2	;volatile
  3192  0CEF                     l1675:
  3193                           
  3194                           ;./LCD.h: 20: RC3 = 0 ;
  3195  0CEF  1187               	bcf	7,3	;volatile
  3196  0CF0                     l1677:
  3197                           
  3198                           ;./LCD.h: 21: RD0 = 1;
  3199  0CF0  1408               	bsf	8,0	;volatile
  3200                           
  3201                           ;./LCD.h: 22: _delay((unsigned long)((5)*(4000000/4000.0)));
  3202  0CF1  3007               	movlw	7
  3203  0CF2  00F1               	movwf	??_LCD_Data+1
  3204  0CF3  307D               	movlw	125
  3205  0CF4  00F0               	movwf	??_LCD_Data
  3206  0CF5                     u2417:
  3207  0CF5  0BF0               	decfsz	??_LCD_Data,f
  3208  0CF6  2CF5               	goto	u2417
  3209  0CF7  0BF1               	decfsz	??_LCD_Data+1,f
  3210  0CF8  2CF5               	goto	u2417
  3211  0CF9                     l1679:
  3212                           
  3213                           ;./LCD.h: 23: RD0 = 0;
  3214  0CF9  1283               	bcf	3,5	;RP0=0, select bank0
  3215  0CFA  1303               	bcf	3,6	;RP1=0, select bank0
  3216  0CFB  1008               	bcf	8,0	;volatile
  3217  0CFC                     l158:
  3218  0CFC  0008               	return
  3219  0CFD                     __end_of_LCD_Data:
  3220                           
  3221                           	psect	text11
  3222  0D16                     __ptext11:	
  3223 ;; *************** function _BT_load_string *****************
  3224 ;; Defined at:
  3225 ;;		line 31 in file "./BT.h"
  3226 ;; Parameters:    Size  Location     Type
  3227 ;;  string          2    1[COMMON] PTR unsigned char 
  3228 ;;		 -> STR_13(26), STR_12(2), STR_11(19), STR_10(26), 
  3229 ;;		 -> STR_9(2), STR_8(26), STR_7(26), STR_6(2), 
  3230 ;;		 -> STR_5(26), RAM(512), 
  3231 ;; Auto vars:     Size  Location     Type
  3232 ;;		None
  3233 ;; Return value:  Size  Location     Type
  3234 ;;                  1    wreg      void 
  3235 ;; Registers used:
  3236 ;;		wreg, fsr0l, fsr0h, status,2, status,0, btemp+1, pclath, cstack
  3237 ;; Tracked objects:
  3238 ;;		On entry : 0/0
  3239 ;;		On exit  : 0/0
  3240 ;;		Unchanged: 0/0
  3241 ;; Data sizes:     COMMON   BANK0   BANK1   BANK3   BANK2
  3242 ;;      Params:         2       0       0       0       0
  3243 ;;      Locals:         0       0       0       0       0
  3244 ;;      Temps:          0       0       0       0       0
  3245 ;;      Totals:         2       0       0       0       0
  3246 ;;Total ram usage:        2 bytes
  3247 ;; Hardware stack levels used: 1
  3248 ;; Hardware stack levels required when called: 1
  3249 ;; This function calls:
  3250 ;;		_BT_load_char
  3251 ;; This function is called by:
  3252 ;;		_person150_170
  3253 ;;		_person170_190
  3254 ;;		_personOver_190
  3255 ;; This function uses a non-reentrant model
  3256 ;;
  3257                           
  3258  0D16                     _BT_load_string:	
  3259                           ;psect for function _BT_load_string
  3260                           
  3261  0D16                     l1803:	
  3262                           ;incstack = 0
  3263                           ; Regs used in _BT_load_string: [wreg-fsr0h+status,2+status,0+btemp+1+pclath+cstack]
  3264                           
  3265                           
  3266                           ;./BT.h: 32:     while(*string)
  3267  0D16  2D2B               	goto	l1809
  3268  0D17                     l1805:
  3269                           
  3270                           ;./BT.h: 33:     BT_load_char(*string++);
  3271  0D17  0872               	movf	BT_load_string@string+1,w
  3272  0D18  00FF               	movwf	btemp+1
  3273  0D19  0871               	movf	BT_load_string@string,w
  3274  0D1A  0084               	movwf	4
  3275  0D1B  120A  118A  2003  120A  158A  	fcall	stringtab
  3276  0D20  120A  158A  24A0  120A  158A  	fcall	_BT_load_char
  3277  0D25                     l1807:
  3278  0D25  3001               	movlw	1
  3279  0D26  07F1               	addwf	BT_load_string@string,f
  3280  0D27  1803               	skipnc
  3281  0D28  0AF2               	incf	BT_load_string@string+1,f
  3282  0D29  3000               	movlw	0
  3283  0D2A  07F2               	addwf	BT_load_string@string+1,f
  3284  0D2B                     l1809:
  3285                           
  3286                           ;./BT.h: 32:     while(*string)
  3287  0D2B  0872               	movf	BT_load_string@string+1,w
  3288  0D2C  1283               	bcf	3,5	;RP0=0, select bank0
  3289  0D2D  1303               	bcf	3,6	;RP1=0, select bank0
  3290  0D2E  00FF               	movwf	btemp+1
  3291  0D2F  0871               	movf	BT_load_string@string,w
  3292  0D30  0084               	movwf	4
  3293  0D31  120A  118A  2003  120A  158A  	fcall	stringtab
  3294  0D36  3A00               	xorlw	0
  3295  0D37  1D03               	skipz
  3296  0D38  2D3A               	goto	u1441
  3297  0D39  2D3B               	goto	u1440
  3298  0D3A                     u1441:
  3299  0D3A  2D17               	goto	l1805
  3300  0D3B                     u1440:
  3301  0D3B                     l200:
  3302  0D3B  0008               	return
  3303  0D3C                     __end_of_BT_load_string:
  3304                           
  3305                           	psect	text12
  3306  0CA0                     __ptext12:	
  3307 ;; *************** function _BT_load_char *****************
  3308 ;; Defined at:
  3309 ;;		line 23 in file "./BT.h"
  3310 ;; Parameters:    Size  Location     Type
  3311 ;;  byte            1    wreg     unsigned char 
  3312 ;; Auto vars:     Size  Location     Type
  3313 ;;  byte            1    0[COMMON] unsigned char 
  3314 ;; Return value:  Size  Location     Type
  3315 ;;                  1    wreg      void 
  3316 ;; Registers used:
  3317 ;;		wreg
  3318 ;; Tracked objects:
  3319 ;;		On entry : 0/0
  3320 ;;		On exit  : 0/0
  3321 ;;		Unchanged: 0/0
  3322 ;; Data sizes:     COMMON   BANK0   BANK1   BANK3   BANK2
  3323 ;;      Params:         0       0       0       0       0
  3324 ;;      Locals:         1       0       0       0       0
  3325 ;;      Temps:          0       0       0       0       0
  3326 ;;      Totals:         1       0       0       0       0
  3327 ;;Total ram usage:        1 bytes
  3328 ;; Hardware stack levels used: 1
  3329 ;; This function calls:
  3330 ;;		Nothing
  3331 ;; This function is called by:
  3332 ;;		_BT_load_string
  3333 ;; This function uses a non-reentrant model
  3334 ;;
  3335                           
  3336  0CA0                     _BT_load_char:	
  3337                           ;psect for function _BT_load_char
  3338                           
  3339                           
  3340                           ;incstack = 0
  3341                           ; Regs used in _BT_load_char: [wreg]
  3342                           ;BT_load_char@byte stored from wreg
  3343  0CA0  00F0               	movwf	BT_load_char@byte
  3344  0CA1                     l1681:
  3345                           
  3346                           ;./BT.h: 24:     TXREG = byte;
  3347  0CA1  0870               	movf	BT_load_char@byte,w
  3348  0CA2  1283               	bcf	3,5	;RP0=0, select bank0
  3349  0CA3  1303               	bcf	3,6	;RP1=0, select bank0
  3350  0CA4  0099               	movwf	25	;volatile
  3351  0CA5                     l188:	
  3352                           ;./BT.h: 25:     while(!TXIF);
  3353                           
  3354  0CA5  1E0C               	btfss	12,4	;volatile
  3355  0CA6  2CA8               	goto	u1191
  3356  0CA7  2CA9               	goto	u1190
  3357  0CA8                     u1191:
  3358  0CA8  2CA5               	goto	l188
  3359  0CA9                     u1190:
  3360  0CA9                     l191:
  3361  0CA9  1683               	bsf	3,5	;RP0=1, select bank1
  3362  0CAA  1303               	bcf	3,6	;RP1=0, select bank1
  3363  0CAB  1C98               	btfss	24,1	;volatile
  3364  0CAC  2CAE               	goto	u1201
  3365  0CAD  2CAF               	goto	u1200
  3366  0CAE                     u1201:
  3367  0CAE  2CA9               	goto	l191
  3368  0CAF                     u1200:
  3369  0CAF                     l194:
  3370  0CAF  0008               	return
  3371  0CB0                     __end_of_BT_load_char:
  3372                           
  3373                           	psect	text13
  3374  0E0E                     __ptext13:	
  3375 ;; *************** function _dist3 *****************
  3376 ;; Defined at:
  3377 ;;		line 47 in file "./sensor.h"
  3378 ;; Parameters:    Size  Location     Type
  3379 ;;		None
  3380 ;; Auto vars:     Size  Location     Type
  3381 ;;  distance3       4   31[BANK0 ] float 
  3382 ;; Return value:  Size  Location     Type
  3383 ;;                  4   26[BANK0 ] float 
  3384 ;; Registers used:
  3385 ;;		wreg, status,2, status,0, btemp+1, pclath, cstack
  3386 ;; Tracked objects:
  3387 ;;		On entry : 0/0
  3388 ;;		On exit  : 0/0
  3389 ;;		Unchanged: 0/0
  3390 ;; Data sizes:     COMMON   BANK0   BANK1   BANK3   BANK2
  3391 ;;      Params:         0       4       0       0       0
  3392 ;;      Locals:         0       4       0       0       0
  3393 ;;      Temps:          0       1       0       0       0
  3394 ;;      Totals:         0       9       0       0       0
  3395 ;;Total ram usage:        9 bytes
  3396 ;; Hardware stack levels used: 1
  3397 ;; Hardware stack levels required when called: 1
  3398 ;; This function calls:
  3399 ;;		___fldiv
  3400 ;;		___xxtofl
  3401 ;; This function is called by:
  3402 ;;		_main
  3403 ;; This function uses a non-reentrant model
  3404 ;;
  3405                           
  3406  0E0E                     _dist3:	
  3407                           ;psect for function _dist3
  3408                           
  3409  0E0E                     l2039:	
  3410                           ;incstack = 0
  3411                           ; Regs used in _dist3: [wreg+status,2+status,0+btemp+1+pclath+cstack]
  3412                           
  3413  0E0E                     l2041:
  3414                           
  3415                           ;./sensor.h: 50:     TMR1 = 0;
  3416  0E0E  1283               	bcf	3,5	;RP0=0, select bank0
  3417  0E0F  1303               	bcf	3,6	;RP1=0, select bank0
  3418  0E10  018E               	clrf	14	;volatile
  3419  0E11  018F               	clrf	15	;volatile
  3420  0E12                     l2043:
  3421                           
  3422                           ;./sensor.h: 51:     RC5 = 1;
  3423  0E12  1687               	bsf	7,5	;volatile
  3424  0E13                     l2045:
  3425                           
  3426                           ;./sensor.h: 52:     _delay((unsigned long)((10)*(4000000/4000000.0)));
  3427  0E13  3002               	movlw	2
  3428  0E14  1283               	bcf	3,5	;RP0=0, select bank0
  3429  0E15  1303               	bcf	3,6	;RP1=0, select bank0
  3430  0E16  00BE               	movwf	??_dist3
  3431  0E17                     u2427:
  3432  0E17  0BBE               	decfsz	??_dist3,f
  3433  0E18  2E17               	goto	u2427
  3434  0E19  0000               	nop
  3435  0E1A                     l2047:
  3436                           
  3437                           ;./sensor.h: 53:     RC5 = 0;
  3438  0E1A  1283               	bcf	3,5	;RP0=0, select bank0
  3439  0E1B  1303               	bcf	3,6	;RP1=0, select bank0
  3440  0E1C  1287               	bcf	7,5	;volatile
  3441  0E1D                     l149:	
  3442                           ;./sensor.h: 54:     while(!RC4);
  3443                           
  3444  0E1D  1E07               	btfss	7,4	;volatile
  3445  0E1E  2E20               	goto	u1921
  3446  0E1F  2E21               	goto	u1920
  3447  0E20                     u1921:
  3448  0E20  2E1D               	goto	l149
  3449  0E21                     u1920:
  3450  0E21                     l151:
  3451                           
  3452                           ;./sensor.h: 55:     TMR1ON = 1;
  3453  0E21  1410               	bsf	16,0	;volatile
  3454  0E22                     l152:	
  3455                           ;./sensor.h: 56:     while(RC4);
  3456                           
  3457  0E22  1A07               	btfsc	7,4	;volatile
  3458  0E23  2E25               	goto	u1931
  3459  0E24  2E26               	goto	u1930
  3460  0E25                     u1931:
  3461  0E25  2E22               	goto	l152
  3462  0E26                     u1930:
  3463  0E26                     l154:
  3464                           
  3465                           ;./sensor.h: 57:     TMR1ON = 0;
  3466  0E26  1010               	bcf	16,0	;volatile
  3467  0E27                     l2049:
  3468                           
  3469                           ;./sensor.h: 58:     distance3 = TMR1/58.8;
  3470  0E27  3042               	movlw	66
  3471  0E28  00A3               	movwf	___fldiv@a+3
  3472  0E29  306B               	movlw	107
  3473  0E2A  00A2               	movwf	___fldiv@a+2
  3474  0E2B  3033               	movlw	51
  3475  0E2C  00A1               	movwf	___fldiv@a+1
  3476  0E2D  3033               	movlw	51
  3477  0E2E  00A0               	movwf	___fldiv@a
  3478  0E2F  080E               	movf	14,w	;volatile
  3479  0E30  00F0               	movwf	___xxtofl@val
  3480  0E31  080F               	movf	15,w	;volatile
  3481  0E32  00F1               	movwf	___xxtofl@val+1
  3482  0E33  01F2               	clrf	___xxtofl@val+2
  3483  0E34  01F3               	clrf	___xxtofl@val+3
  3484  0E35  3000               	movlw	0
  3485  0E36  120A  118A  2206  120A  158A  	fcall	___xxtofl
  3486  0E3B  0873               	movf	?___xxtofl+3,w
  3487  0E3C  1283               	bcf	3,5	;RP0=0, select bank0
  3488  0E3D  1303               	bcf	3,6	;RP1=0, select bank0
  3489  0E3E  00A7               	movwf	___fldiv@b+3
  3490  0E3F  0872               	movf	?___xxtofl+2,w
  3491  0E40  00A6               	movwf	___fldiv@b+2
  3492  0E41  0871               	movf	?___xxtofl+1,w
  3493  0E42  00A5               	movwf	___fldiv@b+1
  3494  0E43  0870               	movf	?___xxtofl,w
  3495  0E44  00A4               	movwf	___fldiv@b
  3496  0E45  120A  118A  25FE  120A  158A  	fcall	___fldiv
  3497  0E4A  1283               	bcf	3,5	;RP0=0, select bank0
  3498  0E4B  1303               	bcf	3,6	;RP1=0, select bank0
  3499  0E4C  0823               	movf	?___fldiv+3,w
  3500  0E4D  00C2               	movwf	dist3@distance3+3
  3501  0E4E  0822               	movf	?___fldiv+2,w
  3502  0E4F  00C1               	movwf	dist3@distance3+2
  3503  0E50  0821               	movf	?___fldiv+1,w
  3504  0E51  00C0               	movwf	dist3@distance3+1
  3505  0E52  0820               	movf	?___fldiv,w
  3506  0E53  00BF               	movwf	dist3@distance3
  3507  0E54                     l2051:
  3508                           
  3509                           ;./sensor.h: 59:     T1CKPS0=0;
  3510  0E54  1210               	bcf	16,4	;volatile
  3511  0E55                     l2053:
  3512                           
  3513                           ;./sensor.h: 60:     T1CKPS1=0;
  3514  0E55  1290               	bcf	16,5	;volatile
  3515  0E56                     l2055:
  3516                           
  3517                           ;./sensor.h: 62:     return distance3;
  3518  0E56  0842               	movf	dist3@distance3+3,w
  3519  0E57  00BD               	movwf	?_dist3+3
  3520  0E58  0841               	movf	dist3@distance3+2,w
  3521  0E59  00BC               	movwf	?_dist3+2
  3522  0E5A  0840               	movf	dist3@distance3+1,w
  3523  0E5B  00BB               	movwf	?_dist3+1
  3524  0E5C  083F               	movf	dist3@distance3,w
  3525  0E5D  00BA               	movwf	?_dist3
  3526  0E5E                     l155:
  3527  0E5E  0008               	return
  3528  0E5F                     __end_of_dist3:
  3529                           
  3530                           	psect	text14
  3531  0DBD                     __ptext14:	
  3532 ;; *************** function _dist2 *****************
  3533 ;; Defined at:
  3534 ;;		line 29 in file "./sensor.h"
  3535 ;; Parameters:    Size  Location     Type
  3536 ;;		None
  3537 ;; Auto vars:     Size  Location     Type
  3538 ;;  distance2       4   31[BANK0 ] float 
  3539 ;; Return value:  Size  Location     Type
  3540 ;;                  4   26[BANK0 ] float 
  3541 ;; Registers used:
  3542 ;;		wreg, status,2, status,0, btemp+1, pclath, cstack
  3543 ;; Tracked objects:
  3544 ;;		On entry : 0/0
  3545 ;;		On exit  : 0/0
  3546 ;;		Unchanged: 0/0
  3547 ;; Data sizes:     COMMON   BANK0   BANK1   BANK3   BANK2
  3548 ;;      Params:         0       4       0       0       0
  3549 ;;      Locals:         0       4       0       0       0
  3550 ;;      Temps:          0       1       0       0       0
  3551 ;;      Totals:         0       9       0       0       0
  3552 ;;Total ram usage:        9 bytes
  3553 ;; Hardware stack levels used: 1
  3554 ;; Hardware stack levels required when called: 1
  3555 ;; This function calls:
  3556 ;;		___fldiv
  3557 ;;		___xxtofl
  3558 ;; This function is called by:
  3559 ;;		_main
  3560 ;; This function uses a non-reentrant model
  3561 ;;
  3562                           
  3563  0DBD                     _dist2:	
  3564                           ;psect for function _dist2
  3565                           
  3566  0DBD                     l2019:	
  3567                           ;incstack = 0
  3568                           ; Regs used in _dist2: [wreg+status,2+status,0+btemp+1+pclath+cstack]
  3569                           
  3570  0DBD                     l2021:
  3571                           
  3572                           ;./sensor.h: 32:     TMR1 = 0;
  3573  0DBD  1283               	bcf	3,5	;RP0=0, select bank0
  3574  0DBE  1303               	bcf	3,6	;RP1=0, select bank0
  3575  0DBF  018E               	clrf	14	;volatile
  3576  0DC0  018F               	clrf	15	;volatile
  3577  0DC1                     l2023:
  3578                           
  3579                           ;./sensor.h: 33:     RD5 = 1;
  3580  0DC1  1688               	bsf	8,5	;volatile
  3581  0DC2                     l2025:
  3582                           
  3583                           ;./sensor.h: 34:     _delay((unsigned long)((10)*(4000000/4000000.0)));
  3584  0DC2  3002               	movlw	2
  3585  0DC3  1283               	bcf	3,5	;RP0=0, select bank0
  3586  0DC4  1303               	bcf	3,6	;RP1=0, select bank0
  3587  0DC5  00BE               	movwf	??_dist2
  3588  0DC6                     u2437:
  3589  0DC6  0BBE               	decfsz	??_dist2,f
  3590  0DC7  2DC6               	goto	u2437
  3591  0DC8  0000               	nop
  3592  0DC9                     l2027:
  3593                           
  3594                           ;./sensor.h: 35:     RD5 = 0;
  3595  0DC9  1283               	bcf	3,5	;RP0=0, select bank0
  3596  0DCA  1303               	bcf	3,6	;RP1=0, select bank0
  3597  0DCB  1288               	bcf	8,5	;volatile
  3598  0DCC                     l140:	
  3599                           ;./sensor.h: 36:     while(!RD4);
  3600                           
  3601  0DCC  1E08               	btfss	8,4	;volatile
  3602  0DCD  2DCF               	goto	u1901
  3603  0DCE  2DD0               	goto	u1900
  3604  0DCF                     u1901:
  3605  0DCF  2DCC               	goto	l140
  3606  0DD0                     u1900:
  3607  0DD0                     l142:
  3608                           
  3609                           ;./sensor.h: 37:     TMR1ON = 1;
  3610  0DD0  1410               	bsf	16,0	;volatile
  3611  0DD1                     l143:	
  3612                           ;./sensor.h: 38:     while(RD4);
  3613                           
  3614  0DD1  1A08               	btfsc	8,4	;volatile
  3615  0DD2  2DD4               	goto	u1911
  3616  0DD3  2DD5               	goto	u1910
  3617  0DD4                     u1911:
  3618  0DD4  2DD1               	goto	l143
  3619  0DD5                     u1910:
  3620  0DD5                     l145:
  3621                           
  3622                           ;./sensor.h: 39:     TMR1ON = 0;
  3623  0DD5  1010               	bcf	16,0	;volatile
  3624  0DD6                     l2029:
  3625                           
  3626                           ;./sensor.h: 40:     distance2 = TMR1/58.8;
  3627  0DD6  3042               	movlw	66
  3628  0DD7  00A3               	movwf	___fldiv@a+3
  3629  0DD8  306B               	movlw	107
  3630  0DD9  00A2               	movwf	___fldiv@a+2
  3631  0DDA  3033               	movlw	51
  3632  0DDB  00A1               	movwf	___fldiv@a+1
  3633  0DDC  3033               	movlw	51
  3634  0DDD  00A0               	movwf	___fldiv@a
  3635  0DDE  080E               	movf	14,w	;volatile
  3636  0DDF  00F0               	movwf	___xxtofl@val
  3637  0DE0  080F               	movf	15,w	;volatile
  3638  0DE1  00F1               	movwf	___xxtofl@val+1
  3639  0DE2  01F2               	clrf	___xxtofl@val+2
  3640  0DE3  01F3               	clrf	___xxtofl@val+3
  3641  0DE4  3000               	movlw	0
  3642  0DE5  120A  118A  2206  120A  158A  	fcall	___xxtofl
  3643  0DEA  0873               	movf	?___xxtofl+3,w
  3644  0DEB  1283               	bcf	3,5	;RP0=0, select bank0
  3645  0DEC  1303               	bcf	3,6	;RP1=0, select bank0
  3646  0DED  00A7               	movwf	___fldiv@b+3
  3647  0DEE  0872               	movf	?___xxtofl+2,w
  3648  0DEF  00A6               	movwf	___fldiv@b+2
  3649  0DF0  0871               	movf	?___xxtofl+1,w
  3650  0DF1  00A5               	movwf	___fldiv@b+1
  3651  0DF2  0870               	movf	?___xxtofl,w
  3652  0DF3  00A4               	movwf	___fldiv@b
  3653  0DF4  120A  118A  25FE  120A  158A  	fcall	___fldiv
  3654  0DF9  1283               	bcf	3,5	;RP0=0, select bank0
  3655  0DFA  1303               	bcf	3,6	;RP1=0, select bank0
  3656  0DFB  0823               	movf	?___fldiv+3,w
  3657  0DFC  00C2               	movwf	dist2@distance2+3
  3658  0DFD  0822               	movf	?___fldiv+2,w
  3659  0DFE  00C1               	movwf	dist2@distance2+2
  3660  0DFF  0821               	movf	?___fldiv+1,w
  3661  0E00  00C0               	movwf	dist2@distance2+1
  3662  0E01  0820               	movf	?___fldiv,w
  3663  0E02  00BF               	movwf	dist2@distance2
  3664  0E03                     l2031:
  3665                           
  3666                           ;./sensor.h: 41:     T1CKPS0 = 0;
  3667  0E03  1210               	bcf	16,4	;volatile
  3668  0E04                     l2033:
  3669                           
  3670                           ;./sensor.h: 42:     T1CKPS1 = 0;
  3671  0E04  1290               	bcf	16,5	;volatile
  3672  0E05                     l2035:
  3673                           
  3674                           ;./sensor.h: 44:     return distance2;
  3675  0E05  0842               	movf	dist2@distance2+3,w
  3676  0E06  00BD               	movwf	?_dist2+3
  3677  0E07  0841               	movf	dist2@distance2+2,w
  3678  0E08  00BC               	movwf	?_dist2+2
  3679  0E09  0840               	movf	dist2@distance2+1,w
  3680  0E0A  00BB               	movwf	?_dist2+1
  3681  0E0B  083F               	movf	dist2@distance2,w
  3682  0E0C  00BA               	movwf	?_dist2
  3683  0E0D                     l146:
  3684  0E0D  0008               	return
  3685  0E0E                     __end_of_dist2:
  3686                           
  3687                           	psect	text15
  3688  0D6C                     __ptext15:	
  3689 ;; *************** function _dist1 *****************
  3690 ;; Defined at:
  3691 ;;		line 11 in file "./sensor.h"
  3692 ;; Parameters:    Size  Location     Type
  3693 ;;		None
  3694 ;; Auto vars:     Size  Location     Type
  3695 ;;  distance1       4   31[BANK0 ] float 
  3696 ;; Return value:  Size  Location     Type
  3697 ;;                  4   26[BANK0 ] float 
  3698 ;; Registers used:
  3699 ;;		wreg, status,2, status,0, btemp+1, pclath, cstack
  3700 ;; Tracked objects:
  3701 ;;		On entry : 0/0
  3702 ;;		On exit  : 0/0
  3703 ;;		Unchanged: 0/0
  3704 ;; Data sizes:     COMMON   BANK0   BANK1   BANK3   BANK2
  3705 ;;      Params:         0       4       0       0       0
  3706 ;;      Locals:         0       4       0       0       0
  3707 ;;      Temps:          0       1       0       0       0
  3708 ;;      Totals:         0       9       0       0       0
  3709 ;;Total ram usage:        9 bytes
  3710 ;; Hardware stack levels used: 1
  3711 ;; Hardware stack levels required when called: 1
  3712 ;; This function calls:
  3713 ;;		___fldiv
  3714 ;;		___xxtofl
  3715 ;; This function is called by:
  3716 ;;		_main
  3717 ;; This function uses a non-reentrant model
  3718 ;;
  3719                           
  3720  0D6C                     _dist1:	
  3721                           ;psect for function _dist1
  3722                           
  3723  0D6C                     l1999:	
  3724                           ;incstack = 0
  3725                           ; Regs used in _dist1: [wreg+status,2+status,0+btemp+1+pclath+cstack]
  3726                           
  3727  0D6C                     l2001:
  3728                           
  3729                           ;./sensor.h: 14:     TMR1 = 0;
  3730  0D6C  1283               	bcf	3,5	;RP0=0, select bank0
  3731  0D6D  1303               	bcf	3,6	;RP1=0, select bank0
  3732  0D6E  018E               	clrf	14	;volatile
  3733  0D6F  018F               	clrf	15	;volatile
  3734  0D70                     l2003:
  3735                           
  3736                           ;./sensor.h: 15:     RD7 = 1;
  3737  0D70  1788               	bsf	8,7	;volatile
  3738  0D71                     l2005:
  3739                           
  3740                           ;./sensor.h: 16:     _delay((unsigned long)((10)*(4000000/4000000.0)));
  3741  0D71  3002               	movlw	2
  3742  0D72  1283               	bcf	3,5	;RP0=0, select bank0
  3743  0D73  1303               	bcf	3,6	;RP1=0, select bank0
  3744  0D74  00BE               	movwf	??_dist1
  3745  0D75                     u2447:
  3746  0D75  0BBE               	decfsz	??_dist1,f
  3747  0D76  2D75               	goto	u2447
  3748  0D77  0000               	nop
  3749  0D78                     l2007:
  3750                           
  3751                           ;./sensor.h: 17:     RD7 = 0;
  3752  0D78  1283               	bcf	3,5	;RP0=0, select bank0
  3753  0D79  1303               	bcf	3,6	;RP1=0, select bank0
  3754  0D7A  1388               	bcf	8,7	;volatile
  3755  0D7B                     l131:	
  3756                           ;./sensor.h: 18:     while(!RD6);
  3757                           
  3758  0D7B  1F08               	btfss	8,6	;volatile
  3759  0D7C  2D7E               	goto	u1881
  3760  0D7D  2D7F               	goto	u1880
  3761  0D7E                     u1881:
  3762  0D7E  2D7B               	goto	l131
  3763  0D7F                     u1880:
  3764  0D7F                     l133:
  3765                           
  3766                           ;./sensor.h: 19:     TMR1ON = 1;
  3767  0D7F  1410               	bsf	16,0	;volatile
  3768  0D80                     l134:	
  3769                           ;./sensor.h: 20:     while(RD6);
  3770                           
  3771  0D80  1B08               	btfsc	8,6	;volatile
  3772  0D81  2D83               	goto	u1891
  3773  0D82  2D84               	goto	u1890
  3774  0D83                     u1891:
  3775  0D83  2D80               	goto	l134
  3776  0D84                     u1890:
  3777  0D84                     l136:
  3778                           
  3779                           ;./sensor.h: 21:     TMR1ON = 0;
  3780  0D84  1010               	bcf	16,0	;volatile
  3781  0D85                     l2009:
  3782                           
  3783                           ;./sensor.h: 22:     distance1 = TMR1/58.8;
  3784  0D85  3042               	movlw	66
  3785  0D86  00A3               	movwf	___fldiv@a+3
  3786  0D87  306B               	movlw	107
  3787  0D88  00A2               	movwf	___fldiv@a+2
  3788  0D89  3033               	movlw	51
  3789  0D8A  00A1               	movwf	___fldiv@a+1
  3790  0D8B  3033               	movlw	51
  3791  0D8C  00A0               	movwf	___fldiv@a
  3792  0D8D  080E               	movf	14,w	;volatile
  3793  0D8E  00F0               	movwf	___xxtofl@val
  3794  0D8F  080F               	movf	15,w	;volatile
  3795  0D90  00F1               	movwf	___xxtofl@val+1
  3796  0D91  01F2               	clrf	___xxtofl@val+2
  3797  0D92  01F3               	clrf	___xxtofl@val+3
  3798  0D93  3000               	movlw	0
  3799  0D94  120A  118A  2206  120A  158A  	fcall	___xxtofl
  3800  0D99  0873               	movf	?___xxtofl+3,w
  3801  0D9A  1283               	bcf	3,5	;RP0=0, select bank0
  3802  0D9B  1303               	bcf	3,6	;RP1=0, select bank0
  3803  0D9C  00A7               	movwf	___fldiv@b+3
  3804  0D9D  0872               	movf	?___xxtofl+2,w
  3805  0D9E  00A6               	movwf	___fldiv@b+2
  3806  0D9F  0871               	movf	?___xxtofl+1,w
  3807  0DA0  00A5               	movwf	___fldiv@b+1
  3808  0DA1  0870               	movf	?___xxtofl,w
  3809  0DA2  00A4               	movwf	___fldiv@b
  3810  0DA3  120A  118A  25FE  120A  158A  	fcall	___fldiv
  3811  0DA8  1283               	bcf	3,5	;RP0=0, select bank0
  3812  0DA9  1303               	bcf	3,6	;RP1=0, select bank0
  3813  0DAA  0823               	movf	?___fldiv+3,w
  3814  0DAB  00C2               	movwf	dist1@distance1+3
  3815  0DAC  0822               	movf	?___fldiv+2,w
  3816  0DAD  00C1               	movwf	dist1@distance1+2
  3817  0DAE  0821               	movf	?___fldiv+1,w
  3818  0DAF  00C0               	movwf	dist1@distance1+1
  3819  0DB0  0820               	movf	?___fldiv,w
  3820  0DB1  00BF               	movwf	dist1@distance1
  3821  0DB2                     l2011:
  3822                           
  3823                           ;./sensor.h: 23:     T1CKPS0 = 0;
  3824  0DB2  1210               	bcf	16,4	;volatile
  3825  0DB3                     l2013:
  3826                           
  3827                           ;./sensor.h: 24:     T1CKPS1 = 0;
  3828  0DB3  1290               	bcf	16,5	;volatile
  3829  0DB4                     l2015:
  3830                           
  3831                           ;./sensor.h: 26:     return distance1;
  3832  0DB4  0842               	movf	dist1@distance1+3,w
  3833  0DB5  00BD               	movwf	?_dist1+3
  3834  0DB6  0841               	movf	dist1@distance1+2,w
  3835  0DB7  00BC               	movwf	?_dist1+2
  3836  0DB8  0840               	movf	dist1@distance1+1,w
  3837  0DB9  00BB               	movwf	?_dist1+1
  3838  0DBA  083F               	movf	dist1@distance1,w
  3839  0DBB  00BA               	movwf	?_dist1
  3840  0DBC                     l137:
  3841  0DBC  0008               	return
  3842  0DBD                     __end_of_dist1:
  3843                           
  3844                           	psect	text16
  3845  0206                     __ptext16:	
  3846 ;; *************** function ___xxtofl *****************
  3847 ;; Defined at:
  3848 ;;		line 10 in file "C:\Program Files\Microchip\xc8\v2.36\pic\sources\c90\common\xxtofl.c"
  3849 ;; Parameters:    Size  Location     Type
  3850 ;;  sign            1    wreg     unsigned char 
  3851 ;;  val             4    0[COMMON] long 
  3852 ;; Auto vars:     Size  Location     Type
  3853 ;;  sign            1    8[COMMON] unsigned char 
  3854 ;;  arg             4   10[COMMON] unsigned long 
  3855 ;;  exp             1    9[COMMON] unsigned char 
  3856 ;; Return value:  Size  Location     Type
  3857 ;;                  4    0[COMMON] unsigned char 
  3858 ;; Registers used:
  3859 ;;		wreg, status,2, status,0
  3860 ;; Tracked objects:
  3861 ;;		On entry : 0/0
  3862 ;;		On exit  : 0/0
  3863 ;;		Unchanged: 0/0
  3864 ;; Data sizes:     COMMON   BANK0   BANK1   BANK3   BANK2
  3865 ;;      Params:         4       0       0       0       0
  3866 ;;      Locals:         6       0       0       0       0
  3867 ;;      Temps:          4       0       0       0       0
  3868 ;;      Totals:        14       0       0       0       0
  3869 ;;Total ram usage:       14 bytes
  3870 ;; Hardware stack levels used: 1
  3871 ;; This function calls:
  3872 ;;		Nothing
  3873 ;; This function is called by:
  3874 ;;		_dist1
  3875 ;;		_dist2
  3876 ;;		_dist3
  3877 ;;		_main
  3878 ;; This function uses a non-reentrant model
  3879 ;;
  3880                           
  3881  0206                     ___xxtofl:	
  3882                           ;psect for function ___xxtofl
  3883                           
  3884                           
  3885                           ;incstack = 0
  3886                           ; Regs used in ___xxtofl: [wreg+status,2+status,0]
  3887                           ;___xxtofl@sign stored from wreg
  3888  0206  00F8               	movwf	___xxtofl@sign
  3889  0207                     l1955:
  3890  0207  0878               	movf	___xxtofl@sign,w
  3891  0208  1903               	btfsc	3,2
  3892  0209  2A0B               	goto	u1741
  3893  020A  2A0C               	goto	u1740
  3894  020B                     u1741:
  3895  020B  2A20               	goto	l1961
  3896  020C                     u1740:
  3897  020C                     l1957:
  3898  020C  1FF3               	btfss	___xxtofl@val+3,7
  3899  020D  2A0F               	goto	u1751
  3900  020E  2A10               	goto	u1750
  3901  020F                     u1751:
  3902  020F  2A20               	goto	l1961
  3903  0210                     u1750:
  3904  0210                     l1959:
  3905  0210  0970               	comf	___xxtofl@val,w
  3906  0211  00FA               	movwf	___xxtofl@arg
  3907  0212  0971               	comf	___xxtofl@val+1,w
  3908  0213  00FB               	movwf	___xxtofl@arg+1
  3909  0214  0972               	comf	___xxtofl@val+2,w
  3910  0215  00FC               	movwf	___xxtofl@arg+2
  3911  0216  0973               	comf	___xxtofl@val+3,w
  3912  0217  00FD               	movwf	___xxtofl@arg+3
  3913  0218  0AFA               	incf	___xxtofl@arg,f
  3914  0219  1903               	skipnz
  3915  021A  0AFB               	incf	___xxtofl@arg+1,f
  3916  021B  1903               	skipnz
  3917  021C  0AFC               	incf	___xxtofl@arg+2,f
  3918  021D  1903               	skipnz
  3919  021E  0AFD               	incf	___xxtofl@arg+3,f
  3920  021F  2A28               	goto	l800
  3921  0220                     l1961:
  3922  0220  0873               	movf	___xxtofl@val+3,w
  3923  0221  00FD               	movwf	___xxtofl@arg+3
  3924  0222  0872               	movf	___xxtofl@val+2,w
  3925  0223  00FC               	movwf	___xxtofl@arg+2
  3926  0224  0871               	movf	___xxtofl@val+1,w
  3927  0225  00FB               	movwf	___xxtofl@arg+1
  3928  0226  0870               	movf	___xxtofl@val,w
  3929  0227  00FA               	movwf	___xxtofl@arg
  3930  0228                     l800:
  3931  0228  0873               	movf	___xxtofl@val+3,w
  3932  0229  0472               	iorwf	___xxtofl@val+2,w
  3933  022A  0471               	iorwf	___xxtofl@val+1,w
  3934  022B  0470               	iorwf	___xxtofl@val,w
  3935  022C  1D03               	skipz
  3936  022D  2A2F               	goto	u1761
  3937  022E  2A30               	goto	u1760
  3938  022F                     u1761:
  3939  022F  2A39               	goto	l1967
  3940  0230                     u1760:
  3941  0230                     l1963:
  3942  0230  3000               	movlw	0
  3943  0231  00F3               	movwf	?___xxtofl+3
  3944  0232  3000               	movlw	0
  3945  0233  00F2               	movwf	?___xxtofl+2
  3946  0234  3000               	movlw	0
  3947  0235  00F1               	movwf	?___xxtofl+1
  3948  0236  3000               	movlw	0
  3949  0237  00F0               	movwf	?___xxtofl
  3950  0238  2ABF               	goto	l802
  3951  0239                     l1967:
  3952  0239  3096               	movlw	150
  3953  023A  00F4               	movwf	??___xxtofl
  3954  023B  0874               	movf	??___xxtofl,w
  3955  023C  00F9               	movwf	___xxtofl@exp
  3956  023D  2A4B               	goto	l1971
  3957  023E                     l1969:
  3958  023E  3001               	movlw	1
  3959  023F  00F4               	movwf	??___xxtofl
  3960  0240  0874               	movf	??___xxtofl,w
  3961  0241  07F9               	addwf	___xxtofl@exp,f
  3962  0242  3001               	movlw	1
  3963  0243                     u1775:
  3964  0243  1003               	clrc
  3965  0244  0CFD               	rrf	___xxtofl@arg+3,f
  3966  0245  0CFC               	rrf	___xxtofl@arg+2,f
  3967  0246  0CFB               	rrf	___xxtofl@arg+1,f
  3968  0247  0CFA               	rrf	___xxtofl@arg,f
  3969  0248  3EFF               	addlw	-1
  3970  0249  1D03               	skipz
  3971  024A  2A43               	goto	u1775
  3972  024B                     l1971:
  3973  024B  30FE               	movlw	254
  3974  024C  057D               	andwf	___xxtofl@arg+3,w
  3975  024D  1D03               	btfss	3,2
  3976  024E  2A50               	goto	u1781
  3977  024F  2A51               	goto	u1780
  3978  0250                     u1781:
  3979  0250  2A3E               	goto	l1969
  3980  0251                     u1780:
  3981  0251  2A6D               	goto	l806
  3982  0252                     l1973:
  3983  0252  3001               	movlw	1
  3984  0253  00F4               	movwf	??___xxtofl
  3985  0254  0874               	movf	??___xxtofl,w
  3986  0255  07F9               	addwf	___xxtofl@exp,f
  3987  0256                     l1975:
  3988  0256  3001               	movlw	1
  3989  0257  07FA               	addwf	___xxtofl@arg,f
  3990  0258  3000               	movlw	0
  3991  0259  1803               	skipnc
  3992  025A  3001               	movlw	1
  3993  025B  07FB               	addwf	___xxtofl@arg+1,f
  3994  025C  3000               	movlw	0
  3995  025D  1803               	skipnc
  3996  025E  3001               	movlw	1
  3997  025F  07FC               	addwf	___xxtofl@arg+2,f
  3998  0260  3000               	movlw	0
  3999  0261  1803               	skipnc
  4000  0262  3001               	movlw	1
  4001  0263  07FD               	addwf	___xxtofl@arg+3,f
  4002  0264                     l1977:
  4003  0264  3001               	movlw	1
  4004  0265                     u1795:
  4005  0265  1003               	clrc
  4006  0266  0CFD               	rrf	___xxtofl@arg+3,f
  4007  0267  0CFC               	rrf	___xxtofl@arg+2,f
  4008  0268  0CFB               	rrf	___xxtofl@arg+1,f
  4009  0269  0CFA               	rrf	___xxtofl@arg,f
  4010  026A  3EFF               	addlw	-1
  4011  026B  1D03               	skipz
  4012  026C  2A65               	goto	u1795
  4013  026D                     l806:
  4014  026D  30FF               	movlw	255
  4015  026E  057D               	andwf	___xxtofl@arg+3,w
  4016  026F  1D03               	btfss	3,2
  4017  0270  2A72               	goto	u1801
  4018  0271  2A73               	goto	u1800
  4019  0272                     u1801:
  4020  0272  2A52               	goto	l1973
  4021  0273                     u1800:
  4022  0273  2A7F               	goto	l1981
  4023  0274                     l1979:
  4024  0274  3001               	movlw	1
  4025  0275  02F9               	subwf	___xxtofl@exp,f
  4026  0276  3001               	movlw	1
  4027  0277  00F4               	movwf	??___xxtofl
  4028  0278                     u1815:
  4029  0278  1003               	clrc
  4030  0279  0DFA               	rlf	___xxtofl@arg,f
  4031  027A  0DFB               	rlf	___xxtofl@arg+1,f
  4032  027B  0DFC               	rlf	___xxtofl@arg+2,f
  4033  027C  0DFD               	rlf	___xxtofl@arg+3,f
  4034  027D  0BF4               	decfsz	??___xxtofl,f
  4035  027E  2A78               	goto	u1815
  4036  027F                     l1981:
  4037  027F  1BFC               	btfsc	___xxtofl@arg+2,7
  4038  0280  2A82               	goto	u1821
  4039  0281  2A83               	goto	u1820
  4040  0282                     u1821:
  4041  0282  2A89               	goto	l813
  4042  0283                     u1820:
  4043  0283                     l1983:
  4044  0283  3002               	movlw	2
  4045  0284  0279               	subwf	___xxtofl@exp,w
  4046  0285  1803               	skipnc
  4047  0286  2A88               	goto	u1831
  4048  0287  2A89               	goto	u1830
  4049  0288                     u1831:
  4050  0288  2A74               	goto	l1979
  4051  0289                     u1830:
  4052  0289                     l813:
  4053  0289  1879               	btfsc	___xxtofl@exp,0
  4054  028A  2A8C               	goto	u1841
  4055  028B  2A8D               	goto	u1840
  4056  028C                     u1841:
  4057  028C  2A95               	goto	l814
  4058  028D                     u1840:
  4059  028D                     l1985:
  4060  028D  30FF               	movlw	255
  4061  028E  05FA               	andwf	___xxtofl@arg,f
  4062  028F  30FF               	movlw	255
  4063  0290  05FB               	andwf	___xxtofl@arg+1,f
  4064  0291  307F               	movlw	127
  4065  0292  05FC               	andwf	___xxtofl@arg+2,f
  4066  0293  30FF               	movlw	255
  4067  0294  05FD               	andwf	___xxtofl@arg+3,f
  4068  0295                     l814:
  4069  0295  1003               	clrc
  4070  0296  0CF9               	rrf	___xxtofl@exp,f
  4071  0297                     l1987:
  4072  0297  0879               	movf	___xxtofl@exp,w
  4073  0298  00F4               	movwf	??___xxtofl
  4074  0299  01F5               	clrf	??___xxtofl+1
  4075  029A  01F6               	clrf	??___xxtofl+2
  4076  029B  01F7               	clrf	??___xxtofl+3
  4077  029C  3018               	movlw	24
  4078  029D                     u1855:
  4079  029D  1003               	clrc
  4080  029E  0DF4               	rlf	??___xxtofl,f
  4081  029F  0DF5               	rlf	??___xxtofl+1,f
  4082  02A0  0DF6               	rlf	??___xxtofl+2,f
  4083  02A1  0DF7               	rlf	??___xxtofl+3,f
  4084  02A2                     u1850:
  4085  02A2  3EFF               	addlw	-1
  4086  02A3  1D03               	skipz
  4087  02A4  2A9D               	goto	u1855
  4088  02A5  0874               	movf	??___xxtofl,w
  4089  02A6  04FA               	iorwf	___xxtofl@arg,f
  4090  02A7  0875               	movf	??___xxtofl+1,w
  4091  02A8  04FB               	iorwf	___xxtofl@arg+1,f
  4092  02A9  0876               	movf	??___xxtofl+2,w
  4093  02AA  04FC               	iorwf	___xxtofl@arg+2,f
  4094  02AB  0877               	movf	??___xxtofl+3,w
  4095  02AC  04FD               	iorwf	___xxtofl@arg+3,f
  4096  02AD                     l1989:
  4097  02AD  0878               	movf	___xxtofl@sign,w
  4098  02AE  1903               	btfsc	3,2
  4099  02AF  2AB1               	goto	u1861
  4100  02B0  2AB2               	goto	u1860
  4101  02B1                     u1861:
  4102  02B1  2AB7               	goto	l1995
  4103  02B2                     u1860:
  4104  02B2                     l1991:
  4105  02B2  1FF3               	btfss	___xxtofl@val+3,7
  4106  02B3  2AB5               	goto	u1871
  4107  02B4  2AB6               	goto	u1870
  4108  02B5                     u1871:
  4109  02B5  2AB7               	goto	l1995
  4110  02B6                     u1870:
  4111  02B6                     l1993:
  4112  02B6  17FD               	bsf	___xxtofl@arg+3,7
  4113  02B7                     l1995:
  4114  02B7  087D               	movf	___xxtofl@arg+3,w
  4115  02B8  00F3               	movwf	?___xxtofl+3
  4116  02B9  087C               	movf	___xxtofl@arg+2,w
  4117  02BA  00F2               	movwf	?___xxtofl+2
  4118  02BB  087B               	movf	___xxtofl@arg+1,w
  4119  02BC  00F1               	movwf	?___xxtofl+1
  4120  02BD  087A               	movf	___xxtofl@arg,w
  4121  02BE  00F0               	movwf	?___xxtofl
  4122  02BF                     l802:
  4123  02BF  0008               	return
  4124  02C0                     __end_of___xxtofl:
  4125                           
  4126                           	psect	text17
  4127  05FE                     __ptext17:	
  4128 ;; *************** function ___fldiv *****************
  4129 ;; Defined at:
  4130 ;;		line 8 in file "C:\Program Files\Microchip\xc8\v2.36\pic\sources\c90\common\sprcdiv.c"
  4131 ;; Parameters:    Size  Location     Type
  4132 ;;  a               4    0[BANK0 ] unsigned char 
  4133 ;;  b               4    4[BANK0 ] unsigned char 
  4134 ;; Auto vars:     Size  Location     Type
  4135 ;;  grs             4   20[BANK0 ] unsigned long 
  4136 ;;  rem             4   13[BANK0 ] unsigned long 
  4137 ;;  new_exp         2   18[BANK0 ] int 
  4138 ;;  aexp            1   25[BANK0 ] unsigned char 
  4139 ;;  bexp            1   24[BANK0 ] unsigned char 
  4140 ;;  sign            1   17[BANK0 ] unsigned char 
  4141 ;; Return value:  Size  Location     Type
  4142 ;;                  4    0[BANK0 ] unsigned char 
  4143 ;; Registers used:
  4144 ;;		wreg, status,2, status,0, btemp+1
  4145 ;; Tracked objects:
  4146 ;;		On entry : 0/0
  4147 ;;		On exit  : 0/0
  4148 ;;		Unchanged: 0/0
  4149 ;; Data sizes:     COMMON   BANK0   BANK1   BANK3   BANK2
  4150 ;;      Params:         0       8       0       0       0
  4151 ;;      Locals:         0      13       0       0       0
  4152 ;;      Temps:          0       5       0       0       0
  4153 ;;      Totals:         0      26       0       0       0
  4154 ;;Total ram usage:       26 bytes
  4155 ;; Hardware stack levels used: 1
  4156 ;; This function calls:
  4157 ;;		Nothing
  4158 ;; This function is called by:
  4159 ;;		_dist1
  4160 ;;		_dist2
  4161 ;;		_dist3
  4162 ;; This function uses a non-reentrant model
  4163 ;;
  4164                           
  4165  05FE                     ___fldiv:	
  4166                           ;psect for function ___fldiv
  4167                           
  4168  05FE                     l1813:	
  4169                           ;incstack = 0
  4170                           ; Regs used in ___fldiv: [wreg+status,2+status,0+btemp+1]
  4171                           
  4172  05FE  1283               	bcf	3,5	;RP0=0, select bank0
  4173  05FF  1303               	bcf	3,6	;RP1=0, select bank0
  4174  0600  0827               	movf	___fldiv@b+3,w
  4175  0601  3980               	andlw	128
  4176  0602  00A8               	movwf	??___fldiv
  4177  0603  0828               	movf	??___fldiv,w
  4178  0604  00B1               	movwf	___fldiv@sign
  4179  0605                     l1815:
  4180  0605  0827               	movf	___fldiv@b+3,w
  4181  0606  00A8               	movwf	??___fldiv
  4182  0607  0728               	addwf	??___fldiv,w
  4183  0608  00A9               	movwf	??___fldiv+1
  4184  0609  0829               	movf	??___fldiv+1,w
  4185  060A  00B8               	movwf	___fldiv@bexp
  4186  060B                     l1817:
  4187  060B  1FA6               	btfss	___fldiv@b+2,7
  4188  060C  2E0E               	goto	u1451
  4189  060D  2E0F               	goto	u1450
  4190  060E                     u1451:
  4191  060E  2E10               	goto	l1821
  4192  060F                     u1450:
  4193  060F                     l1819:
  4194  060F  1438               	bsf	___fldiv@bexp,0
  4195  0610                     l1821:
  4196  0610  0838               	movf	___fldiv@bexp,w
  4197  0611  1903               	btfsc	3,2
  4198  0612  2E14               	goto	u1461
  4199  0613  2E15               	goto	u1460
  4200  0614                     u1461:
  4201  0614  2E25               	goto	l1831
  4202  0615                     u1460:
  4203  0615                     l1823:
  4204  0615  0A38               	incf	___fldiv@bexp,w
  4205  0616  1D03               	btfss	3,2
  4206  0617  2E19               	goto	u1471
  4207  0618  2E1A               	goto	u1470
  4208  0619                     u1471:
  4209  0619  2E22               	goto	l1827
  4210  061A                     u1470:
  4211  061A                     l1825:
  4212  061A  3000               	movlw	0
  4213  061B  00A7               	movwf	___fldiv@b+3
  4214  061C  3000               	movlw	0
  4215  061D  00A6               	movwf	___fldiv@b+2
  4216  061E  3000               	movlw	0
  4217  061F  00A5               	movwf	___fldiv@b+1
  4218  0620  3000               	movlw	0
  4219  0621  00A4               	movwf	___fldiv@b
  4220  0622                     l1827:
  4221  0622  17A6               	bsf	___fldiv@b+2,7
  4222  0623                     l1829:
  4223  0623  01A7               	clrf	___fldiv@b+3
  4224  0624  2E2D               	goto	l1833
  4225  0625                     l1831:
  4226  0625  3000               	movlw	0
  4227  0626  00A7               	movwf	___fldiv@b+3
  4228  0627  3000               	movlw	0
  4229  0628  00A6               	movwf	___fldiv@b+2
  4230  0629  3000               	movlw	0
  4231  062A  00A5               	movwf	___fldiv@b+1
  4232  062B  3000               	movlw	0
  4233  062C  00A4               	movwf	___fldiv@b
  4234  062D                     l1833:
  4235  062D  0823               	movf	___fldiv@a+3,w
  4236  062E  3980               	andlw	128
  4237  062F  00A8               	movwf	??___fldiv
  4238  0630  0828               	movf	??___fldiv,w
  4239  0631  06B1               	xorwf	___fldiv@sign,f
  4240  0632                     l1835:
  4241  0632  0823               	movf	___fldiv@a+3,w
  4242  0633  00A8               	movwf	??___fldiv
  4243  0634  0728               	addwf	??___fldiv,w
  4244  0635  00A9               	movwf	??___fldiv+1
  4245  0636  0829               	movf	??___fldiv+1,w
  4246  0637  00B9               	movwf	___fldiv@aexp
  4247  0638                     l1837:
  4248  0638  1FA2               	btfss	___fldiv@a+2,7
  4249  0639  2E3B               	goto	u1481
  4250  063A  2E3C               	goto	u1480
  4251  063B                     u1481:
  4252  063B  2E3D               	goto	l1841
  4253  063C                     u1480:
  4254  063C                     l1839:
  4255  063C  1439               	bsf	___fldiv@aexp,0
  4256  063D                     l1841:
  4257  063D  0839               	movf	___fldiv@aexp,w
  4258  063E  1903               	btfsc	3,2
  4259  063F  2E41               	goto	u1491
  4260  0640  2E42               	goto	u1490
  4261  0641                     u1491:
  4262  0641  2E52               	goto	l1851
  4263  0642                     u1490:
  4264  0642                     l1843:
  4265  0642  0A39               	incf	___fldiv@aexp,w
  4266  0643  1D03               	btfss	3,2
  4267  0644  2E46               	goto	u1501
  4268  0645  2E47               	goto	u1500
  4269  0646                     u1501:
  4270  0646  2E4F               	goto	l1847
  4271  0647                     u1500:
  4272  0647                     l1845:
  4273  0647  3000               	movlw	0
  4274  0648  00A3               	movwf	___fldiv@a+3
  4275  0649  3000               	movlw	0
  4276  064A  00A2               	movwf	___fldiv@a+2
  4277  064B  3000               	movlw	0
  4278  064C  00A1               	movwf	___fldiv@a+1
  4279  064D  3000               	movlw	0
  4280  064E  00A0               	movwf	___fldiv@a
  4281  064F                     l1847:
  4282  064F  17A2               	bsf	___fldiv@a+2,7
  4283  0650                     l1849:
  4284  0650  01A3               	clrf	___fldiv@a+3
  4285  0651  2E5A               	goto	l716
  4286  0652                     l1851:
  4287  0652  3000               	movlw	0
  4288  0653  00A3               	movwf	___fldiv@a+3
  4289  0654  3000               	movlw	0
  4290  0655  00A2               	movwf	___fldiv@a+2
  4291  0656  3000               	movlw	0
  4292  0657  00A1               	movwf	___fldiv@a+1
  4293  0658  3000               	movlw	0
  4294  0659  00A0               	movwf	___fldiv@a
  4295  065A                     l716:
  4296  065A  0823               	movf	___fldiv@a+3,w
  4297  065B  0422               	iorwf	___fldiv@a+2,w
  4298  065C  0421               	iorwf	___fldiv@a+1,w
  4299  065D  0420               	iorwf	___fldiv@a,w
  4300  065E  1D03               	skipz
  4301  065F  2E61               	goto	u1511
  4302  0660  2E62               	goto	u1510
  4303  0661                     u1511:
  4304  0661  2E7B               	goto	l1861
  4305  0662                     u1510:
  4306  0662                     l1853:
  4307  0662  3000               	movlw	0
  4308  0663  00A7               	movwf	___fldiv@b+3
  4309  0664  3000               	movlw	0
  4310  0665  00A6               	movwf	___fldiv@b+2
  4311  0666  3000               	movlw	0
  4312  0667  00A5               	movwf	___fldiv@b+1
  4313  0668  3000               	movlw	0
  4314  0669  00A4               	movwf	___fldiv@b
  4315  066A  3080               	movlw	128
  4316  066B  04A6               	iorwf	___fldiv@b+2,f
  4317  066C  307F               	movlw	127
  4318  066D  04A7               	iorwf	___fldiv@b+3,f
  4319  066E                     l1855:
  4320  066E  0831               	movf	___fldiv@sign,w
  4321  066F  00A8               	movwf	??___fldiv
  4322  0670  0828               	movf	??___fldiv,w
  4323  0671  04A7               	iorwf	___fldiv@b+3,f
  4324  0672                     l1857:
  4325  0672  0827               	movf	___fldiv@b+3,w
  4326  0673  00A3               	movwf	?___fldiv+3
  4327  0674  0826               	movf	___fldiv@b+2,w
  4328  0675  00A2               	movwf	?___fldiv+2
  4329  0676  0825               	movf	___fldiv@b+1,w
  4330  0677  00A1               	movwf	?___fldiv+1
  4331  0678  0824               	movf	___fldiv@b,w
  4332  0679  00A0               	movwf	?___fldiv
  4333  067A  2FDA               	goto	l718
  4334  067B                     l1861:
  4335  067B  0838               	movf	___fldiv@bexp,w
  4336  067C  1D03               	btfss	3,2
  4337  067D  2E7F               	goto	u1521
  4338  067E  2E80               	goto	u1520
  4339  067F                     u1521:
  4340  067F  2E89               	goto	l1867
  4341  0680                     u1520:
  4342  0680                     l1863:
  4343  0680  3000               	movlw	0
  4344  0681  00A3               	movwf	?___fldiv+3
  4345  0682  3000               	movlw	0
  4346  0683  00A2               	movwf	?___fldiv+2
  4347  0684  3000               	movlw	0
  4348  0685  00A1               	movwf	?___fldiv+1
  4349  0686  3000               	movlw	0
  4350  0687  00A0               	movwf	?___fldiv
  4351  0688  2FDA               	goto	l718
  4352  0689                     l1867:
  4353  0689  0838               	movf	___fldiv@bexp,w
  4354  068A  00A8               	movwf	??___fldiv
  4355  068B  01A9               	clrf	??___fldiv+1
  4356  068C  0829               	movf	??___fldiv+1,w
  4357  068D  00AB               	movwf	??___fldiv+3
  4358  068E  0839               	movf	___fldiv@aexp,w
  4359  068F  0228               	subwf	??___fldiv,w
  4360  0690  00AA               	movwf	??___fldiv+2
  4361  0691  1C03               	skipc
  4362  0692  03AB               	decf	??___fldiv+3,f
  4363  0693  082A               	movf	??___fldiv+2,w
  4364  0694  3E7F               	addlw	127
  4365  0695  00B2               	movwf	___fldiv@new_exp
  4366  0696  082B               	movf	??___fldiv+3,w
  4367  0697  1803               	skipnc
  4368  0698  3E01               	addlw	1
  4369  0699  3E00               	addlw	0
  4370  069A  00B3               	movwf	___fldiv@new_exp+1
  4371  069B                     l1869:
  4372  069B  0827               	movf	___fldiv@b+3,w
  4373  069C  00B0               	movwf	___fldiv@rem+3
  4374  069D  0826               	movf	___fldiv@b+2,w
  4375  069E  00AF               	movwf	___fldiv@rem+2
  4376  069F  0825               	movf	___fldiv@b+1,w
  4377  06A0  00AE               	movwf	___fldiv@rem+1
  4378  06A1  0824               	movf	___fldiv@b,w
  4379  06A2  00AD               	movwf	___fldiv@rem
  4380  06A3                     l1871:
  4381  06A3  3000               	movlw	0
  4382  06A4  00A7               	movwf	___fldiv@b+3
  4383  06A5  3000               	movlw	0
  4384  06A6  00A6               	movwf	___fldiv@b+2
  4385  06A7  3000               	movlw	0
  4386  06A8  00A5               	movwf	___fldiv@b+1
  4387  06A9  3000               	movlw	0
  4388  06AA  00A4               	movwf	___fldiv@b
  4389  06AB                     l1873:
  4390  06AB  3000               	movlw	0
  4391  06AC  00B7               	movwf	___fldiv@grs+3
  4392  06AD  3000               	movlw	0
  4393  06AE  00B6               	movwf	___fldiv@grs+2
  4394  06AF  3000               	movlw	0
  4395  06B0  00B5               	movwf	___fldiv@grs+1
  4396  06B1  3000               	movlw	0
  4397  06B2  00B4               	movwf	___fldiv@grs
  4398  06B3                     l1875:
  4399  06B3  01B9               	clrf	___fldiv@aexp
  4400  06B4  2EFF               	goto	l1895
  4401  06B5                     l1877:
  4402  06B5  0839               	movf	___fldiv@aexp,w
  4403  06B6  1903               	btfsc	3,2
  4404  06B7  2EB9               	goto	u1531
  4405  06B8  2EBA               	goto	u1530
  4406  06B9                     u1531:
  4407  06B9  2EDA               	goto	l1887
  4408  06BA                     u1530:
  4409  06BA                     l1879:
  4410  06BA  3001               	movlw	1
  4411  06BB  00A8               	movwf	??___fldiv
  4412  06BC                     u1545:
  4413  06BC  1003               	clrc
  4414  06BD  0DAD               	rlf	___fldiv@rem,f
  4415  06BE  0DAE               	rlf	___fldiv@rem+1,f
  4416  06BF  0DAF               	rlf	___fldiv@rem+2,f
  4417  06C0  0DB0               	rlf	___fldiv@rem+3,f
  4418  06C1  0BA8               	decfsz	??___fldiv,f
  4419  06C2  2EBC               	goto	u1545
  4420  06C3  3001               	movlw	1
  4421  06C4  00A8               	movwf	??___fldiv
  4422  06C5                     u1555:
  4423  06C5  1003               	clrc
  4424  06C6  0DA4               	rlf	___fldiv@b,f
  4425  06C7  0DA5               	rlf	___fldiv@b+1,f
  4426  06C8  0DA6               	rlf	___fldiv@b+2,f
  4427  06C9  0DA7               	rlf	___fldiv@b+3,f
  4428  06CA  0BA8               	decfsz	??___fldiv,f
  4429  06CB  2EC5               	goto	u1555
  4430  06CC                     l1881:
  4431  06CC  1FB7               	btfss	___fldiv@grs+3,7
  4432  06CD  2ECF               	goto	u1561
  4433  06CE  2ED0               	goto	u1560
  4434  06CF                     u1561:
  4435  06CF  2ED1               	goto	l1885
  4436  06D0                     u1560:
  4437  06D0                     l1883:
  4438  06D0  1424               	bsf	___fldiv@b,0
  4439  06D1                     l1885:
  4440  06D1  3001               	movlw	1
  4441  06D2  00A8               	movwf	??___fldiv
  4442  06D3                     u1575:
  4443  06D3  1003               	clrc
  4444  06D4  0DB4               	rlf	___fldiv@grs,f
  4445  06D5  0DB5               	rlf	___fldiv@grs+1,f
  4446  06D6  0DB6               	rlf	___fldiv@grs+2,f
  4447  06D7  0DB7               	rlf	___fldiv@grs+3,f
  4448  06D8  0BA8               	decfsz	??___fldiv,f
  4449  06D9  2ED3               	goto	u1575
  4450  06DA                     l1887:
  4451  06DA  0823               	movf	___fldiv@a+3,w
  4452  06DB  0230               	subwf	___fldiv@rem+3,w
  4453  06DC  1D03               	skipz
  4454  06DD  2EE8               	goto	u1585
  4455  06DE  0822               	movf	___fldiv@a+2,w
  4456  06DF  022F               	subwf	___fldiv@rem+2,w
  4457  06E0  1D03               	skipz
  4458  06E1  2EE8               	goto	u1585
  4459  06E2  0821               	movf	___fldiv@a+1,w
  4460  06E3  022E               	subwf	___fldiv@rem+1,w
  4461  06E4  1D03               	skipz
  4462  06E5  2EE8               	goto	u1585
  4463  06E6  0820               	movf	___fldiv@a,w
  4464  06E7  022D               	subwf	___fldiv@rem,w
  4465  06E8                     u1585:
  4466  06E8  1C03               	skipc
  4467  06E9  2EEB               	goto	u1581
  4468  06EA  2EEC               	goto	u1580
  4469  06EB                     u1581:
  4470  06EB  2EFB               	goto	l1893
  4471  06EC                     u1580:
  4472  06EC                     l1889:
  4473  06EC  1737               	bsf	___fldiv@grs+3,6
  4474  06ED                     l1891:
  4475  06ED  0820               	movf	___fldiv@a,w
  4476  06EE  02AD               	subwf	___fldiv@rem,f
  4477  06EF  0821               	movf	___fldiv@a+1,w
  4478  06F0  1C03               	skipc
  4479  06F1  0F21               	incfsz	___fldiv@a+1,w
  4480  06F2  02AE               	subwf	___fldiv@rem+1,f
  4481  06F3  0822               	movf	___fldiv@a+2,w
  4482  06F4  1C03               	skipc
  4483  06F5  0F22               	incfsz	___fldiv@a+2,w
  4484  06F6  02AF               	subwf	___fldiv@rem+2,f
  4485  06F7  0823               	movf	___fldiv@a+3,w
  4486  06F8  1C03               	skipc
  4487  06F9  0F23               	incfsz	___fldiv@a+3,w
  4488  06FA  02B0               	subwf	___fldiv@rem+3,f
  4489  06FB                     l1893:
  4490  06FB  3001               	movlw	1
  4491  06FC  00A8               	movwf	??___fldiv
  4492  06FD  0828               	movf	??___fldiv,w
  4493  06FE  07B9               	addwf	___fldiv@aexp,f
  4494  06FF                     l1895:
  4495  06FF  301A               	movlw	26
  4496  0700  0239               	subwf	___fldiv@aexp,w
  4497  0701  1C03               	skipc
  4498  0702  2F04               	goto	u1591
  4499  0703  2F05               	goto	u1590
  4500  0704                     u1591:
  4501  0704  2EB5               	goto	l1877
  4502  0705                     u1590:
  4503  0705                     l1897:
  4504  0705  0830               	movf	___fldiv@rem+3,w
  4505  0706  042F               	iorwf	___fldiv@rem+2,w
  4506  0707  042E               	iorwf	___fldiv@rem+1,w
  4507  0708  042D               	iorwf	___fldiv@rem,w
  4508  0709  1903               	skipnz
  4509  070A  2F0C               	goto	u1601
  4510  070B  2F0D               	goto	u1600
  4511  070C                     u1601:
  4512  070C  2F2C               	goto	l1911
  4513  070D                     u1600:
  4514  070D                     l1899:
  4515  070D  1434               	bsf	___fldiv@grs,0
  4516  070E  2F2C               	goto	l1911
  4517  070F                     l1901:
  4518  070F  3001               	movlw	1
  4519  0710  00A8               	movwf	??___fldiv
  4520  0711                     u1615:
  4521  0711  1003               	clrc
  4522  0712  0DA4               	rlf	___fldiv@b,f
  4523  0713  0DA5               	rlf	___fldiv@b+1,f
  4524  0714  0DA6               	rlf	___fldiv@b+2,f
  4525  0715  0DA7               	rlf	___fldiv@b+3,f
  4526  0716  0BA8               	decfsz	??___fldiv,f
  4527  0717  2F11               	goto	u1615
  4528  0718                     l1903:
  4529  0718  1FB7               	btfss	___fldiv@grs+3,7
  4530  0719  2F1B               	goto	u1621
  4531  071A  2F1C               	goto	u1620
  4532  071B                     u1621:
  4533  071B  2F1D               	goto	l1907
  4534  071C                     u1620:
  4535  071C                     l1905:
  4536  071C  1424               	bsf	___fldiv@b,0
  4537  071D                     l1907:
  4538  071D  3001               	movlw	1
  4539  071E  00A8               	movwf	??___fldiv
  4540  071F                     u1635:
  4541  071F  1003               	clrc
  4542  0720  0DB4               	rlf	___fldiv@grs,f
  4543  0721  0DB5               	rlf	___fldiv@grs+1,f
  4544  0722  0DB6               	rlf	___fldiv@grs+2,f
  4545  0723  0DB7               	rlf	___fldiv@grs+3,f
  4546  0724  0BA8               	decfsz	??___fldiv,f
  4547  0725  2F1F               	goto	u1635
  4548  0726                     l1909:
  4549  0726  30FF               	movlw	255
  4550  0727  07B2               	addwf	___fldiv@new_exp,f
  4551  0728  1803               	skipnc
  4552  0729  0AB3               	incf	___fldiv@new_exp+1,f
  4553  072A  30FF               	movlw	255
  4554  072B  07B3               	addwf	___fldiv@new_exp+1,f
  4555  072C                     l1911:
  4556  072C  1FA6               	btfss	___fldiv@b+2,7
  4557  072D  2F2F               	goto	u1641
  4558  072E  2F30               	goto	u1640
  4559  072F                     u1641:
  4560  072F  2F0F               	goto	l1901
  4561  0730                     u1640:
  4562  0730                     l1913:
  4563  0730  01B9               	clrf	___fldiv@aexp
  4564  0731                     l1915:
  4565  0731  1FB7               	btfss	___fldiv@grs+3,7
  4566  0732  2F34               	goto	u1651
  4567  0733  2F35               	goto	u1650
  4568  0734                     u1651:
  4569  0734  2F51               	goto	l1923
  4570  0735                     u1650:
  4571  0735                     l1917:
  4572  0735  30FF               	movlw	255
  4573  0736  0534               	andwf	___fldiv@grs,w
  4574  0737  00A8               	movwf	??___fldiv
  4575  0738  30FF               	movlw	255
  4576  0739  0535               	andwf	___fldiv@grs+1,w
  4577  073A  00A9               	movwf	??___fldiv+1
  4578  073B  30FF               	movlw	255
  4579  073C  0536               	andwf	___fldiv@grs+2,w
  4580  073D  00AA               	movwf	??___fldiv+2
  4581  073E  307F               	movlw	127
  4582  073F  0537               	andwf	___fldiv@grs+3,w
  4583  0740  00AB               	movwf	??___fldiv+3
  4584  0741  082B               	movf	??___fldiv+3,w
  4585  0742  042A               	iorwf	??___fldiv+2,w
  4586  0743  0429               	iorwf	??___fldiv+1,w
  4587  0744  0428               	iorwf	??___fldiv,w
  4588  0745  1903               	skipnz
  4589  0746  2F48               	goto	u1661
  4590  0747  2F49               	goto	u1660
  4591  0748                     u1661:
  4592  0748  2F4C               	goto	l732
  4593  0749                     u1660:
  4594  0749                     l1919:
  4595  0749  01B9               	clrf	___fldiv@aexp
  4596  074A  0AB9               	incf	___fldiv@aexp,f
  4597  074B  2F51               	goto	l1923
  4598  074C                     l732:
  4599  074C  1C24               	btfss	___fldiv@b,0
  4600  074D  2F4F               	goto	u1671
  4601  074E  2F50               	goto	u1670
  4602  074F                     u1671:
  4603  074F  2F51               	goto	l1923
  4604  0750                     u1670:
  4605  0750  2F49               	goto	l1919
  4606  0751                     l1923:
  4607  0751  0839               	movf	___fldiv@aexp,w
  4608  0752  1903               	btfsc	3,2
  4609  0753  2F55               	goto	u1681
  4610  0754  2F56               	goto	u1680
  4611  0755                     u1681:
  4612  0755  2F87               	goto	l1933
  4613  0756                     u1680:
  4614  0756                     l1925:
  4615  0756  3001               	movlw	1
  4616  0757  07A4               	addwf	___fldiv@b,f
  4617  0758  3000               	movlw	0
  4618  0759  1803               	skipnc
  4619  075A  3001               	movlw	1
  4620  075B  07A5               	addwf	___fldiv@b+1,f
  4621  075C  3000               	movlw	0
  4622  075D  1803               	skipnc
  4623  075E  3001               	movlw	1
  4624  075F  07A6               	addwf	___fldiv@b+2,f
  4625  0760  3000               	movlw	0
  4626  0761  1803               	skipnc
  4627  0762  3001               	movlw	1
  4628  0763  07A7               	addwf	___fldiv@b+3,f
  4629  0764                     l1927:
  4630  0764  1C27               	btfss	___fldiv@b+3,0
  4631  0765  2F67               	goto	u1691
  4632  0766  2F68               	goto	u1690
  4633  0767                     u1691:
  4634  0767  2F87               	goto	l1933
  4635  0768                     u1690:
  4636  0768                     l1929:
  4637  0768  0824               	movf	___fldiv@b,w
  4638  0769  00A8               	movwf	??___fldiv
  4639  076A  0825               	movf	___fldiv@b+1,w
  4640  076B  00A9               	movwf	??___fldiv+1
  4641  076C  0826               	movf	___fldiv@b+2,w
  4642  076D  00AA               	movwf	??___fldiv+2
  4643  076E  0827               	movf	___fldiv@b+3,w
  4644  076F  00AB               	movwf	??___fldiv+3
  4645  0770  3001               	movlw	1
  4646  0771  00AC               	movwf	??___fldiv+4
  4647  0772                     u1705:
  4648  0772  0D2B               	rlf	??___fldiv+3,w
  4649  0773  0CAB               	rrf	??___fldiv+3,f
  4650  0774  0CAA               	rrf	??___fldiv+2,f
  4651  0775  0CA9               	rrf	??___fldiv+1,f
  4652  0776  0CA8               	rrf	??___fldiv,f
  4653  0777                     u1700:
  4654  0777  0BAC               	decfsz	??___fldiv+4,f
  4655  0778  2F72               	goto	u1705
  4656  0779  082B               	movf	??___fldiv+3,w
  4657  077A  00A7               	movwf	___fldiv@b+3
  4658  077B  082A               	movf	??___fldiv+2,w
  4659  077C  00A6               	movwf	___fldiv@b+2
  4660  077D  0829               	movf	??___fldiv+1,w
  4661  077E  00A5               	movwf	___fldiv@b+1
  4662  077F  0828               	movf	??___fldiv,w
  4663  0780  00A4               	movwf	___fldiv@b
  4664  0781                     l1931:
  4665  0781  3001               	movlw	1
  4666  0782  07B2               	addwf	___fldiv@new_exp,f
  4667  0783  1803               	skipnc
  4668  0784  0AB3               	incf	___fldiv@new_exp+1,f
  4669  0785  3000               	movlw	0
  4670  0786  07B3               	addwf	___fldiv@new_exp+1,f
  4671  0787                     l1933:
  4672  0787  0833               	movf	___fldiv@new_exp+1,w
  4673  0788  3A80               	xorlw	128
  4674  0789  00FF               	movwf	btemp+1
  4675  078A  3080               	movlw	128
  4676  078B  027F               	subwf	btemp+1,w
  4677  078C  1D03               	skipz
  4678  078D  2F90               	goto	u1715
  4679  078E  30FF               	movlw	255
  4680  078F  0232               	subwf	___fldiv@new_exp,w
  4681  0790                     u1715:
  4682  0790  1C03               	skipc
  4683  0791  2F93               	goto	u1711
  4684  0792  2F94               	goto	u1710
  4685  0793                     u1711:
  4686  0793  2FA2               	goto	l1937
  4687  0794                     u1710:
  4688  0794                     l1935:
  4689  0794  30FF               	movlw	255
  4690  0795  1283               	bcf	3,5	;RP0=0, select bank0
  4691  0796  1303               	bcf	3,6	;RP1=0, select bank0
  4692  0797  00B2               	movwf	___fldiv@new_exp
  4693  0798  3000               	movlw	0
  4694  0799  00B3               	movwf	___fldiv@new_exp+1
  4695  079A  3000               	movlw	0
  4696  079B  00A7               	movwf	___fldiv@b+3
  4697  079C  3000               	movlw	0
  4698  079D  00A6               	movwf	___fldiv@b+2
  4699  079E  3000               	movlw	0
  4700  079F  00A5               	movwf	___fldiv@b+1
  4701  07A0  3000               	movlw	0
  4702  07A1  00A4               	movwf	___fldiv@b
  4703  07A2                     l1937:
  4704  07A2  1283               	bcf	3,5	;RP0=0, select bank0
  4705  07A3  1303               	bcf	3,6	;RP1=0, select bank0
  4706  07A4  0833               	movf	___fldiv@new_exp+1,w
  4707  07A5  3A80               	xorlw	128
  4708  07A6  00FF               	movwf	btemp+1
  4709  07A7  3080               	movlw	128
  4710  07A8  027F               	subwf	btemp+1,w
  4711  07A9  1D03               	skipz
  4712  07AA  2FAD               	goto	u1725
  4713  07AB  3001               	movlw	1
  4714  07AC  0232               	subwf	___fldiv@new_exp,w
  4715  07AD                     u1725:
  4716  07AD  1803               	skipnc
  4717  07AE  2FB0               	goto	u1721
  4718  07AF  2FB1               	goto	u1720
  4719  07B0                     u1721:
  4720  07B0  2FBE               	goto	l738
  4721  07B1                     u1720:
  4722  07B1                     l1939:
  4723  07B1  1283               	bcf	3,5	;RP0=0, select bank0
  4724  07B2  1303               	bcf	3,6	;RP1=0, select bank0
  4725  07B3  01B2               	clrf	___fldiv@new_exp
  4726  07B4  01B3               	clrf	___fldiv@new_exp+1
  4727  07B5                     l1941:
  4728  07B5  3000               	movlw	0
  4729  07B6  00A7               	movwf	___fldiv@b+3
  4730  07B7  3000               	movlw	0
  4731  07B8  00A6               	movwf	___fldiv@b+2
  4732  07B9  3000               	movlw	0
  4733  07BA  00A5               	movwf	___fldiv@b+1
  4734  07BB  3000               	movlw	0
  4735  07BC  00A4               	movwf	___fldiv@b
  4736  07BD                     l1943:
  4737  07BD  01B1               	clrf	___fldiv@sign
  4738  07BE                     l738:
  4739  07BE  1283               	bcf	3,5	;RP0=0, select bank0
  4740  07BF  1303               	bcf	3,6	;RP1=0, select bank0
  4741  07C0  0832               	movf	___fldiv@new_exp,w
  4742  07C1  00A8               	movwf	??___fldiv
  4743  07C2  0828               	movf	??___fldiv,w
  4744  07C3  00B8               	movwf	___fldiv@bexp
  4745  07C4                     l1945:
  4746  07C4  1C38               	btfss	___fldiv@bexp,0
  4747  07C5  2FC7               	goto	u1731
  4748  07C6  2FC8               	goto	u1730
  4749  07C7                     u1731:
  4750  07C7  2FCA               	goto	l1949
  4751  07C8                     u1730:
  4752  07C8                     l1947:
  4753  07C8  17A6               	bsf	___fldiv@b+2,7
  4754  07C9  2FCE               	goto	l740
  4755  07CA                     l1949:
  4756  07CA  307F               	movlw	127
  4757  07CB  00A8               	movwf	??___fldiv
  4758  07CC  0828               	movf	??___fldiv,w
  4759  07CD  05A6               	andwf	___fldiv@b+2,f
  4760  07CE                     l740:
  4761  07CE  0838               	movf	___fldiv@bexp,w
  4762  07CF  00A8               	movwf	??___fldiv
  4763  07D0  1003               	clrc
  4764  07D1  0C28               	rrf	??___fldiv,w
  4765  07D2  00A9               	movwf	??___fldiv+1
  4766  07D3  0829               	movf	??___fldiv+1,w
  4767  07D4  00A7               	movwf	___fldiv@b+3
  4768  07D5  0831               	movf	___fldiv@sign,w
  4769  07D6  00A8               	movwf	??___fldiv
  4770  07D7  0828               	movf	??___fldiv,w
  4771  07D8  04A7               	iorwf	___fldiv@b+3,f
  4772  07D9  2E72               	goto	l1857
  4773  07DA                     l718:
  4774  07DA  0008               	return
  4775  07DB                     __end_of___fldiv:
  4776                           
  4777                           	psect	text18
  4778  0164                     __ptext18:	
  4779 ;; *************** function ___flge *****************
  4780 ;; Defined at:
  4781 ;;		line 4 in file "C:\Program Files\Microchip\xc8\v2.36\pic\sources\c90\common\flge.c"
  4782 ;; Parameters:    Size  Location     Type
  4783 ;;  ff1             4    0[COMMON] unsigned char 
  4784 ;;  ff2             4    4[COMMON] unsigned char 
  4785 ;; Auto vars:     Size  Location     Type
  4786 ;;		None
  4787 ;; Return value:  Size  Location     Type
  4788 ;;		None               void
  4789 ;; Registers used:
  4790 ;;		wreg, status,2, status,0
  4791 ;; Tracked objects:
  4792 ;;		On entry : 0/0
  4793 ;;		On exit  : 0/0
  4794 ;;		Unchanged: 0/0
  4795 ;; Data sizes:     COMMON   BANK0   BANK1   BANK3   BANK2
  4796 ;;      Params:         8       0       0       0       0
  4797 ;;      Locals:         0       0       0       0       0
  4798 ;;      Temps:          4       0       0       0       0
  4799 ;;      Totals:        12       0       0       0       0
  4800 ;;Total ram usage:       12 bytes
  4801 ;; Hardware stack levels used: 1
  4802 ;; This function calls:
  4803 ;;		Nothing
  4804 ;; This function is called by:
  4805 ;;		_main
  4806 ;; This function uses a non-reentrant model
  4807 ;;
  4808                           
  4809  0164                     ___flge:	
  4810                           ;psect for function ___flge
  4811                           
  4812  0164                     l2311:	
  4813                           ;incstack = 0
  4814                           ; Regs used in ___flge: [wreg+status,2+status,0]
  4815                           
  4816  0164  3000               	movlw	0
  4817  0165  0570               	andwf	___flge@ff1,w
  4818  0166  00F8               	movwf	??___flge
  4819  0167  3000               	movlw	0
  4820  0168  0571               	andwf	___flge@ff1+1,w
  4821  0169  00F9               	movwf	??___flge+1
  4822  016A  3080               	movlw	128
  4823  016B  0572               	andwf	___flge@ff1+2,w
  4824  016C  00FA               	movwf	??___flge+2
  4825  016D  307F               	movlw	127
  4826  016E  0573               	andwf	___flge@ff1+3,w
  4827  016F  00FB               	movwf	??___flge+3
  4828  0170  087B               	movf	??___flge+3,w
  4829  0171  047A               	iorwf	??___flge+2,w
  4830  0172  0479               	iorwf	??___flge+1,w
  4831  0173  0478               	iorwf	??___flge,w
  4832  0174  1D03               	skipz
  4833  0175  2977               	goto	u2211
  4834  0176  2978               	goto	u2210
  4835  0177                     u2211:
  4836  0177  2980               	goto	l541
  4837  0178                     u2210:
  4838  0178                     l2313:
  4839  0178  3000               	movlw	0
  4840  0179  00F3               	movwf	___flge@ff1+3
  4841  017A  3000               	movlw	0
  4842  017B  00F2               	movwf	___flge@ff1+2
  4843  017C  3000               	movlw	0
  4844  017D  00F1               	movwf	___flge@ff1+1
  4845  017E  3000               	movlw	0
  4846  017F  00F0               	movwf	___flge@ff1
  4847  0180                     l541:
  4848  0180  3000               	movlw	0
  4849  0181  0574               	andwf	___flge@ff2,w
  4850  0182  00F8               	movwf	??___flge
  4851  0183  3000               	movlw	0
  4852  0184  0575               	andwf	___flge@ff2+1,w
  4853  0185  00F9               	movwf	??___flge+1
  4854  0186  3080               	movlw	128
  4855  0187  0576               	andwf	___flge@ff2+2,w
  4856  0188  00FA               	movwf	??___flge+2
  4857  0189  307F               	movlw	127
  4858  018A  0577               	andwf	___flge@ff2+3,w
  4859  018B  00FB               	movwf	??___flge+3
  4860  018C  087B               	movf	??___flge+3,w
  4861  018D  047A               	iorwf	??___flge+2,w
  4862  018E  0479               	iorwf	??___flge+1,w
  4863  018F  0478               	iorwf	??___flge,w
  4864  0190  1D03               	skipz
  4865  0191  2993               	goto	u2221
  4866  0192  2994               	goto	u2220
  4867  0193                     u2221:
  4868  0193  299C               	goto	l2317
  4869  0194                     u2220:
  4870  0194                     l2315:
  4871  0194  3000               	movlw	0
  4872  0195  00F7               	movwf	___flge@ff2+3
  4873  0196  3000               	movlw	0
  4874  0197  00F6               	movwf	___flge@ff2+2
  4875  0198  3000               	movlw	0
  4876  0199  00F5               	movwf	___flge@ff2+1
  4877  019A  3000               	movlw	0
  4878  019B  00F4               	movwf	___flge@ff2
  4879  019C                     l2317:
  4880  019C  1FF3               	btfss	___flge@ff1+3,7
  4881  019D  299F               	goto	u2231
  4882  019E  29A0               	goto	u2230
  4883  019F                     u2231:
  4884  019F  29C4               	goto	l2321
  4885  01A0                     u2230:
  4886  01A0                     l2319:
  4887  01A0  3000               	movlw	0
  4888  01A1  00F8               	movwf	??___flge
  4889  01A2  3000               	movlw	0
  4890  01A3  00F9               	movwf	??___flge+1
  4891  01A4  3000               	movlw	0
  4892  01A5  00FA               	movwf	??___flge+2
  4893  01A6  3080               	movlw	128
  4894  01A7  00FB               	movwf	??___flge+3
  4895  01A8  0870               	movf	___flge@ff1,w
  4896  01A9  02F8               	subwf	??___flge,f
  4897  01AA  0871               	movf	___flge@ff1+1,w
  4898  01AB  1C03               	skipc
  4899  01AC  0F71               	incfsz	___flge@ff1+1,w
  4900  01AD  29AF               	goto	u2241
  4901  01AE  29B0               	goto	u2242
  4902  01AF                     u2241:
  4903  01AF  02F9               	subwf	??___flge+1,f
  4904  01B0                     u2242:
  4905  01B0  0872               	movf	___flge@ff1+2,w
  4906  01B1  1C03               	skipc
  4907  01B2  0F72               	incfsz	___flge@ff1+2,w
  4908  01B3  29B5               	goto	u2243
  4909  01B4  29B6               	goto	u2244
  4910  01B5                     u2243:
  4911  01B5  02FA               	subwf	??___flge+2,f
  4912  01B6                     u2244:
  4913  01B6  0873               	movf	___flge@ff1+3,w
  4914  01B7  1C03               	skipc
  4915  01B8  0F73               	incfsz	___flge@ff1+3,w
  4916  01B9  29BB               	goto	u2245
  4917  01BA  29BC               	goto	u2246
  4918  01BB                     u2245:
  4919  01BB  02FB               	subwf	??___flge+3,f
  4920  01BC                     u2246:
  4921  01BC  087B               	movf	??___flge+3,w
  4922  01BD  00F3               	movwf	___flge@ff1+3
  4923  01BE  087A               	movf	??___flge+2,w
  4924  01BF  00F2               	movwf	___flge@ff1+2
  4925  01C0  0879               	movf	??___flge+1,w
  4926  01C1  00F1               	movwf	___flge@ff1+1
  4927  01C2  0878               	movf	??___flge,w
  4928  01C3  00F0               	movwf	___flge@ff1
  4929  01C4                     l2321:
  4930  01C4  1FF7               	btfss	___flge@ff2+3,7
  4931  01C5  29C7               	goto	u2251
  4932  01C6  29C8               	goto	u2250
  4933  01C7                     u2251:
  4934  01C7  29EC               	goto	l544
  4935  01C8                     u2250:
  4936  01C8                     l2323:
  4937  01C8  3000               	movlw	0
  4938  01C9  00F8               	movwf	??___flge
  4939  01CA  3000               	movlw	0
  4940  01CB  00F9               	movwf	??___flge+1
  4941  01CC  3000               	movlw	0
  4942  01CD  00FA               	movwf	??___flge+2
  4943  01CE  3080               	movlw	128
  4944  01CF  00FB               	movwf	??___flge+3
  4945  01D0  0874               	movf	___flge@ff2,w
  4946  01D1  02F8               	subwf	??___flge,f
  4947  01D2  0875               	movf	___flge@ff2+1,w
  4948  01D3  1C03               	skipc
  4949  01D4  0F75               	incfsz	___flge@ff2+1,w
  4950  01D5  29D7               	goto	u2261
  4951  01D6  29D8               	goto	u2262
  4952  01D7                     u2261:
  4953  01D7  02F9               	subwf	??___flge+1,f
  4954  01D8                     u2262:
  4955  01D8  0876               	movf	___flge@ff2+2,w
  4956  01D9  1C03               	skipc
  4957  01DA  0F76               	incfsz	___flge@ff2+2,w
  4958  01DB  29DD               	goto	u2263
  4959  01DC  29DE               	goto	u2264
  4960  01DD                     u2263:
  4961  01DD  02FA               	subwf	??___flge+2,f
  4962  01DE                     u2264:
  4963  01DE  0877               	movf	___flge@ff2+3,w
  4964  01DF  1C03               	skipc
  4965  01E0  0F77               	incfsz	___flge@ff2+3,w
  4966  01E1  29E3               	goto	u2265
  4967  01E2  29E4               	goto	u2266
  4968  01E3                     u2265:
  4969  01E3  02FB               	subwf	??___flge+3,f
  4970  01E4                     u2266:
  4971  01E4  087B               	movf	??___flge+3,w
  4972  01E5  00F7               	movwf	___flge@ff2+3
  4973  01E6  087A               	movf	??___flge+2,w
  4974  01E7  00F6               	movwf	___flge@ff2+2
  4975  01E8  0879               	movf	??___flge+1,w
  4976  01E9  00F5               	movwf	___flge@ff2+1
  4977  01EA  0878               	movf	??___flge,w
  4978  01EB  00F4               	movwf	___flge@ff2
  4979  01EC                     l544:
  4980  01EC  3080               	movlw	128
  4981  01ED  06F3               	xorwf	___flge@ff1+3,f
  4982  01EE  3080               	movlw	128
  4983  01EF  06F7               	xorwf	___flge@ff2+3,f
  4984  01F0  0877               	movf	___flge@ff2+3,w
  4985  01F1  0273               	subwf	___flge@ff1+3,w
  4986  01F2  1D03               	skipz
  4987  01F3  29FE               	goto	u2275
  4988  01F4  0876               	movf	___flge@ff2+2,w
  4989  01F5  0272               	subwf	___flge@ff1+2,w
  4990  01F6  1D03               	skipz
  4991  01F7  29FE               	goto	u2275
  4992  01F8  0875               	movf	___flge@ff2+1,w
  4993  01F9  0271               	subwf	___flge@ff1+1,w
  4994  01FA  1D03               	skipz
  4995  01FB  29FE               	goto	u2275
  4996  01FC  0874               	movf	___flge@ff2,w
  4997  01FD  0270               	subwf	___flge@ff1,w
  4998  01FE                     u2275:
  4999  01FE  1803               	skipnc
  5000  01FF  2A01               	goto	u2271
  5001  0200  2A02               	goto	u2270
  5002  0201                     u2271:
  5003  0201  2A04               	goto	l2327
  5004  0202                     u2270:
  5005  0202                     l2325:
  5006  0202  1003               	clrc
  5007  0203  2A05               	goto	l545
  5008  0204                     l2327:
  5009  0204  1403               	setc
  5010  0205                     l545:
  5011  0205  0008               	return
  5012  0206                     __end_of___flge:
  5013                           
  5014                           	psect	text19
  5015  0CFD                     __ptext19:	
  5016 ;; *************** function _LCD_init *****************
  5017 ;; Defined at:
  5018 ;;		line 37 in file "./LCD.h"
  5019 ;; Parameters:    Size  Location     Type
  5020 ;;		None
  5021 ;; Auto vars:     Size  Location     Type
  5022 ;;		None
  5023 ;; Return value:  Size  Location     Type
  5024 ;;                  1    wreg      void 
  5025 ;; Registers used:
  5026 ;;		wreg, status,2, status,0, pclath, cstack
  5027 ;; Tracked objects:
  5028 ;;		On entry : 0/0
  5029 ;;		On exit  : 0/0
  5030 ;;		Unchanged: 0/0
  5031 ;; Data sizes:     COMMON   BANK0   BANK1   BANK3   BANK2
  5032 ;;      Params:         0       0       0       0       0
  5033 ;;      Locals:         0       0       0       0       0
  5034 ;;      Temps:          0       0       0       0       0
  5035 ;;      Totals:         0       0       0       0       0
  5036 ;;Total ram usage:        0 bytes
  5037 ;; Hardware stack levels used: 1
  5038 ;; Hardware stack levels required when called: 1
  5039 ;; This function calls:
  5040 ;;		_LCD_Command
  5041 ;; This function is called by:
  5042 ;;		_main
  5043 ;; This function uses a non-reentrant model
  5044 ;;
  5045                           
  5046  0CFD                     _LCD_init:	
  5047                           ;psect for function _LCD_init
  5048                           
  5049  0CFD                     l2059:	
  5050                           ;incstack = 0
  5051                           ; Regs used in _LCD_init: [wreg+status,2+status,0+pclath+cstack]
  5052                           
  5053                           
  5054                           ;./LCD.h: 39: LCD_Command(0x38);
  5055  0CFD  3038               	movlw	56
  5056  0CFE  120A  158A  24D5  120A  158A  	fcall	_LCD_Command
  5057                           
  5058                           ;./LCD.h: 40: LCD_Command(0x06);
  5059  0D03  3006               	movlw	6
  5060  0D04  120A  158A  24D5  120A  158A  	fcall	_LCD_Command
  5061                           
  5062                           ;./LCD.h: 41: LCD_Command(0x0C);
  5063  0D09  300C               	movlw	12
  5064  0D0A  120A  158A  24D5  120A  158A  	fcall	_LCD_Command
  5065                           
  5066                           ;./LCD.h: 42: LCD_Command(0x01);
  5067  0D0F  3001               	movlw	1
  5068  0D10  120A  158A  24D5  120A  158A  	fcall	_LCD_Command
  5069  0D15                     l164:
  5070  0D15  0008               	return
  5071  0D16                     __end_of_LCD_init:
  5072                           
  5073                           	psect	text20
  5074  0C91                     __ptext20:	
  5075 ;; *************** function _LCD_Clear *****************
  5076 ;; Defined at:
  5077 ;;		line 81 in file "./LCD.h"
  5078 ;; Parameters:    Size  Location     Type
  5079 ;;		None
  5080 ;; Auto vars:     Size  Location     Type
  5081 ;;		None
  5082 ;; Return value:  Size  Location     Type
  5083 ;;                  1    wreg      void 
  5084 ;; Registers used:
  5085 ;;		wreg, status,2, status,0, pclath, cstack
  5086 ;; Tracked objects:
  5087 ;;		On entry : 0/0
  5088 ;;		On exit  : 0/0
  5089 ;;		Unchanged: 0/0
  5090 ;; Data sizes:     COMMON   BANK0   BANK1   BANK3   BANK2
  5091 ;;      Params:         0       0       0       0       0
  5092 ;;      Locals:         0       0       0       0       0
  5093 ;;      Temps:          0       0       0       0       0
  5094 ;;      Totals:         0       0       0       0       0
  5095 ;;Total ram usage:        0 bytes
  5096 ;; Hardware stack levels used: 1
  5097 ;; Hardware stack levels required when called: 1
  5098 ;; This function calls:
  5099 ;;		_LCD_Command
  5100 ;; This function is called by:
  5101 ;;		_main
  5102 ;; This function uses a non-reentrant model
  5103 ;;
  5104                           
  5105  0C91                     _LCD_Clear:	
  5106                           ;psect for function _LCD_Clear
  5107                           
  5108  0C91                     l2061:	
  5109                           ;incstack = 0
  5110                           ; Regs used in _LCD_Clear: [wreg+status,2+status,0+pclath+cstack]
  5111                           
  5112                           
  5113                           ;./LCD.h: 83: LCD_Command(0x01);
  5114  0C91  3001               	movlw	1
  5115  0C92  120A  158A  24D5  120A  158A  	fcall	_LCD_Command
  5116  0C97                     l182:
  5117  0C97  0008               	return
  5118  0C98                     __end_of_LCD_Clear:
  5119                           
  5120                           	psect	text21
  5121  0CD5                     __ptext21:	
  5122 ;; *************** function _LCD_Command *****************
  5123 ;; Defined at:
  5124 ;;		line 27 in file "./LCD.h"
  5125 ;; Parameters:    Size  Location     Type
  5126 ;;  cmd             1    wreg     unsigned char 
  5127 ;; Auto vars:     Size  Location     Type
  5128 ;;  cmd             1    2[COMMON] unsigned char 
  5129 ;; Return value:  Size  Location     Type
  5130 ;;                  1    wreg      void 
  5131 ;; Registers used:
  5132 ;;		wreg
  5133 ;; Tracked objects:
  5134 ;;		On entry : 0/0
  5135 ;;		On exit  : 0/0
  5136 ;;		Unchanged: 0/0
  5137 ;; Data sizes:     COMMON   BANK0   BANK1   BANK3   BANK2
  5138 ;;      Params:         0       0       0       0       0
  5139 ;;      Locals:         1       0       0       0       0
  5140 ;;      Temps:          2       0       0       0       0
  5141 ;;      Totals:         3       0       0       0       0
  5142 ;;Total ram usage:        3 bytes
  5143 ;; Hardware stack levels used: 1
  5144 ;; This function calls:
  5145 ;;		Nothing
  5146 ;; This function is called by:
  5147 ;;		_LCD_init
  5148 ;;		_LCD_Clear
  5149 ;;		_main
  5150 ;;		_person150_170
  5151 ;;		_person170_190
  5152 ;;		_personOver_190
  5153 ;; This function uses a non-reentrant model
  5154 ;;
  5155                           
  5156  0CD5                     _LCD_Command:	
  5157                           ;psect for function _LCD_Command
  5158                           
  5159                           
  5160                           ;incstack = 0
  5161                           ; Regs used in _LCD_Command: [wreg]
  5162                           ;LCD_Command@cmd stored from wreg
  5163  0CD5  00F2               	movwf	LCD_Command@cmd
  5164  0CD6                     l1765:
  5165                           
  5166                           ;./LCD.h: 27: void LCD_Command(unsigned char cmd);./LCD.h: 28: {;./LCD.h: 29: PORTB = cm
      +                          d;
  5167  0CD6  0872               	movf	LCD_Command@cmd,w
  5168  0CD7  1283               	bcf	3,5	;RP0=0, select bank0
  5169  0CD8  1303               	bcf	3,6	;RP1=0, select bank0
  5170  0CD9  0086               	movwf	6	;volatile
  5171  0CDA                     l1767:
  5172                           
  5173                           ;./LCD.h: 30: RC2 = 0 ;
  5174  0CDA  1107               	bcf	7,2	;volatile
  5175  0CDB                     l1769:
  5176                           
  5177                           ;./LCD.h: 31: RC3 = 0;
  5178  0CDB  1187               	bcf	7,3	;volatile
  5179  0CDC                     l1771:
  5180                           
  5181                           ;./LCD.h: 32: RD0 = 1 ;
  5182  0CDC  1408               	bsf	8,0	;volatile
  5183                           
  5184                           ;./LCD.h: 33: _delay((unsigned long)((5)*(4000000/4000.0)));
  5185  0CDD  3007               	movlw	7
  5186  0CDE  00F1               	movwf	??_LCD_Command+1
  5187  0CDF  307D               	movlw	125
  5188  0CE0  00F0               	movwf	??_LCD_Command
  5189  0CE1                     u2457:
  5190  0CE1  0BF0               	decfsz	??_LCD_Command,f
  5191  0CE2  2CE1               	goto	u2457
  5192  0CE3  0BF1               	decfsz	??_LCD_Command+1,f
  5193  0CE4  2CE1               	goto	u2457
  5194  0CE5                     l1773:
  5195                           
  5196                           ;./LCD.h: 34: RD0 = 0;
  5197  0CE5  1283               	bcf	3,5	;RP0=0, select bank0
  5198  0CE6  1303               	bcf	3,6	;RP1=0, select bank0
  5199  0CE7  1008               	bcf	8,0	;volatile
  5200  0CE8                     l161:
  5201  0CE8  0008               	return
  5202  0CE9                     __end_of_LCD_Command:
  5203                           
  5204                           	psect	text22
  5205  0CC1                     __ptext22:	
  5206 ;; *************** function _Initialize_Bluetooth *****************
  5207 ;; Defined at:
  5208 ;;		line 4 in file "./BT.h"
  5209 ;; Parameters:    Size  Location     Type
  5210 ;;		None
  5211 ;; Auto vars:     Size  Location     Type
  5212 ;;		None
  5213 ;; Return value:  Size  Location     Type
  5214 ;;                  1    wreg      void 
  5215 ;; Registers used:
  5216 ;;		wreg
  5217 ;; Tracked objects:
  5218 ;;		On entry : 0/0
  5219 ;;		On exit  : 0/0
  5220 ;;		Unchanged: 0/0
  5221 ;; Data sizes:     COMMON   BANK0   BANK1   BANK3   BANK2
  5222 ;;      Params:         0       0       0       0       0
  5223 ;;      Locals:         0       0       0       0       0
  5224 ;;      Temps:          0       0       0       0       0
  5225 ;;      Totals:         0       0       0       0       0
  5226 ;;Total ram usage:        0 bytes
  5227 ;; Hardware stack levels used: 1
  5228 ;; This function calls:
  5229 ;;		Nothing
  5230 ;; This function is called by:
  5231 ;;		_main
  5232 ;; This function uses a non-reentrant model
  5233 ;;
  5234                           
  5235  0CC1                     _Initialize_Bluetooth:	
  5236                           ;psect for function _Initialize_Bluetooth
  5237                           
  5238  0CC1                     l2063:	
  5239                           ;incstack = 0
  5240                           ; Regs used in _Initialize_Bluetooth: [wreg]
  5241                           
  5242                           
  5243                           ;./BT.h: 5:     TRISC6=1;
  5244  0CC1  1683               	bsf	3,5	;RP0=1, select bank1
  5245  0CC2  1303               	bcf	3,6	;RP1=0, select bank1
  5246  0CC3  1707               	bsf	7,6	;volatile
  5247                           
  5248                           ;./BT.h: 6:     TRISC7=1;
  5249  0CC4  1787               	bsf	7,7	;volatile
  5250                           
  5251                           ;./BT.h: 8:     BRGH=1;
  5252  0CC5  1518               	bsf	24,2	;volatile
  5253  0CC6                     l2065:
  5254                           
  5255                           ;./BT.h: 9:     SPBRG=25;
  5256  0CC6  3019               	movlw	25
  5257  0CC7  0099               	movwf	25	;volatile
  5258  0CC8                     l2067:
  5259                           
  5260                           ;./BT.h: 11:     SYNC=0;
  5261  0CC8  1218               	bcf	24,4	;volatile
  5262  0CC9                     l2069:
  5263                           
  5264                           ;./BT.h: 12:     SPEN=1;
  5265  0CC9  1283               	bcf	3,5	;RP0=0, select bank0
  5266  0CCA  1303               	bcf	3,6	;RP1=0, select bank0
  5267  0CCB  1798               	bsf	24,7	;volatile
  5268  0CCC                     l2071:
  5269                           
  5270                           ;./BT.h: 14:     RX9=0;
  5271  0CCC  1318               	bcf	24,6	;volatile
  5272  0CCD                     l2073:
  5273                           
  5274                           ;./BT.h: 15:     TX9=0;
  5275  0CCD  1683               	bsf	3,5	;RP0=1, select bank1
  5276  0CCE  1303               	bcf	3,6	;RP1=0, select bank1
  5277  0CCF  1318               	bcf	24,6	;volatile
  5278  0CD0                     l2075:
  5279                           
  5280                           ;./BT.h: 17:     TXEN=1;
  5281  0CD0  1698               	bsf	24,5	;volatile
  5282  0CD1                     l2077:
  5283                           
  5284                           ;./BT.h: 18:     CREN=1;
  5285  0CD1  1283               	bcf	3,5	;RP0=0, select bank0
  5286  0CD2  1303               	bcf	3,6	;RP1=0, select bank0
  5287  0CD3  1618               	bsf	24,4	;volatile
  5288  0CD4                     l185:
  5289  0CD4  0008               	return
  5290  0CD5                     __end_of_Initialize_Bluetooth:
  5291  007E                     btemp	set	126	;btemp
  5292  007E                     wtemp0	set	126
  5293                           
  5294                           	psect	idloc
  5295                           
  5296                           ;Config register IDLOC0 @ 0x2000
  5297                           ;	unspecified, using default values
  5298  2000                     	org	8192
  5299  2000  3FFF               	dw	16383
  5300                           
  5301                           ;Config register IDLOC1 @ 0x2001
  5302                           ;	unspecified, using default values
  5303  2001                     	org	8193
  5304  2001  3FFF               	dw	16383
  5305                           
  5306                           ;Config register IDLOC2 @ 0x2002
  5307                           ;	unspecified, using default values
  5308  2002                     	org	8194
  5309  2002  3FFF               	dw	16383
  5310                           
  5311                           ;Config register IDLOC3 @ 0x2003
  5312                           ;	unspecified, using default values
  5313  2003                     	org	8195
  5314  2003  3FFF               	dw	16383
  5315                           
  5316                           	psect	config
  5317                           
  5318                           ;Config register CONFIG @ 0x2007
  5319                           ;	Oscillator Selection bits
  5320                           ;	FOSC = HS, HS oscillator
  5321                           ;	Watchdog Timer Enable bit
  5322                           ;	WDTE = OFF, WDT disabled
  5323                           ;	Power-up Timer Enable bit
  5324                           ;	PWRTE = OFF, PWRT disabled
  5325                           ;	Brown-out Reset Enable bit
  5326                           ;	BOREN = OFF, BOR disabled
  5327                           ;	Low-Voltage (Single-Supply) In-Circuit Serial Programming Enable bit
  5328                           ;	LVP = OFF, RB3 is digital I/O, HV on MCLR must be used for programming
  5329                           ;	Data EEPROM Memory Code Protection bit
  5330                           ;	CPD = OFF, Data EEPROM code protection off
  5331                           ;	Flash Program Memory Write Enable bits
  5332                           ;	WRT = OFF, Write protection off; all program memory may be written to by EECON control
  5333                           ;	In-Circuit Debugger Mode bit
  5334                           ;	DEBUG = 0x1, unprogrammed default
  5335                           ;	Flash Program Memory Code Protection bit
  5336                           ;	CP = OFF, Code protection off
  5337  2007                     	org	8199
  5338  2007  3F3A               	dw	16186

Data Sizes:
    Strings     114
    Constant    0
    Data        4
    BSS         21
    Persistent  0
    Stack       0

Auto Spaces:
    Space          Size  Autos    Used
    COMMON           14     14      14
    BANK0            80     50      75
    BANK1            80      0       0
    BANK3            96      0       0
    BANK2            96      0       0

Pointer List with Targets:

    BT_load_string@string	PTR unsigned char  size(2) Largest target is 512
		 -> STR_13(CODE[26]), STR_12(CODE[2]), STR_11(CODE[19]), STR_10(CODE[26]), 
		 -> STR_9(CODE[2]), STR_8(CODE[26]), STR_7(CODE[26]), STR_6(CODE[2]), 
		 -> STR_5(CODE[26]), RAM(DATA[512]), 

    sp__itoa	PTR unsigned char  size(1) Largest target is 12
		 -> itoa@buffer(BANK0[12]), 

    LCD_string@str	PTR unsigned char  size(2) Largest target is 512
		 -> RAM(DATA[512]), STR_4(CODE[2]), STR_3(CODE[2]), STR_2(CODE[2]), 
		 -> STR_1(CODE[15]), 


Critical Paths under _main in COMMON

    _updateWifiCounter->___awdiv
    _personOver_190->_itoa
    _person170_190->_itoa
    _person150_170->_itoa
    _itoa->___awdiv
    _LCD_string->_LCD_Data
    _BT_load_string->_BT_load_char
    _dist3->___xxtofl
    _dist2->___xxtofl
    _dist1->___xxtofl
    ___fldiv->___xxtofl
    _LCD_init->_LCD_Command
    _LCD_Clear->_LCD_Command

Critical Paths under _main in BANK0

    _main->_dist1
    _main->_dist2
    _main->_dist3
    _personOver_190->_itoa
    _person170_190->_itoa
    _person150_170->_itoa
    _dist3->___fldiv
    _dist2->___fldiv
    _dist1->___fldiv

Critical Paths under _main in BANK1

    None.

Critical Paths under _main in BANK3

    None.

Critical Paths under _main in BANK2

    None.

Call Graph Tables:

 ---------------------------------------------------------------------------------
 (Depth) Function   	        Calls       Base Space   Used Autos Params    Refs
 ---------------------------------------------------------------------------------
 (0) _main                                                15    15      0   25137
                                             35 BANK0     15    15      0
               _Initialize_Bluetooth
                          _LCD_Clear
                        _LCD_Command
                           _LCD_init
                         _LCD_string
                             ___flge
                              _dist1
                              _dist2
                              _dist3
                      _person150_170
                      _person170_190
                     _personOver_190
                  _updateWifiCounter
 ---------------------------------------------------------------------------------
 (1) _updateWifiCounter                                    6     6      0    2360
                                              0 BANK0      6     6      0
                            ___awdiv
 ---------------------------------------------------------------------------------
 (1) _personOver_190                                       3     3      0    4387
                                              4 BANK0      3     3      0
                     _BT_load_string
                        _LCD_Command
                         _LCD_string
                       _broadcast_BT
                               _itoa
 ---------------------------------------------------------------------------------
 (1) _person170_190                                        3     3      0    4387
                                              4 BANK0      3     3      0
                     _BT_load_string
                        _LCD_Command
                         _LCD_string
                       _broadcast_BT
                               _itoa
 ---------------------------------------------------------------------------------
 (1) _person150_170                                        3     3      0    4387
                                              4 BANK0      3     3      0
                     _BT_load_string
                        _LCD_Command
                         _LCD_string
                       _broadcast_BT
                               _itoa
 ---------------------------------------------------------------------------------
 (2) _itoa                                                 7     5      2    2742
                                              9 COMMON     3     1      2
                                              0 BANK0      4     4      0
                            ___awdiv
                            ___awmod
 ---------------------------------------------------------------------------------
 (3) ___awmod                                              7     3      4     448
                                              0 COMMON     7     3      4
 ---------------------------------------------------------------------------------
 (2) ___awdiv                                              9     5      4    1820
                                              0 COMMON     9     5      4
 ---------------------------------------------------------------------------------
 (2) _broadcast_BT                                         3     3      0       0
                                              0 COMMON     3     3      0
 ---------------------------------------------------------------------------------
 (2) _LCD_string                                           4     2      2     644
                                              3 COMMON     4     2      2
                           _LCD_Data
 ---------------------------------------------------------------------------------
 (3) _LCD_Data                                             3     3      0      22
                                              0 COMMON     3     3      0
 ---------------------------------------------------------------------------------
 (2) _BT_load_string                                       2     0      2     979
                                              1 COMMON     2     0      2
                       _BT_load_char
 ---------------------------------------------------------------------------------
 (3) _BT_load_char                                         1     1      0      22
                                              0 COMMON     1     1      0
 ---------------------------------------------------------------------------------
 (1) _dist3                                                9     5      4    2559
                                             26 BANK0      9     5      4
                            ___fldiv
                           ___xxtofl
 ---------------------------------------------------------------------------------
 (1) _dist2                                                9     5      4    2559
                                             26 BANK0      9     5      4
                            ___fldiv
                           ___xxtofl
 ---------------------------------------------------------------------------------
 (1) _dist1                                                9     5      4    2559
                                             26 BANK0      9     5      4
                            ___fldiv
                           ___xxtofl
 ---------------------------------------------------------------------------------
 (2) ___xxtofl                                            14    10      4     958
                                              0 COMMON    14    10      4
 ---------------------------------------------------------------------------------
 (2) ___fldiv                                             26    18      8    1577
                                              0 BANK0     26    18      8
                           ___xxtofl (ARG)
 ---------------------------------------------------------------------------------
 (1) ___flge                                              12     4      8    1094
                                              0 COMMON    12     4      8
 ---------------------------------------------------------------------------------
 (1) _LCD_init                                             0     0      0      22
                        _LCD_Command
 ---------------------------------------------------------------------------------
 (1) _LCD_Clear                                            0     0      0      22
                        _LCD_Command
 ---------------------------------------------------------------------------------
 (2) _LCD_Command                                          3     3      0      22
                                              0 COMMON     3     3      0
 ---------------------------------------------------------------------------------
 (1) _Initialize_Bluetooth                                 0     0      0       0
 ---------------------------------------------------------------------------------
 Estimated maximum stack depth 3
 ---------------------------------------------------------------------------------

 Call Graph Graphs:

 _main (ROOT)
   _Initialize_Bluetooth
   _LCD_Clear
     _LCD_Command
   _LCD_Command
   _LCD_init
     _LCD_Command
   _LCD_string
     _LCD_Data
   ___flge
   _dist1
     ___fldiv
       ___xxtofl (ARG)
     ___xxtofl
   _dist2
     ___fldiv
     ___xxtofl
   _dist3
     ___fldiv
     ___xxtofl
   _person150_170
     _BT_load_string
       _BT_load_char
     _LCD_Command
     _LCD_string
     _broadcast_BT
     _itoa
       ___awdiv
       ___awmod
   _person170_190
     _BT_load_string
     _LCD_Command
     _LCD_string
     _broadcast_BT
     _itoa
   _personOver_190
     _BT_load_string
     _LCD_Command
     _LCD_string
     _broadcast_BT
     _itoa
   _updateWifiCounter
     ___awdiv

 Address spaces:
Name               Size   Autos  Total    Cost      Usage
BANK3               60      0       0       9        0.0%
BITBANK3            60      0       0       8        0.0%
SFR3                 0      0       0       4        0.0%
BITSFR3              0      0       0       4        0.0%
BANK2               60      0       0      11        0.0%
BITBANK2            60      0       0      10        0.0%
SFR2                 0      0       0       5        0.0%
BITSFR2              0      0       0       5        0.0%
BANK1               50      0       0       7        0.0%
BITBANK1            50      0       0       6        0.0%
SFR1                 0      0       0       2        0.0%
BITSFR1              0      0       0       2        0.0%
BANK0               50     32      4B       5       93.8%
BITBANK0            50      0       0       4        0.0%
SFR0                 0      0       0       1        0.0%
BITSFR0              0      0       0       1        0.0%
COMMON               E      E       E       1      100.0%
BITCOMMON            E      0       0       0        0.0%
CODE                 0      0       0       0        0.0%
DATA                 0      0      59      12        0.0%
ABS                  0      0      59       3        0.0%
NULL                 0      0       0       0        0.0%
STACK                0      0       0       2        0.0%
EEDATA             100      0       0       0        0.0%


Microchip Technology PIC Macro Assembler V2.36 build 20220127204148 
Symbol Table                                                                                   Mon Dec 05 23:54:07 2022

                ___fldiv@aexp 0039                  ___fldiv@bexp 0038                             pc 0002  
                ___fldiv@sign 0031                  ?_LCD_Command 0070                            _c1 0058  
                          _c2 0059                            _c3 005A                  ___awdiv@sign 0076  
                          fsr 0004     __end_of_updateWifiCounter 05FE                           l200 0D3B  
                         l131 0D7B                           l203 0CC0                           l140 0DCC  
                         l133 0D7F                           l134 0D80                           l142 0DD0  
                         l143 0DD1                           l151 0E21                           l136 0D84  
                         l152 0E22                           l161 0CE8                           l137 0DBC  
                         l145 0DD5                           l146 0E0D                           l154 0E26  
                         l170 0D6B                           l155 0E5E                           l251 0163  
                         l235 043A                           l164 0D15                           l149 0E1D  
                         l245 0F8B                           l182 0C97                           l158 0CFC  
                         l191 0CA9                           l520 00EF                           l248 0FFF  
                         l185 0CD4                           l177 0F01                           l281 05FD  
                         l194 0CAF                           l179 0F17                           l188 0CA5  
                         l541 0180                           l533 0EB7                           l544 01EC  
                         l800 0228                           l545 0205                           l802 02BF  
                         l740 07CE                           l732 074C                           l716 065A  
                         l813 0289                           l718 07DA                           l814 0295  
                         l806 026D                           l738 07BE                           _RA0 0028  
                         _RA1 0029                           _RA2 002A                           _RA3 002B  
                         _RA4 002C                           _RA5 002D                           _RC2 003A  
                         _RD0 0040                           _RC3 003B                           _RD1 0041  
                         _RC4 003C                           _RD2 0042                           _RC5 003D  
                         _RD3 0043                           _RD4 0044                           _RD5 0045  
                         _RD6 0046                           _RD7 0047                           _RX9 00C6  
                         _TX9 04C6                           fsr0 0004                           indf 0000  
                ___awmod@sign 0076                   ?_LCD_string 0073                          l2001 0D6C  
                        l2011 0DB2                          l2003 0D70                          l2013 0DB3  
                        l2005 0D71                          l2021 0DBD                          l2101 047C  
                        l2015 0DB4                          l2007 0D78                          l2031 0E03  
                        l2023 0DC1                          l2111 04A2                          l2103 0482  
                        l2009 0D85                          l2033 0E04                          l2025 0DC2  
                        l2041 0E0E                          l2201 05A3                          l2121 04C3  
                        l2113 04A3                          l2105 0483                          l2035 0E05  
                        l2027 0DC9                          l2019 0DBD                          l2051 0E54  
                        l2043 0E12                          l2211 05C4                          l2203 05A4  
                        l2123 04C9                          l2115 04A9                          l2107 0496  
                        l2131 04D5                          l2061 0C91                          l2029 0DD6  
                        l2053 0E55                          l2045 0E13                          l2301 0139  
                        l2221 05E5                          l2213 05CA                          l2205 05AA  
                        l2141 04EB                          l2133 04DC                          l2125 04CA  
                        l2117 04AA                          l2109 049C                          l2071 0CCC  
                        l2063 0CC1                          l2311 0164                          l2055 0E56  
                        l2047 0E1A                          l2039 0E0E                          l2303 0142  
                        l2231 05F9                          l2223 05EB                          l2215 05CB  
                        l2207 05AB                          l2151 0511                          l2143 04F1  
                        l2135 04DE                          l2127 04D0                          l2119 04BD  
                        l2073 0CCD                          l2065 0CC6                          l2321 01C4  
                        l2313 0178                          l2049 0E27                          l2241 0F40  
                        l2233 0F18                          l2305 0147                          l2225 05F1  
                        l2217 05D1                          l2209 05BE                          l2161 0532  
                        l2153 0512                          l2145 04F2                          l2137 04E4  
                        l2129 04D1                          l2081 0446                          l2401 0338  
                        l2075 0CD0                          l2067 0CC8                          l2059 0CFD  
                        l2323 01C8                          l2315 0194                          l2251 0F6A  
                        l2243 0F49                          l2235 0F1E                          l2307 0150  
                        l2227 05F2                          l2219 05D2                          l2171 0553  
                        l2163 0538                          l2155 0518                          l2147 0505  
                        l2139 04EA                          l2091 045B                          l2083 0448  
                        l2411 0359                          l2403 0339                          l2331 02C0  
                        l2077 0CD1                          l2069 0CC9                          l2325 0202  
                        l2317 019C                          l1701 00AA                          l2253 0F6F  
                        l2245 0F4E                          l2237 0F26                          l2261 0F92  
                        l2309 0155                          l2229 05F8                          l2173 0559  
                        l2165 0539                          l2157 0519                          l2149 050B  
                        l2181 0567                          l2093 045C                          l2085 044E  
                        l2421 03AD                          l2413 0372                          l2405 033A  
                        l2341 02C7                          l2333 02C3                          l2327 0204  
                        l2319 01A0                          l1711 00CD                          l1703 00AD  
                        l2255 0F78                          l2247 0F5C                          l2239 0F34  
                        l2271 0FC2                          l2263 0F9A                          l2191 057D  
                        l2183 056E                          l2175 055F                          l2167 053F  
                        l2159 052C                          l2095 046F                          l2087 0454  
                        l2079 043E                          l2431 03F8                          l2423 03C6  
                        l2415 0380                          l2407 033F                          l2351 02CC  
                        l2343 02C8                          l2335 02C4                          l1721 00E6  
                        l1713 00D3                          l1705 00B4                          l2257 0F7D  
                        l2249 0F61                          l2281 0FEC                          l2273 0FD0  
                        l2265 0FA8                          l2193 0583                          l2185 0570  
                        l2177 0560                          l2169 0540                          l2097 0475  
                        l2089 0455                          l2433 0411                          l2425 03CB  
                        l2417 039B                          l2409 034A                          l2361 02D3  
                        l2353 02CD                          l2345 02C9                          l2337 02C5  
                        l1803 0D16                          l1811 0CB0                          l1723 00EB  
                        l1715 00D4                          l1707 00B8                          l1731 0E64  
                        l2283 0FF1                          l2275 0FD5                          l2267 0FB4  
                        l2259 0F8C                          l2291 010C                          l2195 0584  
                        l2187 0576                          l2179 0566                          l2099 047B  
                        l2435 0416                          l2427 03E6                          l2419 039E  
                        l2371 02DA                          l2363 02D4                          l2355 02CE  
                        l2347 02CA                          l2339 02C6                          l1901 070F  
                        l1821 0610                          l1813 05FE                          l1805 0D17  
                        l1717 00DB                          l1709 00BC                          l1741 0E7A  
                        l1733 0E69                          l2277 0FDE                          l2269 0FBD  
                        l2293 0118                          l2285 00F0                          l2197 0597  
                        l2189 057C                          l2437 0431                          l2429 03E9  
                        l2381 02EB                          l2373 02DB                          l2365 02D7  
                        l2357 02CF                          l2349 02CB                          l1903 0718  
                        l1911 072C                          l1823 0615                          l1831 0625  
                        l1815 0605                          l1807 0D25                          l1671 0CEA  
                        l1719 00E1                          l1751 0E96                          l1743 0E7D  
                        l1735 0E6B                          l1727 0E5F                          l2279 0FE3  
                        l2295 0121                          l2287 00F6                          l2199 059D  
                        l2439 0434                          l2391 030F                          l2383 02F1  
                        l2375 02DC                          l2367 02D8                          l2359 02D2  
                        l1913 0730                          l1905 071C                          l1841 063D  
                        l1833 062D                          l1825 061A                          l1817 060B  
                        l1681 0CA1                          l1809 0D2B                          l1673 0CEE  
                        l1761 0EB3                          l1753 0E9C                          l1745 0E84  
                        l1737 0E6F                          l1729 0E60                          l2297 0126  
                        l2289 00FE                          l2393 0318                          l2385 02FA  
                        l2377 02E1                          l2369 02D9                          l1771 0CDC  
                        l1931 0781                          l1923 0751                          l1915 0731  
                        l1907 071D                          l1843 0642                          l1851 0652  
                        l1835 0632                          l1827 0622                          l1819 060F  
                        l1675 0CEF                          l1691 0095                          l1683 0089  
                        l1755 0EA3                          l1747 0E88                          l1739 0E74  
                        l2299 0134                          l2395 031E                          l2387 0300  
                        l2379 02E6                          l1773 0CE5                          l1765 0CD6  
                        l1941 07B5                          l1925 0756                          l1933 0787  
                        l1917 0735                          l1909 0726                          l1853 0662  
                        l1861 067B                          l1845 0647                          l1837 0638  
                        l1829 0623                          l1677 0CF0                          l1781 0D57  
                        l1693 0099                          l1685 008A                          l1749 0E8C  
                        l1757 0EA9                          l2397 0327                          l2389 0309  
                        l1767 0CDA                          l1943 07BD                          l1935 0794  
                        l1927 0764                          l1919 0749                          l1871 06A3  
                        l1863 0680                          l1855 066E                          l1847 064F  
                        l1839 063C                          l1679 0CF9                          l1775 0D3C  
                        l1695 009E                          l1687 008E                          l1759 0EAE  
                        l1791 0ECC                          l1783 0EB8                          l2399 0335  
                        l1769 0CDB                          l1945 07C4                          l1937 07A2  
                        l1929 0768                          l1881 06CC                          l1873 06AB  
                        l1857 0672                          l1849 0650                          l1961 0220  
                        l1777 0D3F                          l1697 00A2                          l1689 0093  
                        l1793 0EEA                          l1785 0EC2                          l1947 07C8  
                        l1939 07B1                          l1891 06ED                          l1883 06D0  
                        l1875 06B3                          l1867 0689                          l1971 024B  
                        l1963 0230                          l1955 0207                          l1779 0D51  
                        l1699 00A4                          l1795 0EFB                          l1787 0EC3  
                        l1949 07CA                          l1893 06FB                          l1885 06D1  
                        l1877 06B5                          l1869 069B                          l1981 027F  
                        l1973 0252                          l1957 020C                          l1797 0F07  
                        l1789 0EC7                          l1879 06BA                          l1887 06DA  
                        l1895 06FF                          l1991 02B2                          l1983 0283  
                        l1975 0256                          l1967 0239                          l1959 0210  
                        l1799 0F15                          l1897 0705                          l1889 06EC  
                        l1993 02B6                          l1985 028D                          l1977 0264  
                        l1969 023E                          l1899 070D                          l1995 02B7  
                        l1987 0297                          l1979 0274                          l1989 02AD  
                        l1999 0D6C                          STR_1 0074                          STR_2 0083  
                        STR_3 0083                          STR_4 0083                          STR_5 002D  
                        STR_6 002B                          STR_7 0013                          STR_8 0047  
                        STR_9 002B                          _BRGH 04C2                          _CREN 00C4  
                        u1200 0CAF                          u2000 04A9                          u1201 0CAE  
                        u2001 04A8                          u1210 008E                          u2010 04C9  
                        u1211 008D                          u2011 04C8                          u1300 00E6  
                        u1220 0099                          u2100 055F                          u2020 04D0  
                        u1301 00E5                          u1221 0098                          u2101 055E  
                        u2021 04CF                          u1230 00AA                          u1310 0E64  
                        u2110 0566                          u2030 04DC                          u1231 00A9  
                        u1311 0E63                          u2111 0565                          u2031 04DB  
                        u1400 0D6B                          u1320 0E6F                          u2200 05F8  
                        u2120 056E                          u2040 04EA                          u1401 0D6A  
                        u1321 0E6E                          u2201 05F7                          u2121 056D  
                        u2041 04E9                          u2210 0178                          u1250 00BC  
                        u1330 0E7A                          u1410 0EC7                          u2130 057C  
                        u2050 04F1                          u2211 0177                          u1251 00BB  
                        u1331 0E79                          u1411 0EC6                          u2131 057B  
                        u2051 04F0                          u2220 0194                          u1500 0647  
                        u1420 0F01                          u2140 0583                          u2060 0511  
                        u2300 03C6                          u2221 0193                          u1501 0646  
                        u1245 00AE                          u1421 0F00                          u2141 0582  
                        u2061 0510                          u2301 03C5                          u2230 01A0  
                        u1510 0662                          u1190 0CA9                          u1270 00CD  
                        u1350 0E8C                          u1430 0F07                          u2150 05A3  
                        u2070 0518                          u2310 03E6                          u2231 019F  
                        u1511 0661                          u1191 0CA8                          u1271 00CC  
                        u1351 0E8B                          u1431 0F06                          u2151 05A2  
                        u2071 0517                          u2311 03E5                          u1600 070D  
                        u1520 0680                          u1440 0D3B                          u1360 0E96  
                        u2160 05AA                          u2080 0538                          u2320 0411  
                        u2241 01AF                          u1601 070C                          u1521 067F  
                        u1441 0D3A                          u1265 00BD                          u1361 0E95  
                        u1345 0E7E                          u2161 05A9                          u2081 0537  
                        u2321 0410                          u2250 01C8                          u2242 01B0  
                        u1530 06BA                          u1450 060F                          u1290 00E1  
                        u2170 05CA                          u2090 053F                          u2330 0431  
                        u2251 01C7                          u2243 01B5                          u1531 06B9  
                        u1451 060E                          u1291 00E0                          u1275 00C9  
                        u2171 05C9                          u2091 053E                          u2331 0430  
                        u2244 01B6                          u1700 0777                          u1620 071C  
                        u1460 0615                          u1380 0EA9                          u2180 05D1  
                        u2261 01D7                          u2245 01BB                          u1621 071B  
                        u1461 0614                          u1285 00D5                          u1381 0EA8  
                        u1365 0E92                          u2181 05D0                          u2270 0202  
                        u2262 01D8                          u2246 01BC                          u1710 0794  
                        u1470 061A                          u1390 0EAE                          u2190 05F1  
                        u2271 0201                          u2263 01DD                          u1711 0793  
                        u1615 0711                          u1471 0619                          u2407 0CBA  
                        u1391 0EAD                          u1375 0E9D                          u2191 05F0  
                        u2264 01DE                          u1720 07B1                          u1640 0730  
                        u1560 06D0                          u1480 063C                          u1800 0273  
                        u2280 0372                          u2265 01E3                          u1721 07B0  
                        u1705 0772                          u1641 072F                          u1561 06CF  
                        u1545 06BC                          u1481 063B                          u1801 0272  
                        u2417 0CF5                          u2281 0371                          u2266 01E4  
                        u1730 07C8                          u1650 0735                          u1490 0642  
                        u2290 039B                          u2275 01FE                          u1731 07C7  
                        u1715 0790                          u1651 0734                          u1635 071F  
                        u1555 06C5                          u1491 0641                          u2427 0E17  
                        u2291 039A                          u2347 032F                          u1660 0749  
                        u1580 06EC                          u1820 0283                          u1740 020C  
                        u1900 0DD0                          u1725 07AD                          u1661 0748  
                        u1581 06EB                          u1821 0282                          u1741 020B  
                        u1901 0DCF                          u2437 0DC6                          u2357 0345  
                        u1670 0750                          u1590 0705                          u1830 0289  
                        u1750 0210                          u1910 0DD5                          u1671 074F  
                        u1591 0704                          u1575 06D3                          u1831 0288  
                        u1815 0278                          u1751 020F                          u2447 0D75  
                        u1911 0DD4                          u2367 037A                          u1680 0756  
                        u1840 028D                          u1760 0230                          u1920 0E21  
                        u2457 0CE1                          u1681 0755                          u1585 06E8  
                        u1841 028C                          u1761 022F                          u1921 0E20  
                        u2377 015D                          u1690 0768                          u1850 02A2  
                        u1930 0E26                          u1691 0767                          u1931 0E25  
                        u2387 0FF9                          u1860 02B2                          u1780 0251  
                        u1940 0446                          u1861 02B1                          u1781 0250  
                        u2397 0F85                          u1941 0445                          u1870 02B6  
                        u1950 0454                          u1871 02B5                          u1855 029D  
                        u1775 0243                          u1951 0453                          u1880 0D7F  
                        u1960 045B                          u1881 0D7E                          u1961 045A  
                        u1890 0D84                          u1970 047B                          u1795 0265  
                        u1891 0D83                          u1971 047A                          u1980 0482  
                        u1981 0481                          u1990 04A2                          u1991 04A1  
                        _RCIF 0065                          _OERR 00C1                          _TMR1 000E  
                        _SPEN 00C7                          _TRMT 04C1                          _TXEN 04C5  
                        _TXIF 0064                          _SYNC 04C4                ??_broadcast_BT 0070  
                        _main 02C0                          _itoa 0EB8                          btemp 007E  
                        start 0000               ___fldiv@new_exp 0032              __end_of_LCD_Data 0CFD  
                LCD_Data@data 0072              __end_of_LCD_init 0D16                         ?_main 0070  
             __end_of___fldiv 07DB                         ?_itoa 0079               __end_of___awdiv 00F0  
                       STR_10 0013                         STR_11 0061                         STR_12 002B  
                       STR_13 0013               __end_of___awmod 0EB8               ___awdiv@divisor 0070  
             ___awdiv@counter 0075                         _RCREG 001A                         _SPBRG 0099  
                       _PORTB 0006                         _TRISB 0086                         _TXREG 0019  
                       _dist1 0D6C                         _dist2 0DBD                         _dist3 0E0E  
                       itoa@c 0022                         pclath 000A         __end_of_person150_170 0F8C  
       __end_of_person170_190 1000                         status 0003                         wtemp0 007E  
             __initialization 07DB                  __end_of_main 043E                  __end_of_itoa 0F18  
                      ??_main 0043                        ??_itoa 007B             __end_of_LCD_Clear 0C98  
                 LCD_string@i 0075                 main@distance1 0046                 main@distance2 004A  
               main@distance3 004E                        ?_dist1 003A                        ?_dist2 003A  
                      ?_dist3 003A              ___awdiv@dividend 0072                _BT_load_string 0D16  
                      _TMR1CS 0081                        _TMR1ON 0080                        _TRISA0 0428  
                      _TRISA1 0429                        _TRISA2 042A                        _TRISA3 042B  
                      _TRISA4 042C                        _TRISA5 042D                        _TRISC2 043A  
                      _TRISD0 0440                        _TRISC3 043B                        _TRISD1 0441  
                      _TRISD2 0442                        _TRISC4 043C                        _TRISD3 0443  
                      _TRISC5 043D                        _TRISC6 043E                        _TRISD4 0444  
                      _TRISC7 043F                        _TRISD5 0445                        _TRISD6 0446  
                      _TRISD7 0447              __end_of___xxtofl 02C0                        ___flge 0164  
                   ??___fldiv 0028                     ??___awdiv 0074                     ??___awmod 0074  
                      _count1 0052                        _count2 0054                        _count3 0056  
            ___awdiv@quotient 0077               ___awmod@divisor 0070               ___awmod@counter 0075  
        __end_of_broadcast_BT 0CC1        __end_of_BT_load_string 0D3C                    ___flge@ff1 0070  
                  ___flge@ff2 0074                  ___xxtofl@arg 007A                  ___xxtofl@exp 0079  
                ___xxtofl@val 0070                     ?_LCD_Data 0070       __end_of__initialization 07FC  
                   ?_LCD_init 0070                __pcstackCOMMON 0070                dist1@distance1 003F  
                __pidataBANK0 0085                 __end_of_dist1 0DBD                 __end_of_dist2 0E0E  
               __end_of_dist3 0E5F     updateWifiCounter@temp_180 0022     updateWifiCounter@temp_181 0024  
              dist2@distance2 003F                  ??_LCD_string 0075                dist3@distance3 003F  
                     ??_dist1 003E                       ??_dist2 003E                       ??_dist3 003E  
             ?_BT_load_string 0071                    __pbssBANK0 0052                    ??_LCD_Data 0070  
                  ??_LCD_init 0073                 ?_BT_load_char 0070                    __pmaintext 02C0  
                     ?___flge 0070            __end_of_LCD_string 0D6C                _personOver_190 00F0  
                     _T1CKPS0 0084                       _T1CKPS1 0085  __end_of_Initialize_Bluetooth 0CD5  
                   ?___xxtofl 0070                    __stringtab 0003                ??_BT_load_char 0070  
      __end_of_personOver_190 0164                       ___fldiv 05FE                       ___awdiv 0089  
                     ___awmod 0E5F                       __ptext1 043E                       __ptext2 00F0  
                     __ptext3 0F8C                       __ptext4 0F18                       __ptext5 0EB8  
                     __ptext6 0E5F                       __ptext7 0089                       __ptext8 0CB0  
                     __ptext9 0D3C                       _door_CM 0069                    ??___xxtofl 0074  
            ___awmod@dividend 0072                     _LCD_Clear 0C91                       clrloop0 0C99  
        end_of_initialization 07FC                LCD_Command@cmd 0072                  _broadcast_BT 0CB0  
             ?_personOver_190 0070                  itoa@original 0020                 ___xxtofl@sign 0078  
                  ?_LCD_Clear 0070              BT_load_char@byte 0070                   ___fldiv@grs 0034  
                 ___fldiv@rem 002D          _Initialize_Bluetooth 0CC1                 ??_LCD_Command 0070  
              __end_of___flge 0206          __end_of_BT_load_char 0CB0              ??_BT_load_string 0073  
         start_initialization 07DB                 _person150_170 0F18                 _person170_190 0F8C  
       ?_Initialize_Bluetooth 0070                      ??___flge 0078                   __pdataBANK0 0067  
                  itoa@buffer 005B                     ___fldiv@a 0020                     ___fldiv@b 0024  
         __end_of_LCD_Command 0CE9                     ___latbits 0002                 __pcstackBANK0 0020  
                 ??_LCD_Clear 0073                ?_person150_170 0070                ?_person170_190 0070  
               LCD_string@str 0073                      ?___fldiv 0020                      ?___awdiv 0070  
                    ?___awmod 0070                     __pstrings 0003                      _LCD_Data 0CE9  
            ??_personOver_190 0024        ??_Initialize_Bluetooth 0070                      _LCD_init 0CFD  
                   clear_ram0 0C98                   _LCD_Command 0CD5                   __stringbase 0012  
             ??_person150_170 0024               ??_person170_190 0024                  _BT_load_char 0CA0  
                   itoa@value 0079            __end_of__stringtab 0013                      ___xxtofl 0206  
                    __ptext10 0CE9                      __ptext11 0D16                      __ptext20 0C91  
                    __ptext12 0CA0                      __ptext21 0CD5                      __ptext13 0E0E  
                    __ptext22 0CC1                      __ptext14 0DBD                      __ptext15 0D6C  
                    __ptext16 0206                      __ptext17 05FE                      __ptext18 0164  
                    __ptext19 0CFD         updateWifiCounter@temp 0020          BT_load_string@string 0071  
                  _LCD_string 0D3C                     stringcode 000D             _updateWifiCounter 043E  
                 _wifiCounter 0067                      stringdir 000D                      stringtab 0003  
          ?_updateWifiCounter 0070           ??_updateWifiCounter 0079                 ?_broadcast_BT 0070  
